
kernel.elf:     file format elf32-littlearm


Disassembly of section .start_sec:

00008000 <_start>:
    8000:	e10f0000 	mrs	r0, CPSR
    8004:	e3c0001f 	bic	r0, r0, #31
    8008:	e3800013 	orr	r0, r0, #19
    800c:	e16ff000 	msr	SPSR_fsxc, r0
    8010:	e28f0004 	add	r0, pc, #4
    8014:	e12ef300 	msr	ELR_hyp, r0
    8018:	e160006e 	eret
    801c:	e3a000d3 	mov	r0, #211	; 0xd3
    8020:	e121f000 	msr	CPSR_c, r0
    8024:	e59fd03c 	ldr	sp, [pc, #60]	; 8068 <jump_stack+0x10>
    8028:	e59f403c 	ldr	r4, [pc, #60]	; 806c <jump_stack+0x14>
    802c:	e59f903c 	ldr	r9, [pc, #60]	; 8070 <jump_stack+0x18>
    8030:	e3a05000 	mov	r5, #0
    8034:	e3a06000 	mov	r6, #0
    8038:	e3a07000 	mov	r7, #0
    803c:	e3a08000 	mov	r8, #0
    8040:	ea000000 	b	8048 <_start+0x48>
    8044:	e8a401e0 	stmia	r4!, {r5, r6, r7, r8}
    8048:	e1540009 	cmp	r4, r9
    804c:	3afffffc 	bcc	8044 <_start+0x44>
    8050:	ea00015b 	b	85c4 <start>
    8054:	eafffffe 	b	8054 <_start+0x54>

00008058 <jump_stack>:
    8058:	e1a0000d 	mov	r0, sp
    805c:	e2800102 	add	r0, r0, #-2147483648	; 0x80000000
    8060:	e1a0d000 	mov	sp, r0
    8064:	e1a0f00e 	mov	pc, lr
    8068:	0000a000 	.word	0x0000a000
    806c:	00008790 	.word	0x00008790
    8070:	00011000 	.word	0x00011000

00008074 <xdelay>:
    8074:	e52db004 	push	{fp}		; (str fp, [sp, #-4]!)
    8078:	e28db000 	add	fp, sp, #0
    807c:	e24dd00c 	sub	sp, sp, #12
    8080:	e50b0008 	str	r0, [fp, #-8]
    8084:	e51b3008 	ldr	r3, [fp, #-8]

00008088 <__delay_14>:
    8088:	e2533001 	subs	r3, r3, #1
    808c:	1afffffd 	bne	8088 <__delay_14>
    8090:	e50b3008 	str	r3, [fp, #-8]
    8094:	e24bd000 	sub	sp, fp, #0
    8098:	e49db004 	pop	{fp}		; (ldr fp, [sp], #4)
    809c:	e12fff1e 	bx	lr

000080a0 <_uart_init>:
    80a0:	e92d4800 	push	{fp, lr}
    80a4:	e28db004 	add	fp, sp, #4
    80a8:	e24dd008 	sub	sp, sp, #8
    80ac:	e3053004 	movw	r3, #20484	; 0x5004
    80b0:	e3433f21 	movt	r3, #16161	; 0x3f21
    80b4:	e3a02001 	mov	r2, #1
    80b8:	e5832000 	str	r2, [r3]
    80bc:	e3053044 	movw	r3, #20548	; 0x5044
    80c0:	e3433f21 	movt	r3, #16161	; 0x3f21
    80c4:	e3a02000 	mov	r2, #0
    80c8:	e5832000 	str	r2, [r3]
    80cc:	e3053060 	movw	r3, #20576	; 0x5060
    80d0:	e3433f21 	movt	r3, #16161	; 0x3f21
    80d4:	e3a02000 	mov	r2, #0
    80d8:	e5832000 	str	r2, [r3]
    80dc:	e305304c 	movw	r3, #20556	; 0x504c
    80e0:	e3433f21 	movt	r3, #16161	; 0x3f21
    80e4:	e3a02003 	mov	r2, #3
    80e8:	e5832000 	str	r2, [r3]
    80ec:	e3053050 	movw	r3, #20560	; 0x5050
    80f0:	e3433f21 	movt	r3, #16161	; 0x3f21
    80f4:	e3a02000 	mov	r2, #0
    80f8:	e5832000 	str	r2, [r3]
    80fc:	e3053044 	movw	r3, #20548	; 0x5044
    8100:	e3433f21 	movt	r3, #16161	; 0x3f21
    8104:	e3a02000 	mov	r2, #0
    8108:	e5832000 	str	r2, [r3]
    810c:	e3053048 	movw	r3, #20552	; 0x5048
    8110:	e3433f21 	movt	r3, #16161	; 0x3f21
    8114:	e3a020c6 	mov	r2, #198	; 0xc6
    8118:	e5832000 	str	r2, [r3]
    811c:	e3053068 	movw	r3, #20584	; 0x5068
    8120:	e3433f21 	movt	r3, #16161	; 0x3f21
    8124:	e300210e 	movw	r2, #270	; 0x10e
    8128:	e5832000 	str	r2, [r3]
    812c:	e3a03004 	mov	r3, #4
    8130:	e3433f20 	movt	r3, #16160	; 0x3f20
    8134:	e5933000 	ldr	r3, [r3]
    8138:	e50b3008 	str	r3, [fp, #-8]
    813c:	e51b3008 	ldr	r3, [fp, #-8]
    8140:	e3c33a07 	bic	r3, r3, #28672	; 0x7000
    8144:	e50b3008 	str	r3, [fp, #-8]
    8148:	e51b3008 	ldr	r3, [fp, #-8]
    814c:	e3833a02 	orr	r3, r3, #8192	; 0x2000
    8150:	e50b3008 	str	r3, [fp, #-8]
    8154:	e51b3008 	ldr	r3, [fp, #-8]
    8158:	e3c3390e 	bic	r3, r3, #229376	; 0x38000
    815c:	e50b3008 	str	r3, [fp, #-8]
    8160:	e51b3008 	ldr	r3, [fp, #-8]
    8164:	e3833801 	orr	r3, r3, #65536	; 0x10000
    8168:	e50b3008 	str	r3, [fp, #-8]
    816c:	e3a03004 	mov	r3, #4
    8170:	e3433f20 	movt	r3, #16160	; 0x3f20
    8174:	e51b2008 	ldr	r2, [fp, #-8]
    8178:	e5832000 	str	r2, [r3]
    817c:	e3a03094 	mov	r3, #148	; 0x94
    8180:	e3433f20 	movt	r3, #16160	; 0x3f20
    8184:	e3a02000 	mov	r2, #0
    8188:	e5832000 	str	r2, [r3]
    818c:	e3a00096 	mov	r0, #150	; 0x96
    8190:	ebffffb7 	bl	8074 <xdelay>
    8194:	e3a03098 	mov	r3, #152	; 0x98
    8198:	e3433f20 	movt	r3, #16160	; 0x3f20
    819c:	e3a02903 	mov	r2, #49152	; 0xc000
    81a0:	e5832000 	str	r2, [r3]
    81a4:	e3a00096 	mov	r0, #150	; 0x96
    81a8:	ebffffb1 	bl	8074 <xdelay>
    81ac:	e3a03098 	mov	r3, #152	; 0x98
    81b0:	e3433f20 	movt	r3, #16160	; 0x3f20
    81b4:	e3a02000 	mov	r2, #0
    81b8:	e5832000 	str	r2, [r3]
    81bc:	e3053060 	movw	r3, #20576	; 0x5060
    81c0:	e3433f21 	movt	r3, #16161	; 0x3f21
    81c4:	e3a02003 	mov	r2, #3
    81c8:	e5832000 	str	r2, [r3]
    81cc:	e24bd004 	sub	sp, fp, #4
    81d0:	e8bd8800 	pop	{fp, pc}

000081d4 <_uart_putc>:
    81d4:	e52db004 	push	{fp}		; (str fp, [sp, #-4]!)
    81d8:	e28db000 	add	fp, sp, #0
    81dc:	e24dd00c 	sub	sp, sp, #12
    81e0:	e50b0008 	str	r0, [fp, #-8]
    81e4:	e3053054 	movw	r3, #20564	; 0x5054
    81e8:	e3433f21 	movt	r3, #16161	; 0x3f21
    81ec:	e5933000 	ldr	r3, [r3]
    81f0:	e2033020 	and	r3, r3, #32
    81f4:	e3530000 	cmp	r3, #0
    81f8:	0a000000 	beq	8200 <_uart_putc+0x2c>
    81fc:	ea000000 	b	8204 <_uart_putc+0x30>
    8200:	eafffff7 	b	81e4 <_uart_putc+0x10>
    8204:	e3053040 	movw	r3, #20544	; 0x5040
    8208:	e3433f21 	movt	r3, #16161	; 0x3f21
    820c:	e51b2008 	ldr	r2, [fp, #-8]
    8210:	e5832000 	str	r2, [r3]
    8214:	e24bd000 	sub	sp, fp, #0
    8218:	e49db004 	pop	{fp}		; (ldr fp, [sp], #4)
    821c:	e12fff1e 	bx	lr

00008220 <_puts>:
    8220:	e92d4800 	push	{fp, lr}
    8224:	e28db004 	add	fp, sp, #4
    8228:	e24dd008 	sub	sp, sp, #8
    822c:	e50b0008 	str	r0, [fp, #-8]
    8230:	ea00000b 	b	8264 <_puts+0x44>
    8234:	e51b3008 	ldr	r3, [fp, #-8]
    8238:	e5d33000 	ldrb	r3, [r3]
    823c:	e353000a 	cmp	r3, #10
    8240:	1a000001 	bne	824c <_puts+0x2c>
    8244:	e3a0000d 	mov	r0, #13
    8248:	ebffffe1 	bl	81d4 <_uart_putc>
    824c:	e51b3008 	ldr	r3, [fp, #-8]
    8250:	e2832001 	add	r2, r3, #1
    8254:	e50b2008 	str	r2, [fp, #-8]
    8258:	e5d33000 	ldrb	r3, [r3]
    825c:	e1a00003 	mov	r0, r3
    8260:	ebffffdb 	bl	81d4 <_uart_putc>
    8264:	e51b3008 	ldr	r3, [fp, #-8]
    8268:	e5d33000 	ldrb	r3, [r3]
    826c:	e3530000 	cmp	r3, #0
    8270:	1affffef 	bne	8234 <_puts+0x14>
    8274:	e24bd004 	sub	sp, fp, #4
    8278:	e8bd8800 	pop	{fp, pc}

0000827c <_hexstrings>:
    827c:	e92d4800 	push	{fp, lr}
    8280:	e28db004 	add	fp, sp, #4
    8284:	e24dd010 	sub	sp, sp, #16
    8288:	e50b0010 	str	r0, [fp, #-16]
    828c:	e3a03020 	mov	r3, #32
    8290:	e50b3008 	str	r3, [fp, #-8]
    8294:	e51b3008 	ldr	r3, [fp, #-8]
    8298:	e2433004 	sub	r3, r3, #4
    829c:	e50b3008 	str	r3, [fp, #-8]
    82a0:	e51b3008 	ldr	r3, [fp, #-8]
    82a4:	e51b2010 	ldr	r2, [fp, #-16]
    82a8:	e1a03332 	lsr	r3, r2, r3
    82ac:	e203300f 	and	r3, r3, #15
    82b0:	e50b300c 	str	r3, [fp, #-12]
    82b4:	e51b300c 	ldr	r3, [fp, #-12]
    82b8:	e3530009 	cmp	r3, #9
    82bc:	9a000003 	bls	82d0 <_hexstrings+0x54>
    82c0:	e51b300c 	ldr	r3, [fp, #-12]
    82c4:	e2833037 	add	r3, r3, #55	; 0x37
    82c8:	e50b300c 	str	r3, [fp, #-12]
    82cc:	ea000002 	b	82dc <_hexstrings+0x60>
    82d0:	e51b300c 	ldr	r3, [fp, #-12]
    82d4:	e2833030 	add	r3, r3, #48	; 0x30
    82d8:	e50b300c 	str	r3, [fp, #-12]
    82dc:	e51b000c 	ldr	r0, [fp, #-12]
    82e0:	ebffffbb 	bl	81d4 <_uart_putc>
    82e4:	e51b3008 	ldr	r3, [fp, #-8]
    82e8:	e3530000 	cmp	r3, #0
    82ec:	1a000000 	bne	82f4 <_hexstrings+0x78>
    82f0:	ea000000 	b	82f8 <_hexstrings+0x7c>
    82f4:	eaffffe6 	b	8294 <_hexstrings+0x18>
    82f8:	e3a00020 	mov	r0, #32
    82fc:	ebffffb4 	bl	81d4 <_uart_putc>
    8300:	e24bd004 	sub	sp, fp, #4
    8304:	e8bd8800 	pop	{fp, pc}

00008308 <_hexstring>:
    8308:	e92d4800 	push	{fp, lr}
    830c:	e28db004 	add	fp, sp, #4
    8310:	e24dd008 	sub	sp, sp, #8
    8314:	e50b0008 	str	r0, [fp, #-8]
    8318:	e51b0008 	ldr	r0, [fp, #-8]
    831c:	ebffffd6 	bl	827c <_hexstrings>
    8320:	e3a0000d 	mov	r0, #13
    8324:	ebffffaa 	bl	81d4 <_uart_putc>
    8328:	e3a0000a 	mov	r0, #10
    832c:	ebffffa8 	bl	81d4 <_uart_putc>
    8330:	e24bd004 	sub	sp, fp, #4
    8334:	e8bd8800 	pop	{fp, pc}

00008338 <get_pde>:
    8338:	e52db004 	push	{fp}		; (str fp, [sp, #-4]!)
    833c:	e28db000 	add	fp, sp, #0
    8340:	e24dd00c 	sub	sp, sp, #12
    8344:	e50b0008 	str	r0, [fp, #-8]
    8348:	e51b3008 	ldr	r3, [fp, #-8]
    834c:	e1a03a23 	lsr	r3, r3, #20
    8350:	e50b3008 	str	r3, [fp, #-8]
    8354:	e3083788 	movw	r3, #34696	; 0x8788
    8358:	e3403000 	movt	r3, #0
    835c:	e5932000 	ldr	r2, [r3]
    8360:	e51b3008 	ldr	r3, [fp, #-8]
    8364:	e1a03103 	lsl	r3, r3, #2
    8368:	e0823003 	add	r3, r2, r3
    836c:	e5933000 	ldr	r3, [r3]
    8370:	e1a00003 	mov	r0, r3
    8374:	e24bd000 	sub	sp, fp, #0
    8378:	e49db004 	pop	{fp}		; (ldr fp, [sp], #4)
    837c:	e12fff1e 	bx	lr

00008380 <set_bootpgtbl>:
    8380:	e52db004 	push	{fp}		; (str fp, [sp, #-4]!)
    8384:	e28db000 	add	fp, sp, #0
    8388:	e24dd01c 	sub	sp, sp, #28
    838c:	e50b0010 	str	r0, [fp, #-16]
    8390:	e50b1014 	str	r1, [fp, #-20]	; 0xffffffec
    8394:	e50b2018 	str	r2, [fp, #-24]	; 0xffffffe8
    8398:	e50b301c 	str	r3, [fp, #-28]	; 0xffffffe4
    839c:	e51b3010 	ldr	r3, [fp, #-16]
    83a0:	e1a03a23 	lsr	r3, r3, #20
    83a4:	e50b3010 	str	r3, [fp, #-16]
    83a8:	e51b3014 	ldr	r3, [fp, #-20]	; 0xffffffec
    83ac:	e1a03a23 	lsr	r3, r3, #20
    83b0:	e50b3014 	str	r3, [fp, #-20]	; 0xffffffec
    83b4:	e51b3018 	ldr	r3, [fp, #-24]	; 0xffffffe8
    83b8:	e1a03a23 	lsr	r3, r3, #20
    83bc:	e50b3018 	str	r3, [fp, #-24]	; 0xffffffe8
    83c0:	e3a03000 	mov	r3, #0
    83c4:	e50b300c 	str	r3, [fp, #-12]
    83c8:	ea00002b 	b	847c <set_bootpgtbl+0xfc>
    83cc:	e51b3014 	ldr	r3, [fp, #-20]	; 0xffffffec
    83d0:	e1a03a03 	lsl	r3, r3, #20
    83d4:	e50b3008 	str	r3, [fp, #-8]
    83d8:	e51b301c 	ldr	r3, [fp, #-28]	; 0xffffffe4
    83dc:	e3530000 	cmp	r3, #0
    83e0:	1a000004 	bne	83f8 <set_bootpgtbl+0x78>
    83e4:	e51b3008 	ldr	r3, [fp, #-8]
    83e8:	e3833b01 	orr	r3, r3, #1024	; 0x400
    83ec:	e383300e 	orr	r3, r3, #14
    83f0:	e50b3008 	str	r3, [fp, #-8]
    83f4:	ea000003 	b	8408 <set_bootpgtbl+0x88>
    83f8:	e51b3008 	ldr	r3, [fp, #-8]
    83fc:	e3833b01 	orr	r3, r3, #1024	; 0x400
    8400:	e3833002 	orr	r3, r3, #2
    8404:	e50b3008 	str	r3, [fp, #-8]
    8408:	e51b3010 	ldr	r3, [fp, #-16]
    840c:	e35300ff 	cmp	r3, #255	; 0xff
    8410:	8a000008 	bhi	8438 <set_bootpgtbl+0xb8>
    8414:	e308378c 	movw	r3, #34700	; 0x878c
    8418:	e3403000 	movt	r3, #0
    841c:	e5932000 	ldr	r2, [r3]
    8420:	e51b3010 	ldr	r3, [fp, #-16]
    8424:	e1a03103 	lsl	r3, r3, #2
    8428:	e0823003 	add	r3, r2, r3
    842c:	e51b2008 	ldr	r2, [fp, #-8]
    8430:	e5832000 	str	r2, [r3]
    8434:	ea000007 	b	8458 <set_bootpgtbl+0xd8>
    8438:	e3083788 	movw	r3, #34696	; 0x8788
    843c:	e3403000 	movt	r3, #0
    8440:	e5932000 	ldr	r2, [r3]
    8444:	e51b3010 	ldr	r3, [fp, #-16]
    8448:	e1a03103 	lsl	r3, r3, #2
    844c:	e0823003 	add	r3, r2, r3
    8450:	e51b2008 	ldr	r2, [fp, #-8]
    8454:	e5832000 	str	r2, [r3]
    8458:	e51b3010 	ldr	r3, [fp, #-16]
    845c:	e2833001 	add	r3, r3, #1
    8460:	e50b3010 	str	r3, [fp, #-16]
    8464:	e51b3014 	ldr	r3, [fp, #-20]	; 0xffffffec
    8468:	e2833001 	add	r3, r3, #1
    846c:	e50b3014 	str	r3, [fp, #-20]	; 0xffffffec
    8470:	e51b300c 	ldr	r3, [fp, #-12]
    8474:	e2833001 	add	r3, r3, #1
    8478:	e50b300c 	str	r3, [fp, #-12]
    847c:	e51b200c 	ldr	r2, [fp, #-12]
    8480:	e51b3018 	ldr	r3, [fp, #-24]	; 0xffffffe8
    8484:	e1520003 	cmp	r2, r3
    8488:	3affffcf 	bcc	83cc <set_bootpgtbl+0x4c>
    848c:	e24bd000 	sub	sp, fp, #0
    8490:	e49db004 	pop	{fp}		; (ldr fp, [sp], #4)
    8494:	e12fff1e 	bx	lr

00008498 <_flush_all>:
    8498:	e52db004 	push	{fp}		; (str fp, [sp, #-4]!)
    849c:	e28db000 	add	fp, sp, #0
    84a0:	e24dd00c 	sub	sp, sp, #12
    84a4:	e3a03000 	mov	r3, #0
    84a8:	e50b3008 	str	r3, [fp, #-8]
    84ac:	e51b3008 	ldr	r3, [fp, #-8]
    84b0:	ee083f17 	mcr	15, 0, r3, cr8, cr7, {0}
    84b4:	e24bd000 	sub	sp, fp, #0
    84b8:	e49db004 	pop	{fp}		; (ldr fp, [sp], #4)
    84bc:	e12fff1e 	bx	lr

000084c0 <load_pgtlb>:
    84c0:	e92d4800 	push	{fp, lr}
    84c4:	e28db004 	add	fp, sp, #4
    84c8:	e24dd018 	sub	sp, sp, #24
    84cc:	e50b0018 	str	r0, [fp, #-24]	; 0xffffffe8
    84d0:	e50b101c 	str	r1, [fp, #-28]	; 0xffffffe4
    84d4:	ee103f10 	mrc	15, 0, r3, cr0, cr0, {0}
    84d8:	e50b3008 	str	r3, [fp, #-8]
    84dc:	e51b3008 	ldr	r3, [fp, #-8]
    84e0:	e1a03823 	lsr	r3, r3, #16
    84e4:	e6ef3073 	uxtb	r3, r3
    84e8:	e203300f 	and	r3, r3, #15
    84ec:	e54b3009 	strb	r3, [fp, #-9]
    84f0:	e55b3009 	ldrb	r3, [fp, #-9]
    84f4:	e3530007 	cmp	r3, #7
    84f8:	0a000005 	beq	8514 <load_pgtlb+0x54>
    84fc:	e55b3009 	ldrb	r3, [fp, #-9]
    8500:	e353000f 	cmp	r3, #15
    8504:	0a000002 	beq	8514 <load_pgtlb+0x54>
    8508:	e30806f0 	movw	r0, #34544	; 0x86f0
    850c:	e3400000 	movt	r0, #0
    8510:	ebffff42 	bl	8220 <_puts>
    8514:	e3053555 	movw	r3, #21845	; 0x5555
    8518:	e3453555 	movt	r3, #21845	; 0x5555
    851c:	e50b3010 	str	r3, [fp, #-16]
    8520:	e51b3010 	ldr	r3, [fp, #-16]
    8524:	ee033f10 	mcr	15, 0, r3, cr3, cr0, {0}
    8528:	e3a03004 	mov	r3, #4
    852c:	e50b3010 	str	r3, [fp, #-16]
    8530:	e51b3010 	ldr	r3, [fp, #-16]
    8534:	ee023f50 	mcr	15, 0, r3, cr2, cr0, {2}
    8538:	e3083788 	movw	r3, #34696	; 0x8788
    853c:	e3403000 	movt	r3, #0
    8540:	e5933000 	ldr	r3, [r3]
    8544:	e50b3010 	str	r3, [fp, #-16]
    8548:	e51b3010 	ldr	r3, [fp, #-16]
    854c:	ee023f30 	mcr	15, 0, r3, cr2, cr0, {1}
    8550:	e51b301c 	ldr	r3, [fp, #-28]	; 0xffffffe4
    8554:	e50b3010 	str	r3, [fp, #-16]
    8558:	e51b3010 	ldr	r3, [fp, #-16]
    855c:	ee023f10 	mcr	15, 0, r3, cr2, cr0, {0}
    8560:	ee113f10 	mrc	15, 0, r3, cr1, cr0, {0}
    8564:	e50b3010 	str	r3, [fp, #-16]
    8568:	e51b2010 	ldr	r2, [fp, #-16]
    856c:	e303300d 	movw	r3, #12301	; 0x300d
    8570:	e3403080 	movt	r3, #128	; 0x80
    8574:	e1823003 	orr	r3, r2, r3
    8578:	e50b3010 	str	r3, [fp, #-16]
    857c:	e51b3010 	ldr	r3, [fp, #-16]
    8580:	ee013f10 	mcr	15, 0, r3, cr1, cr0, {0}
    8584:	ebffffc3 	bl	8498 <_flush_all>
    8588:	e24bd004 	sub	sp, fp, #4
    858c:	e8bd8800 	pop	{fp, pc}

00008590 <clear_bss>:
    8590:	e92d4800 	push	{fp, lr}
    8594:	e28db004 	add	fp, sp, #4
    8598:	e3002000 	movw	r2, #0
    859c:	e348200b 	movt	r2, #32779	; 0x800b
    85a0:	e30a30c0 	movw	r3, #41152	; 0xa0c0
    85a4:	e348300a 	movt	r3, #32778	; 0x800a
    85a8:	e0633002 	rsb	r3, r3, r2
    85ac:	e30a00c0 	movw	r0, #41152	; 0xa0c0
    85b0:	e348000a 	movt	r0, #32778	; 0x800a
    85b4:	e3a01000 	mov	r1, #0
    85b8:	e1a02003 	mov	r2, r3
    85bc:	eb000049 	bl	86e8 <__memset_veneer>
    85c0:	e8bd8800 	pop	{fp, pc}

000085c4 <start>:
    85c4:	e92d4800 	push	{fp, lr}
    85c8:	e28db004 	add	fp, sp, #4
    85cc:	e24dd008 	sub	sp, sp, #8
    85d0:	ebfffeb2 	bl	80a0 <_uart_init>
    85d4:	e3080708 	movw	r0, #34568	; 0x8708
    85d8:	e3400000 	movt	r0, #0
    85dc:	ebffff0f 	bl	8220 <_puts>
    85e0:	e3a00000 	mov	r0, #0
    85e4:	ebffff24 	bl	827c <_hexstrings>
    85e8:	e3a00601 	mov	r0, #1048576	; 0x100000
    85ec:	ebffff22 	bl	827c <_hexstrings>
    85f0:	e3a00102 	mov	r0, #-2147483648	; 0x80000000
    85f4:	ebffff43 	bl	8308 <_hexstring>
    85f8:	e3a0043f 	mov	r0, #1056964608	; 0x3f000000
    85fc:	ebffff41 	bl	8308 <_hexstring>
    8600:	e3a00000 	mov	r0, #0
    8604:	e3a01000 	mov	r1, #0
    8608:	e3a02601 	mov	r2, #1048576	; 0x100000
    860c:	e3a03000 	mov	r3, #0
    8610:	ebffff5a 	bl	8380 <set_bootpgtbl>
    8614:	e3a00102 	mov	r0, #-2147483648	; 0x80000000
    8618:	e3a01000 	mov	r1, #0
    861c:	e3a02601 	mov	r2, #1048576	; 0x100000
    8620:	e3a03000 	mov	r3, #0
    8624:	ebffff55 	bl	8380 <set_bootpgtbl>
    8628:	e3a03000 	mov	r3, #0
    862c:	e348300f 	movt	r3, #32783	; 0x800f
    8630:	e50b3008 	str	r3, [fp, #-8]
    8634:	e3003000 	movw	r3, #0
    8638:	e348300b 	movt	r3, #32779	; 0x800b
    863c:	e51b2008 	ldr	r2, [fp, #-8]
    8640:	e1520003 	cmp	r2, r3
    8644:	8a000005 	bhi	8660 <start+0x9c>
    8648:	e3080728 	movw	r0, #34600	; 0x8728
    864c:	e3400000 	movt	r0, #0
    8650:	ebfffef2 	bl	8220 <_puts>
    8654:	e3080760 	movw	r0, #34656	; 0x8760
    8658:	e3400000 	movt	r0, #0
    865c:	eb00001d 	bl	86d8 <__cprintf_veneer>
    8660:	e3a00000 	mov	r0, #0
    8664:	e34f0fff 	movt	r0, #65535	; 0xffff
    8668:	e3a01000 	mov	r1, #0
    866c:	e3a02601 	mov	r2, #1048576	; 0x100000
    8670:	e3a03000 	mov	r3, #0
    8674:	ebffff41 	bl	8380 <set_bootpgtbl>
    8678:	e3a0043f 	mov	r0, #1056964608	; 0x3f000000
    867c:	e3a0143f 	mov	r1, #1056964608	; 0x3f000000
    8680:	e3a02501 	mov	r2, #4194304	; 0x400000
    8684:	e3a03001 	mov	r3, #1
    8688:	ebffff3c 	bl	8380 <set_bootpgtbl>
    868c:	e3a004bf 	mov	r0, #-1090519040	; 0xbf000000
    8690:	e3a0143f 	mov	r1, #1056964608	; 0x3f000000
    8694:	e3a02501 	mov	r2, #4194304	; 0x400000
    8698:	e3a03001 	mov	r3, #1
    869c:	ebffff37 	bl	8380 <set_bootpgtbl>
    86a0:	e3083788 	movw	r3, #34696	; 0x8788
    86a4:	e3403000 	movt	r3, #0
    86a8:	e5932000 	ldr	r2, [r3]
    86ac:	e308378c 	movw	r3, #34700	; 0x878c
    86b0:	e3403000 	movt	r3, #0
    86b4:	e5933000 	ldr	r3, [r3]
    86b8:	e1a00002 	mov	r0, r2
    86bc:	e1a01003 	mov	r1, r3
    86c0:	ebffff7e 	bl	84c0 <load_pgtlb>
    86c4:	ebfffe63 	bl	8058 <jump_stack>
    86c8:	ebffffb0 	bl	8590 <clear_bss>
    86cc:	eb000003 	bl	86e0 <__kmain_veneer>
    86d0:	e24bd004 	sub	sp, fp, #4
    86d4:	e8bd8800 	pop	{fp, pc}

000086d8 <__cprintf_veneer>:
    86d8:	e51ff004 	ldr	pc, [pc, #-4]	; 86dc <__cprintf_veneer+0x4>
    86dc:	8002196c 	.word	0x8002196c

000086e0 <__kmain_veneer>:
    86e0:	e51ff004 	ldr	pc, [pc, #-4]	; 86e4 <__kmain_veneer+0x4>
    86e4:	80024890 	.word	0x80024890

000086e8 <__memset_veneer>:
    86e8:	e51ff004 	ldr	pc, [pc, #-4]	; 86ec <__memset_veneer+0x4>
    86ec:	80020000 	.word	0x80020000

000086f0 <.LC0>:
    86f0:	6465656e 	.word	0x6465656e
    86f4:	52414120 	.word	0x52414120
    86f8:	3676204d 	.word	0x3676204d
    86fc:	20726f20 	.word	0x20726f20
    8700:	68676968 	.word	0x68676968
    8704:	000a7265 	.word	0x000a7265

00008708 <.LC1>:
    8708:	72617473 	.word	0x72617473
    870c:	676e6974 	.word	0x676e6974
    8710:	36767820 	.word	0x36767820
    8714:	726f6620 	.word	0x726f6620
    8718:	4d524120 	.word	0x4d524120
    871c:	206e6f20 	.word	0x206e6f20
    8720:	2e495052 	.word	0x2e495052
    8724:	000a2e2e 	.word	0x000a2e2e

00008728 <.LC2>:
    8728:	6f727265 	.word	0x6f727265
    872c:	76203a72 	.word	0x76203a72
    8730:	6f746365 	.word	0x6f746365
    8734:	61742072 	.word	0x61742072
    8738:	20656c62 	.word	0x20656c62
    873c:	7265766f 	.word	0x7265766f
    8740:	2070616c 	.word	0x2070616c
    8744:	20646e61 	.word	0x20646e61
    8748:	69727063 	.word	0x69727063
    874c:	2866746e 	.word	0x2866746e
    8750:	73692029 	.word	0x73692029
    8754:	30783020 	.word	0x30783020
    8758:	30303030 	.word	0x30303030
    875c:	0000000a 	.word	0x0000000a

00008760 <.LC3>:
    8760:	6f727265 	.word	0x6f727265
    8764:	76203a72 	.word	0x76203a72
    8768:	6f746365 	.word	0x6f746365
    876c:	61742072 	.word	0x61742072
    8770:	20656c62 	.word	0x20656c62
    8774:	7265766f 	.word	0x7265766f
    8778:	7370616c 	.word	0x7370616c
    877c:	72656b20 	.word	0x72656b20
    8780:	0a6c656e 	.word	0x0a6c656e
    8784:	00000000 	.word	0x00000000

00008788 <kernel_pgtbl>:
    8788:	0000c000                                ....

0000878c <user_pgtbl>:
    878c:	00010000                                ....

00008790 <edata_entry>:
	...

0000a000 <svc_stktop>:
	...

0000c000 <_kernel_pgtbl>:
	...

00010000 <_user_pgtbl>:
	...

Disassembly of section .text:

80020000 <memset>:
80020000:	e52db004 	push	{fp}		; (str fp, [sp, #-4]!)
80020004:	e28db000 	add	fp, sp, #0
80020008:	e24dd024 	sub	sp, sp, #36	; 0x24
8002000c:	e50b0018 	str	r0, [fp, #-24]	; 0xffffffe8
80020010:	e50b101c 	str	r1, [fp, #-28]	; 0xffffffe4
80020014:	e50b2020 	str	r2, [fp, #-32]	; 0xffffffe0
80020018:	e51b3018 	ldr	r3, [fp, #-24]	; 0xffffffe8
8002001c:	e50b3008 	str	r3, [fp, #-8]
80020020:	e51b301c 	ldr	r3, [fp, #-28]	; 0xffffffe4
80020024:	e54b300d 	strb	r3, [fp, #-13]
80020028:	e55b300d 	ldrb	r3, [fp, #-13]
8002002c:	e1a02c03 	lsl	r2, r3, #24
80020030:	e55b300d 	ldrb	r3, [fp, #-13]
80020034:	e1a03803 	lsl	r3, r3, #16
80020038:	e1822003 	orr	r2, r2, r3
8002003c:	e55b300d 	ldrb	r3, [fp, #-13]
80020040:	e1a03403 	lsl	r3, r3, #8
80020044:	e1822003 	orr	r2, r2, r3
80020048:	e55b300d 	ldrb	r3, [fp, #-13]
8002004c:	e1823003 	orr	r3, r2, r3
80020050:	e50b3014 	str	r3, [fp, #-20]	; 0xffffffec
80020054:	ea000008 	b	8002007c <memset+0x7c>
80020058:	e51b3008 	ldr	r3, [fp, #-8]
8002005c:	e55b200d 	ldrb	r2, [fp, #-13]
80020060:	e5c32000 	strb	r2, [r3]
80020064:	e51b3020 	ldr	r3, [fp, #-32]	; 0xffffffe0
80020068:	e2433001 	sub	r3, r3, #1
8002006c:	e50b3020 	str	r3, [fp, #-32]	; 0xffffffe0
80020070:	e51b3008 	ldr	r3, [fp, #-8]
80020074:	e2833001 	add	r3, r3, #1
80020078:	e50b3008 	str	r3, [fp, #-8]
8002007c:	e51b3020 	ldr	r3, [fp, #-32]	; 0xffffffe0
80020080:	e3530000 	cmp	r3, #0
80020084:	da000003 	ble	80020098 <memset+0x98>
80020088:	e51b3008 	ldr	r3, [fp, #-8]
8002008c:	e2033003 	and	r3, r3, #3
80020090:	e3530000 	cmp	r3, #0
80020094:	1affffef 	bne	80020058 <memset+0x58>
80020098:	e51b3008 	ldr	r3, [fp, #-8]
8002009c:	e50b300c 	str	r3, [fp, #-12]
800200a0:	ea000008 	b	800200c8 <memset+0xc8>
800200a4:	e51b300c 	ldr	r3, [fp, #-12]
800200a8:	e51b2014 	ldr	r2, [fp, #-20]	; 0xffffffec
800200ac:	e5832000 	str	r2, [r3]
800200b0:	e51b3020 	ldr	r3, [fp, #-32]	; 0xffffffe0
800200b4:	e2433004 	sub	r3, r3, #4
800200b8:	e50b3020 	str	r3, [fp, #-32]	; 0xffffffe0
800200bc:	e51b300c 	ldr	r3, [fp, #-12]
800200c0:	e2833004 	add	r3, r3, #4
800200c4:	e50b300c 	str	r3, [fp, #-12]
800200c8:	e51b3020 	ldr	r3, [fp, #-32]	; 0xffffffe0
800200cc:	e3530003 	cmp	r3, #3
800200d0:	cafffff3 	bgt	800200a4 <memset+0xa4>
800200d4:	e51b300c 	ldr	r3, [fp, #-12]
800200d8:	e50b3008 	str	r3, [fp, #-8]
800200dc:	ea000008 	b	80020104 <memset+0x104>
800200e0:	e51b3008 	ldr	r3, [fp, #-8]
800200e4:	e55b200d 	ldrb	r2, [fp, #-13]
800200e8:	e5c32000 	strb	r2, [r3]
800200ec:	e51b3020 	ldr	r3, [fp, #-32]	; 0xffffffe0
800200f0:	e2433001 	sub	r3, r3, #1
800200f4:	e50b3020 	str	r3, [fp, #-32]	; 0xffffffe0
800200f8:	e51b3008 	ldr	r3, [fp, #-8]
800200fc:	e2833001 	add	r3, r3, #1
80020100:	e50b3008 	str	r3, [fp, #-8]
80020104:	e51b3020 	ldr	r3, [fp, #-32]	; 0xffffffe0
80020108:	e3530000 	cmp	r3, #0
8002010c:	cafffff3 	bgt	800200e0 <memset+0xe0>
80020110:	e51b3018 	ldr	r3, [fp, #-24]	; 0xffffffe8
80020114:	e1a00003 	mov	r0, r3
80020118:	e24bd000 	sub	sp, fp, #0
8002011c:	e49db004 	pop	{fp}		; (ldr fp, [sp], #4)
80020120:	e12fff1e 	bx	lr

80020124 <memcmp>:
80020124:	e52db004 	push	{fp}		; (str fp, [sp, #-4]!)
80020128:	e28db000 	add	fp, sp, #0
8002012c:	e24dd01c 	sub	sp, sp, #28
80020130:	e50b0010 	str	r0, [fp, #-16]
80020134:	e50b1014 	str	r1, [fp, #-20]	; 0xffffffec
80020138:	e50b2018 	str	r2, [fp, #-24]	; 0xffffffe8
8002013c:	e51b3010 	ldr	r3, [fp, #-16]
80020140:	e50b3008 	str	r3, [fp, #-8]
80020144:	e51b3014 	ldr	r3, [fp, #-20]	; 0xffffffec
80020148:	e50b300c 	str	r3, [fp, #-12]
8002014c:	ea000012 	b	8002019c <memcmp+0x78>
80020150:	e51b3008 	ldr	r3, [fp, #-8]
80020154:	e5d32000 	ldrb	r2, [r3]
80020158:	e51b300c 	ldr	r3, [fp, #-12]
8002015c:	e5d33000 	ldrb	r3, [r3]
80020160:	e1520003 	cmp	r2, r3
80020164:	0a000006 	beq	80020184 <memcmp+0x60>
80020168:	e51b3008 	ldr	r3, [fp, #-8]
8002016c:	e5d33000 	ldrb	r3, [r3]
80020170:	e1a02003 	mov	r2, r3
80020174:	e51b300c 	ldr	r3, [fp, #-12]
80020178:	e5d33000 	ldrb	r3, [r3]
8002017c:	e0633002 	rsb	r3, r3, r2
80020180:	ea00000b 	b	800201b4 <memcmp+0x90>
80020184:	e51b3008 	ldr	r3, [fp, #-8]
80020188:	e2833001 	add	r3, r3, #1
8002018c:	e50b3008 	str	r3, [fp, #-8]
80020190:	e51b300c 	ldr	r3, [fp, #-12]
80020194:	e2833001 	add	r3, r3, #1
80020198:	e50b300c 	str	r3, [fp, #-12]
8002019c:	e51b3018 	ldr	r3, [fp, #-24]	; 0xffffffe8
800201a0:	e2432001 	sub	r2, r3, #1
800201a4:	e50b2018 	str	r2, [fp, #-24]	; 0xffffffe8
800201a8:	e3530000 	cmp	r3, #0
800201ac:	1affffe7 	bne	80020150 <memcmp+0x2c>
800201b0:	e3a03000 	mov	r3, #0
800201b4:	e1a00003 	mov	r0, r3
800201b8:	e24bd000 	sub	sp, fp, #0
800201bc:	e49db004 	pop	{fp}		; (ldr fp, [sp], #4)
800201c0:	e12fff1e 	bx	lr

800201c4 <memmove>:
800201c4:	e52db004 	push	{fp}		; (str fp, [sp, #-4]!)
800201c8:	e28db000 	add	fp, sp, #0
800201cc:	e24dd01c 	sub	sp, sp, #28
800201d0:	e50b0010 	str	r0, [fp, #-16]
800201d4:	e50b1014 	str	r1, [fp, #-20]	; 0xffffffec
800201d8:	e50b2018 	str	r2, [fp, #-24]	; 0xffffffe8
800201dc:	e51b3014 	ldr	r3, [fp, #-20]	; 0xffffffec
800201e0:	e50b3008 	str	r3, [fp, #-8]
800201e4:	e51b3010 	ldr	r3, [fp, #-16]
800201e8:	e50b300c 	str	r3, [fp, #-12]
800201ec:	e51b2008 	ldr	r2, [fp, #-8]
800201f0:	e51b300c 	ldr	r3, [fp, #-12]
800201f4:	e1520003 	cmp	r2, r3
800201f8:	2a00001e 	bcs	80020278 <memmove+0xb4>
800201fc:	e51b2008 	ldr	r2, [fp, #-8]
80020200:	e51b3018 	ldr	r3, [fp, #-24]	; 0xffffffe8
80020204:	e0822003 	add	r2, r2, r3
80020208:	e51b300c 	ldr	r3, [fp, #-12]
8002020c:	e1520003 	cmp	r2, r3
80020210:	9a000018 	bls	80020278 <memmove+0xb4>
80020214:	e51b2008 	ldr	r2, [fp, #-8]
80020218:	e51b3018 	ldr	r3, [fp, #-24]	; 0xffffffe8
8002021c:	e0823003 	add	r3, r2, r3
80020220:	e50b3008 	str	r3, [fp, #-8]
80020224:	e51b200c 	ldr	r2, [fp, #-12]
80020228:	e51b3018 	ldr	r3, [fp, #-24]	; 0xffffffe8
8002022c:	e0823003 	add	r3, r2, r3
80020230:	e50b300c 	str	r3, [fp, #-12]
80020234:	ea000009 	b	80020260 <memmove+0x9c>
80020238:	e51b300c 	ldr	r3, [fp, #-12]
8002023c:	e2433001 	sub	r3, r3, #1
80020240:	e50b300c 	str	r3, [fp, #-12]
80020244:	e51b3008 	ldr	r3, [fp, #-8]
80020248:	e2433001 	sub	r3, r3, #1
8002024c:	e50b3008 	str	r3, [fp, #-8]
80020250:	e51b3008 	ldr	r3, [fp, #-8]
80020254:	e5d32000 	ldrb	r2, [r3]
80020258:	e51b300c 	ldr	r3, [fp, #-12]
8002025c:	e5c32000 	strb	r2, [r3]
80020260:	e51b3018 	ldr	r3, [fp, #-24]	; 0xffffffe8
80020264:	e2432001 	sub	r2, r3, #1
80020268:	e50b2018 	str	r2, [fp, #-24]	; 0xffffffe8
8002026c:	e3530000 	cmp	r3, #0
80020270:	1afffff0 	bne	80020238 <memmove+0x74>
80020274:	ea00000d 	b	800202b0 <memmove+0xec>
80020278:	ea000007 	b	8002029c <memmove+0xd8>
8002027c:	e51b300c 	ldr	r3, [fp, #-12]
80020280:	e2832001 	add	r2, r3, #1
80020284:	e50b200c 	str	r2, [fp, #-12]
80020288:	e51b2008 	ldr	r2, [fp, #-8]
8002028c:	e2821001 	add	r1, r2, #1
80020290:	e50b1008 	str	r1, [fp, #-8]
80020294:	e5d22000 	ldrb	r2, [r2]
80020298:	e5c32000 	strb	r2, [r3]
8002029c:	e51b3018 	ldr	r3, [fp, #-24]	; 0xffffffe8
800202a0:	e2432001 	sub	r2, r3, #1
800202a4:	e50b2018 	str	r2, [fp, #-24]	; 0xffffffe8
800202a8:	e3530000 	cmp	r3, #0
800202ac:	1afffff2 	bne	8002027c <memmove+0xb8>
800202b0:	e51b3010 	ldr	r3, [fp, #-16]
800202b4:	e1a00003 	mov	r0, r3
800202b8:	e24bd000 	sub	sp, fp, #0
800202bc:	e49db004 	pop	{fp}		; (ldr fp, [sp], #4)
800202c0:	e12fff1e 	bx	lr

800202c4 <memcpy>:
800202c4:	e92d4800 	push	{fp, lr}
800202c8:	e28db004 	add	fp, sp, #4
800202cc:	e24dd010 	sub	sp, sp, #16
800202d0:	e50b0008 	str	r0, [fp, #-8]
800202d4:	e50b100c 	str	r1, [fp, #-12]
800202d8:	e50b2010 	str	r2, [fp, #-16]
800202dc:	e51b0008 	ldr	r0, [fp, #-8]
800202e0:	e51b100c 	ldr	r1, [fp, #-12]
800202e4:	e51b2010 	ldr	r2, [fp, #-16]
800202e8:	ebffffb5 	bl	800201c4 <memmove>
800202ec:	e1a03000 	mov	r3, r0
800202f0:	e1a00003 	mov	r0, r3
800202f4:	e24bd004 	sub	sp, fp, #4
800202f8:	e8bd8800 	pop	{fp, pc}

800202fc <strncmp>:
800202fc:	e52db004 	push	{fp}		; (str fp, [sp, #-4]!)
80020300:	e28db000 	add	fp, sp, #0
80020304:	e24dd014 	sub	sp, sp, #20
80020308:	e50b0008 	str	r0, [fp, #-8]
8002030c:	e50b100c 	str	r1, [fp, #-12]
80020310:	e50b2010 	str	r2, [fp, #-16]
80020314:	ea000008 	b	8002033c <strncmp+0x40>
80020318:	e51b3010 	ldr	r3, [fp, #-16]
8002031c:	e2433001 	sub	r3, r3, #1
80020320:	e50b3010 	str	r3, [fp, #-16]
80020324:	e51b3008 	ldr	r3, [fp, #-8]
80020328:	e2833001 	add	r3, r3, #1
8002032c:	e50b3008 	str	r3, [fp, #-8]
80020330:	e51b300c 	ldr	r3, [fp, #-12]
80020334:	e2833001 	add	r3, r3, #1
80020338:	e50b300c 	str	r3, [fp, #-12]
8002033c:	e51b3010 	ldr	r3, [fp, #-16]
80020340:	e3530000 	cmp	r3, #0
80020344:	0a000009 	beq	80020370 <strncmp+0x74>
80020348:	e51b3008 	ldr	r3, [fp, #-8]
8002034c:	e5d33000 	ldrb	r3, [r3]
80020350:	e3530000 	cmp	r3, #0
80020354:	0a000005 	beq	80020370 <strncmp+0x74>
80020358:	e51b3008 	ldr	r3, [fp, #-8]
8002035c:	e5d32000 	ldrb	r2, [r3]
80020360:	e51b300c 	ldr	r3, [fp, #-12]
80020364:	e5d33000 	ldrb	r3, [r3]
80020368:	e1520003 	cmp	r2, r3
8002036c:	0affffe9 	beq	80020318 <strncmp+0x1c>
80020370:	e51b3010 	ldr	r3, [fp, #-16]
80020374:	e3530000 	cmp	r3, #0
80020378:	1a000001 	bne	80020384 <strncmp+0x88>
8002037c:	e3a03000 	mov	r3, #0
80020380:	ea000005 	b	8002039c <strncmp+0xa0>
80020384:	e51b3008 	ldr	r3, [fp, #-8]
80020388:	e5d33000 	ldrb	r3, [r3]
8002038c:	e1a02003 	mov	r2, r3
80020390:	e51b300c 	ldr	r3, [fp, #-12]
80020394:	e5d33000 	ldrb	r3, [r3]
80020398:	e0633002 	rsb	r3, r3, r2
8002039c:	e1a00003 	mov	r0, r3
800203a0:	e24bd000 	sub	sp, fp, #0
800203a4:	e49db004 	pop	{fp}		; (ldr fp, [sp], #4)
800203a8:	e12fff1e 	bx	lr

800203ac <strncpy>:
800203ac:	e52db004 	push	{fp}		; (str fp, [sp, #-4]!)
800203b0:	e28db000 	add	fp, sp, #0
800203b4:	e24dd01c 	sub	sp, sp, #28
800203b8:	e50b0010 	str	r0, [fp, #-16]
800203bc:	e50b1014 	str	r1, [fp, #-20]	; 0xffffffec
800203c0:	e50b2018 	str	r2, [fp, #-24]	; 0xffffffe8
800203c4:	e51b3010 	ldr	r3, [fp, #-16]
800203c8:	e50b3008 	str	r3, [fp, #-8]
800203cc:	e1a00000 	nop			; (mov r0, r0)
800203d0:	e51b3018 	ldr	r3, [fp, #-24]	; 0xffffffe8
800203d4:	e2432001 	sub	r2, r3, #1
800203d8:	e50b2018 	str	r2, [fp, #-24]	; 0xffffffe8
800203dc:	e3530000 	cmp	r3, #0
800203e0:	da00000a 	ble	80020410 <strncpy+0x64>
800203e4:	e51b3010 	ldr	r3, [fp, #-16]
800203e8:	e2832001 	add	r2, r3, #1
800203ec:	e50b2010 	str	r2, [fp, #-16]
800203f0:	e51b2014 	ldr	r2, [fp, #-20]	; 0xffffffec
800203f4:	e2821001 	add	r1, r2, #1
800203f8:	e50b1014 	str	r1, [fp, #-20]	; 0xffffffec
800203fc:	e5d22000 	ldrb	r2, [r2]
80020400:	e5c32000 	strb	r2, [r3]
80020404:	e5d33000 	ldrb	r3, [r3]
80020408:	e3530000 	cmp	r3, #0
8002040c:	1affffef 	bne	800203d0 <strncpy+0x24>
80020410:	ea000004 	b	80020428 <strncpy+0x7c>
80020414:	e51b3010 	ldr	r3, [fp, #-16]
80020418:	e2832001 	add	r2, r3, #1
8002041c:	e50b2010 	str	r2, [fp, #-16]
80020420:	e3a02000 	mov	r2, #0
80020424:	e5c32000 	strb	r2, [r3]
80020428:	e51b3018 	ldr	r3, [fp, #-24]	; 0xffffffe8
8002042c:	e2432001 	sub	r2, r3, #1
80020430:	e50b2018 	str	r2, [fp, #-24]	; 0xffffffe8
80020434:	e3530000 	cmp	r3, #0
80020438:	cafffff5 	bgt	80020414 <strncpy+0x68>
8002043c:	e51b3008 	ldr	r3, [fp, #-8]
80020440:	e1a00003 	mov	r0, r3
80020444:	e24bd000 	sub	sp, fp, #0
80020448:	e49db004 	pop	{fp}		; (ldr fp, [sp], #4)
8002044c:	e12fff1e 	bx	lr

80020450 <safestrcpy>:
80020450:	e52db004 	push	{fp}		; (str fp, [sp, #-4]!)
80020454:	e28db000 	add	fp, sp, #0
80020458:	e24dd01c 	sub	sp, sp, #28
8002045c:	e50b0010 	str	r0, [fp, #-16]
80020460:	e50b1014 	str	r1, [fp, #-20]	; 0xffffffec
80020464:	e50b2018 	str	r2, [fp, #-24]	; 0xffffffe8
80020468:	e51b3010 	ldr	r3, [fp, #-16]
8002046c:	e50b3008 	str	r3, [fp, #-8]
80020470:	e51b3018 	ldr	r3, [fp, #-24]	; 0xffffffe8
80020474:	e3530000 	cmp	r3, #0
80020478:	ca000001 	bgt	80020484 <safestrcpy+0x34>
8002047c:	e51b3008 	ldr	r3, [fp, #-8]
80020480:	ea000014 	b	800204d8 <safestrcpy+0x88>
80020484:	e51b3018 	ldr	r3, [fp, #-24]	; 0xffffffe8
80020488:	e2433001 	sub	r3, r3, #1
8002048c:	e50b3018 	str	r3, [fp, #-24]	; 0xffffffe8
80020490:	e51b3018 	ldr	r3, [fp, #-24]	; 0xffffffe8
80020494:	e3530000 	cmp	r3, #0
80020498:	da00000a 	ble	800204c8 <safestrcpy+0x78>
8002049c:	e51b3010 	ldr	r3, [fp, #-16]
800204a0:	e2832001 	add	r2, r3, #1
800204a4:	e50b2010 	str	r2, [fp, #-16]
800204a8:	e51b2014 	ldr	r2, [fp, #-20]	; 0xffffffec
800204ac:	e2821001 	add	r1, r2, #1
800204b0:	e50b1014 	str	r1, [fp, #-20]	; 0xffffffec
800204b4:	e5d22000 	ldrb	r2, [r2]
800204b8:	e5c32000 	strb	r2, [r3]
800204bc:	e5d33000 	ldrb	r3, [r3]
800204c0:	e3530000 	cmp	r3, #0
800204c4:	1affffee 	bne	80020484 <safestrcpy+0x34>
800204c8:	e51b3010 	ldr	r3, [fp, #-16]
800204cc:	e3a02000 	mov	r2, #0
800204d0:	e5c32000 	strb	r2, [r3]
800204d4:	e51b3008 	ldr	r3, [fp, #-8]
800204d8:	e1a00003 	mov	r0, r3
800204dc:	e24bd000 	sub	sp, fp, #0
800204e0:	e49db004 	pop	{fp}		; (ldr fp, [sp], #4)
800204e4:	e12fff1e 	bx	lr

800204e8 <strlen>:
800204e8:	e52db004 	push	{fp}		; (str fp, [sp, #-4]!)
800204ec:	e28db000 	add	fp, sp, #0
800204f0:	e24dd014 	sub	sp, sp, #20
800204f4:	e50b0010 	str	r0, [fp, #-16]
800204f8:	e3a03000 	mov	r3, #0
800204fc:	e50b3008 	str	r3, [fp, #-8]
80020500:	ea000002 	b	80020510 <strlen+0x28>
80020504:	e51b3008 	ldr	r3, [fp, #-8]
80020508:	e2833001 	add	r3, r3, #1
8002050c:	e50b3008 	str	r3, [fp, #-8]
80020510:	e51b3008 	ldr	r3, [fp, #-8]
80020514:	e51b2010 	ldr	r2, [fp, #-16]
80020518:	e0823003 	add	r3, r2, r3
8002051c:	e5d33000 	ldrb	r3, [r3]
80020520:	e3530000 	cmp	r3, #0
80020524:	1afffff6 	bne	80020504 <strlen+0x1c>
80020528:	e51b3008 	ldr	r3, [fp, #-8]
8002052c:	e1a00003 	mov	r0, r3
80020530:	e24bd000 	sub	sp, fp, #0
80020534:	e49db004 	pop	{fp}		; (ldr fp, [sp], #4)
80020538:	e12fff1e 	bx	lr

8002053c <cli>:
8002053c:	e52db004 	push	{fp}		; (str fp, [sp, #-4]!)
80020540:	e28db000 	add	fp, sp, #0
80020544:	e24dd00c 	sub	sp, sp, #12
80020548:	e10f3000 	mrs	r3, CPSR
8002054c:	e50b3008 	str	r3, [fp, #-8]
80020550:	e51b3008 	ldr	r3, [fp, #-8]
80020554:	e3833080 	orr	r3, r3, #128	; 0x80
80020558:	e50b3008 	str	r3, [fp, #-8]
8002055c:	e51b3008 	ldr	r3, [fp, #-8]
80020560:	e12ff003 	msr	CPSR_fsxc, r3
80020564:	e24bd000 	sub	sp, fp, #0
80020568:	e49db004 	pop	{fp}		; (ldr fp, [sp], #4)
8002056c:	e12fff1e 	bx	lr

80020570 <sti>:
80020570:	e52db004 	push	{fp}		; (str fp, [sp, #-4]!)
80020574:	e28db000 	add	fp, sp, #0
80020578:	e24dd00c 	sub	sp, sp, #12
8002057c:	e10f3000 	mrs	r3, CPSR
80020580:	e50b3008 	str	r3, [fp, #-8]
80020584:	e51b3008 	ldr	r3, [fp, #-8]
80020588:	e3c33080 	bic	r3, r3, #128	; 0x80
8002058c:	e50b3008 	str	r3, [fp, #-8]
80020590:	e51b3008 	ldr	r3, [fp, #-8]
80020594:	e12ff003 	msr	CPSR_fsxc, r3
80020598:	e24bd000 	sub	sp, fp, #0
8002059c:	e49db004 	pop	{fp}		; (ldr fp, [sp], #4)
800205a0:	e12fff1e 	bx	lr

800205a4 <spsr_usr>:
800205a4:	e52db004 	push	{fp}		; (str fp, [sp, #-4]!)
800205a8:	e28db000 	add	fp, sp, #0
800205ac:	e24dd00c 	sub	sp, sp, #12
800205b0:	e10f3000 	mrs	r3, CPSR
800205b4:	e50b3008 	str	r3, [fp, #-8]
800205b8:	e51b3008 	ldr	r3, [fp, #-8]
800205bc:	e3c3301f 	bic	r3, r3, #31
800205c0:	e50b3008 	str	r3, [fp, #-8]
800205c4:	e51b3008 	ldr	r3, [fp, #-8]
800205c8:	e3833010 	orr	r3, r3, #16
800205cc:	e50b3008 	str	r3, [fp, #-8]
800205d0:	e51b3008 	ldr	r3, [fp, #-8]
800205d4:	e1a00003 	mov	r0, r3
800205d8:	e24bd000 	sub	sp, fp, #0
800205dc:	e49db004 	pop	{fp}		; (ldr fp, [sp], #4)
800205e0:	e12fff1e 	bx	lr

800205e4 <int_enabled>:
800205e4:	e52db004 	push	{fp}		; (str fp, [sp, #-4]!)
800205e8:	e28db000 	add	fp, sp, #0
800205ec:	e24dd00c 	sub	sp, sp, #12
800205f0:	e10f3000 	mrs	r3, CPSR
800205f4:	e50b3008 	str	r3, [fp, #-8]
800205f8:	e51b3008 	ldr	r3, [fp, #-8]
800205fc:	e2033080 	and	r3, r3, #128	; 0x80
80020600:	e3530000 	cmp	r3, #0
80020604:	13a03000 	movne	r3, #0
80020608:	03a03001 	moveq	r3, #1
8002060c:	e6ef3073 	uxtb	r3, r3
80020610:	e1a00003 	mov	r0, r3
80020614:	e24bd000 	sub	sp, fp, #0
80020618:	e49db004 	pop	{fp}		; (ldr fp, [sp], #4)
8002061c:	e12fff1e 	bx	lr

80020620 <pushcli>:
80020620:	e92d4800 	push	{fp, lr}
80020624:	e28db004 	add	fp, sp, #4
80020628:	e24dd008 	sub	sp, sp, #8
8002062c:	ebffffec 	bl	800205e4 <int_enabled>
80020630:	e50b0008 	str	r0, [fp, #-8]
80020634:	ebffffc0 	bl	8002053c <cli>
80020638:	e30d3518 	movw	r3, #54552	; 0xd518
8002063c:	e348300a 	movt	r3, #32778	; 0x800a
80020640:	e5932000 	ldr	r2, [r3]
80020644:	e592300c 	ldr	r3, [r2, #12]
80020648:	e2831001 	add	r1, r3, #1
8002064c:	e582100c 	str	r1, [r2, #12]
80020650:	e3530000 	cmp	r3, #0
80020654:	1a000004 	bne	8002066c <pushcli+0x4c>
80020658:	e30d3518 	movw	r3, #54552	; 0xd518
8002065c:	e348300a 	movt	r3, #32778	; 0x800a
80020660:	e5933000 	ldr	r3, [r3]
80020664:	e51b2008 	ldr	r2, [fp, #-8]
80020668:	e5832010 	str	r2, [r3, #16]
8002066c:	e24bd004 	sub	sp, fp, #4
80020670:	e8bd8800 	pop	{fp, pc}

80020674 <popcli>:
80020674:	e92d4800 	push	{fp, lr}
80020678:	e28db004 	add	fp, sp, #4
8002067c:	ebffffd8 	bl	800205e4 <int_enabled>
80020680:	e1a03000 	mov	r3, r0
80020684:	e3530000 	cmp	r3, #0
80020688:	0a000002 	beq	80020698 <popcli+0x24>
8002068c:	e3090310 	movw	r0, #37648	; 0x9310
80020690:	e3480002 	movt	r0, #32770	; 0x8002
80020694:	eb000536 	bl	80021b74 <panic>
80020698:	e30d3518 	movw	r3, #54552	; 0xd518
8002069c:	e348300a 	movt	r3, #32778	; 0x800a
800206a0:	e5933000 	ldr	r3, [r3]
800206a4:	e593200c 	ldr	r2, [r3, #12]
800206a8:	e2422001 	sub	r2, r2, #1
800206ac:	e583200c 	str	r2, [r3, #12]
800206b0:	e593300c 	ldr	r3, [r3, #12]
800206b4:	e3530000 	cmp	r3, #0
800206b8:	aa00000e 	bge	800206f8 <popcli+0x84>
800206bc:	e30d3518 	movw	r3, #54552	; 0xd518
800206c0:	e348300a 	movt	r3, #32778	; 0x800a
800206c4:	e5932000 	ldr	r2, [r3]
800206c8:	e30d3518 	movw	r3, #54552	; 0xd518
800206cc:	e348300a 	movt	r3, #32778	; 0x800a
800206d0:	e5933000 	ldr	r3, [r3]
800206d4:	e593300c 	ldr	r3, [r3, #12]
800206d8:	e3090328 	movw	r0, #37672	; 0x9328
800206dc:	e3480002 	movt	r0, #32770	; 0x8002
800206e0:	e1a01002 	mov	r1, r2
800206e4:	e1a02003 	mov	r2, r3
800206e8:	eb00049f 	bl	8002196c <cprintf>
800206ec:	e309033c 	movw	r0, #37692	; 0x933c
800206f0:	e3480002 	movt	r0, #32770	; 0x8002
800206f4:	eb00051e 	bl	80021b74 <panic>
800206f8:	e30d3518 	movw	r3, #54552	; 0xd518
800206fc:	e348300a 	movt	r3, #32778	; 0x800a
80020700:	e5933000 	ldr	r3, [r3]
80020704:	e593300c 	ldr	r3, [r3, #12]
80020708:	e3530000 	cmp	r3, #0
8002070c:	1a000006 	bne	8002072c <popcli+0xb8>
80020710:	e30d3518 	movw	r3, #54552	; 0xd518
80020714:	e348300a 	movt	r3, #32778	; 0x800a
80020718:	e5933000 	ldr	r3, [r3]
8002071c:	e5933010 	ldr	r3, [r3, #16]
80020720:	e3530000 	cmp	r3, #0
80020724:	0a000000 	beq	8002072c <popcli+0xb8>
80020728:	ebffff90 	bl	80020570 <sti>
8002072c:	e8bd8800 	pop	{fp, pc}

80020730 <getcallerpcs>:
80020730:	e52db004 	push	{fp}		; (str fp, [sp, #-4]!)
80020734:	e28db000 	add	fp, sp, #0
80020738:	e24dd014 	sub	sp, sp, #20
8002073c:	e50b0010 	str	r0, [fp, #-16]
80020740:	e50b1014 	str	r1, [fp, #-20]	; 0xffffffec
80020744:	e51b3010 	ldr	r3, [fp, #-16]
80020748:	e50b3008 	str	r3, [fp, #-8]
8002074c:	e3a03000 	mov	r3, #0
80020750:	e50b300c 	str	r3, [fp, #-12]
80020754:	ea000018 	b	800207bc <getcallerpcs+0x8c>
80020758:	e51b3008 	ldr	r3, [fp, #-8]
8002075c:	e3530000 	cmp	r3, #0
80020760:	0a000018 	beq	800207c8 <getcallerpcs+0x98>
80020764:	e51b3008 	ldr	r3, [fp, #-8]
80020768:	e3730106 	cmn	r3, #-2147483647	; 0x80000001
8002076c:	9a000015 	bls	800207c8 <getcallerpcs+0x98>
80020770:	e51b3008 	ldr	r3, [fp, #-8]
80020774:	e3730001 	cmn	r3, #1
80020778:	0a000012 	beq	800207c8 <getcallerpcs+0x98>
8002077c:	e51b3008 	ldr	r3, [fp, #-8]
80020780:	e2433004 	sub	r3, r3, #4
80020784:	e50b3008 	str	r3, [fp, #-8]
80020788:	e51b300c 	ldr	r3, [fp, #-12]
8002078c:	e1a03103 	lsl	r3, r3, #2
80020790:	e51b2014 	ldr	r2, [fp, #-20]	; 0xffffffec
80020794:	e0823003 	add	r3, r2, r3
80020798:	e51b2008 	ldr	r2, [fp, #-8]
8002079c:	e5922004 	ldr	r2, [r2, #4]
800207a0:	e5832000 	str	r2, [r3]
800207a4:	e51b3008 	ldr	r3, [fp, #-8]
800207a8:	e5933000 	ldr	r3, [r3]
800207ac:	e50b3008 	str	r3, [fp, #-8]
800207b0:	e51b300c 	ldr	r3, [fp, #-12]
800207b4:	e2833001 	add	r3, r3, #1
800207b8:	e50b300c 	str	r3, [fp, #-12]
800207bc:	e51b300c 	ldr	r3, [fp, #-12]
800207c0:	e353000e 	cmp	r3, #14
800207c4:	daffffe3 	ble	80020758 <getcallerpcs+0x28>
800207c8:	ea000008 	b	800207f0 <getcallerpcs+0xc0>
800207cc:	e51b300c 	ldr	r3, [fp, #-12]
800207d0:	e1a03103 	lsl	r3, r3, #2
800207d4:	e51b2014 	ldr	r2, [fp, #-20]	; 0xffffffec
800207d8:	e0823003 	add	r3, r2, r3
800207dc:	e3a02000 	mov	r2, #0
800207e0:	e5832000 	str	r2, [r3]
800207e4:	e51b300c 	ldr	r3, [fp, #-12]
800207e8:	e2833001 	add	r3, r3, #1
800207ec:	e50b300c 	str	r3, [fp, #-12]
800207f0:	e51b300c 	ldr	r3, [fp, #-12]
800207f4:	e353000e 	cmp	r3, #14
800207f8:	dafffff3 	ble	800207cc <getcallerpcs+0x9c>
800207fc:	e24bd000 	sub	sp, fp, #0
80020800:	e49db004 	pop	{fp}		; (ldr fp, [sp], #4)
80020804:	e12fff1e 	bx	lr

80020808 <show_callstk>:
80020808:	e92d4800 	push	{fp, lr}
8002080c:	e28db004 	add	fp, sp, #4
80020810:	e24dd048 	sub	sp, sp, #72	; 0x48
80020814:	e50b0048 	str	r0, [fp, #-72]	; 0xffffffb8
80020818:	e3090350 	movw	r0, #37712	; 0x9350
8002081c:	e3480002 	movt	r0, #32770	; 0x8002
80020820:	e51b1048 	ldr	r1, [fp, #-72]	; 0xffffffb8
80020824:	eb000450 	bl	8002196c <cprintf>
80020828:	eb000026 	bl	800208c8 <get_fp>
8002082c:	e1a02000 	mov	r2, r0
80020830:	e24b3044 	sub	r3, fp, #68	; 0x44
80020834:	e1a00002 	mov	r0, r2
80020838:	e1a01003 	mov	r1, r3
8002083c:	ebffffbb 	bl	80020730 <getcallerpcs>
80020840:	e3a0300e 	mov	r3, #14
80020844:	e50b3008 	str	r3, [fp, #-8]
80020848:	ea000010 	b	80020890 <show_callstk+0x88>
8002084c:	e51b3008 	ldr	r3, [fp, #-8]
80020850:	e2832001 	add	r2, r3, #1
80020854:	e51b1008 	ldr	r1, [fp, #-8]
80020858:	e3e0303f 	mvn	r3, #63	; 0x3f
8002085c:	e1a01101 	lsl	r1, r1, #2
80020860:	e24b0004 	sub	r0, fp, #4
80020864:	e0801001 	add	r1, r0, r1
80020868:	e0813003 	add	r3, r1, r3
8002086c:	e5933000 	ldr	r3, [r3]
80020870:	e3090354 	movw	r0, #37716	; 0x9354
80020874:	e3480002 	movt	r0, #32770	; 0x8002
80020878:	e1a01002 	mov	r1, r2
8002087c:	e1a02003 	mov	r2, r3
80020880:	eb000439 	bl	8002196c <cprintf>
80020884:	e51b3008 	ldr	r3, [fp, #-8]
80020888:	e2433001 	sub	r3, r3, #1
8002088c:	e50b3008 	str	r3, [fp, #-8]
80020890:	e51b3008 	ldr	r3, [fp, #-8]
80020894:	e3530000 	cmp	r3, #0
80020898:	aaffffeb 	bge	8002084c <show_callstk+0x44>
8002089c:	e24bd004 	sub	sp, fp, #4
800208a0:	e8bd8800 	pop	{fp, pc}

800208a4 <set_stk>:
800208a4:	e10f2000 	mrs	r2, CPSR
800208a8:	e3c2201f 	bic	r2, r2, #31
800208ac:	e1822000 	orr	r2, r2, r0
800208b0:	e12ff002 	msr	CPSR_fsxc, r2
800208b4:	e1a0d001 	mov	sp, r1
800208b8:	e3c2201f 	bic	r2, r2, #31
800208bc:	e3822013 	orr	r2, r2, #19
800208c0:	e12ff002 	msr	CPSR_fsxc, r2
800208c4:	e12fff1e 	bx	lr

800208c8 <get_fp>:
800208c8:	e1a0000b 	mov	r0, fp
800208cc:	e12fff1e 	bx	lr

800208d0 <binit>:
800208d0:	e92d4800 	push	{fp, lr}
800208d4:	e28db004 	add	fp, sp, #4
800208d8:	e24dd008 	sub	sp, sp, #8
800208dc:	e30a00c0 	movw	r0, #41152	; 0xa0c0
800208e0:	e348000a 	movt	r0, #32778	; 0x800a
800208e4:	e3091360 	movw	r1, #37728	; 0x9360
800208e8:	e3481002 	movt	r1, #32770	; 0x8002
800208ec:	eb0015aa 	bl	80025f9c <initlock>
800208f0:	e30a30c0 	movw	r3, #41152	; 0xa0c0
800208f4:	e348300a 	movt	r3, #32778	; 0x800a
800208f8:	e3012530 	movw	r2, #5424	; 0x1530
800208fc:	e59f10a0 	ldr	r1, [pc, #160]	; 800209a4 <binit+0xd4>
80020900:	e7831002 	str	r1, [r3, r2]
80020904:	e30a30c0 	movw	r3, #41152	; 0xa0c0
80020908:	e348300a 	movt	r3, #32778	; 0x800a
8002090c:	e3012534 	movw	r2, #5428	; 0x1534
80020910:	e59f108c 	ldr	r1, [pc, #140]	; 800209a4 <binit+0xd4>
80020914:	e7831002 	str	r1, [r3, r2]
80020918:	e59f3088 	ldr	r3, [pc, #136]	; 800209a8 <binit+0xd8>
8002091c:	e50b3008 	str	r3, [fp, #-8]
80020920:	ea000019 	b	8002098c <binit+0xbc>
80020924:	e30a30c0 	movw	r3, #41152	; 0xa0c0
80020928:	e348300a 	movt	r3, #32778	; 0x800a
8002092c:	e3012534 	movw	r2, #5428	; 0x1534
80020930:	e7932002 	ldr	r2, [r3, r2]
80020934:	e51b3008 	ldr	r3, [fp, #-8]
80020938:	e5832010 	str	r2, [r3, #16]
8002093c:	e51b3008 	ldr	r3, [fp, #-8]
80020940:	e59f205c 	ldr	r2, [pc, #92]	; 800209a4 <binit+0xd4>
80020944:	e583200c 	str	r2, [r3, #12]
80020948:	e51b3008 	ldr	r3, [fp, #-8]
8002094c:	e3e02000 	mvn	r2, #0
80020950:	e5832004 	str	r2, [r3, #4]
80020954:	e30a30c0 	movw	r3, #41152	; 0xa0c0
80020958:	e348300a 	movt	r3, #32778	; 0x800a
8002095c:	e3012534 	movw	r2, #5428	; 0x1534
80020960:	e7933002 	ldr	r3, [r3, r2]
80020964:	e51b2008 	ldr	r2, [fp, #-8]
80020968:	e583200c 	str	r2, [r3, #12]
8002096c:	e30a30c0 	movw	r3, #41152	; 0xa0c0
80020970:	e348300a 	movt	r3, #32778	; 0x800a
80020974:	e3012534 	movw	r2, #5428	; 0x1534
80020978:	e51b1008 	ldr	r1, [fp, #-8]
8002097c:	e7831002 	str	r1, [r3, r2]
80020980:	e51b3008 	ldr	r3, [fp, #-8]
80020984:	e2833f86 	add	r3, r3, #536	; 0x218
80020988:	e50b3008 	str	r3, [fp, #-8]
8002098c:	e51b2008 	ldr	r2, [fp, #-8]
80020990:	e59f300c 	ldr	r3, [pc, #12]	; 800209a4 <binit+0xd4>
80020994:	e1520003 	cmp	r2, r3
80020998:	3affffe1 	bcc	80020924 <binit+0x54>
8002099c:	e24bd004 	sub	sp, fp, #4
800209a0:	e8bd8800 	pop	{fp, pc}
800209a4:	800ab5e4 	.word	0x800ab5e4
800209a8:	800aa0f4 	.word	0x800aa0f4

800209ac <bget>:
800209ac:	e92d4800 	push	{fp, lr}
800209b0:	e28db004 	add	fp, sp, #4
800209b4:	e24dd010 	sub	sp, sp, #16
800209b8:	e50b0010 	str	r0, [fp, #-16]
800209bc:	e50b1014 	str	r1, [fp, #-20]	; 0xffffffec
800209c0:	e30a00c0 	movw	r0, #41152	; 0xa0c0
800209c4:	e348000a 	movt	r0, #32778	; 0x800a
800209c8:	eb001584 	bl	80025fe0 <acquire>
800209cc:	e30a30c0 	movw	r3, #41152	; 0xa0c0
800209d0:	e348300a 	movt	r3, #32778	; 0x800a
800209d4:	e3012534 	movw	r2, #5428	; 0x1534
800209d8:	e7933002 	ldr	r3, [r3, r2]
800209dc:	e50b3008 	str	r3, [fp, #-8]
800209e0:	ea000020 	b	80020a68 <bget+0xbc>
800209e4:	e51b3008 	ldr	r3, [fp, #-8]
800209e8:	e5932004 	ldr	r2, [r3, #4]
800209ec:	e51b3010 	ldr	r3, [fp, #-16]
800209f0:	e1520003 	cmp	r2, r3
800209f4:	1a000018 	bne	80020a5c <bget+0xb0>
800209f8:	e51b3008 	ldr	r3, [fp, #-8]
800209fc:	e5932008 	ldr	r2, [r3, #8]
80020a00:	e51b3014 	ldr	r3, [fp, #-20]	; 0xffffffec
80020a04:	e1520003 	cmp	r2, r3
80020a08:	1a000013 	bne	80020a5c <bget+0xb0>
80020a0c:	e51b3008 	ldr	r3, [fp, #-8]
80020a10:	e5933000 	ldr	r3, [r3]
80020a14:	e2033001 	and	r3, r3, #1
80020a18:	e3530000 	cmp	r3, #0
80020a1c:	1a000009 	bne	80020a48 <bget+0x9c>
80020a20:	e51b3008 	ldr	r3, [fp, #-8]
80020a24:	e5933000 	ldr	r3, [r3]
80020a28:	e3832001 	orr	r2, r3, #1
80020a2c:	e51b3008 	ldr	r3, [fp, #-8]
80020a30:	e5832000 	str	r2, [r3]
80020a34:	e30a00c0 	movw	r0, #41152	; 0xa0c0
80020a38:	e348000a 	movt	r0, #32778	; 0x800a
80020a3c:	eb001571 	bl	80026008 <release>
80020a40:	e51b3008 	ldr	r3, [fp, #-8]
80020a44:	ea000033 	b	80020b18 <bget+0x16c>
80020a48:	e51b0008 	ldr	r0, [fp, #-8]
80020a4c:	e30a10c0 	movw	r1, #41152	; 0xa0c0
80020a50:	e348100a 	movt	r1, #32778	; 0x800a
80020a54:	eb001476 	bl	80025c34 <sleep>
80020a58:	eaffffdb 	b	800209cc <bget+0x20>
80020a5c:	e51b3008 	ldr	r3, [fp, #-8]
80020a60:	e5933010 	ldr	r3, [r3, #16]
80020a64:	e50b3008 	str	r3, [fp, #-8]
80020a68:	e51b2008 	ldr	r2, [fp, #-8]
80020a6c:	e59f30b0 	ldr	r3, [pc, #176]	; 80020b24 <bget+0x178>
80020a70:	e1520003 	cmp	r2, r3
80020a74:	1affffda 	bne	800209e4 <bget+0x38>
80020a78:	e30a30c0 	movw	r3, #41152	; 0xa0c0
80020a7c:	e348300a 	movt	r3, #32778	; 0x800a
80020a80:	e3012530 	movw	r2, #5424	; 0x1530
80020a84:	e7933002 	ldr	r3, [r3, r2]
80020a88:	e50b3008 	str	r3, [fp, #-8]
80020a8c:	ea00001a 	b	80020afc <bget+0x150>
80020a90:	e51b3008 	ldr	r3, [fp, #-8]
80020a94:	e5933000 	ldr	r3, [r3]
80020a98:	e2033001 	and	r3, r3, #1
80020a9c:	e3530000 	cmp	r3, #0
80020aa0:	1a000012 	bne	80020af0 <bget+0x144>
80020aa4:	e51b3008 	ldr	r3, [fp, #-8]
80020aa8:	e5933000 	ldr	r3, [r3]
80020aac:	e2033004 	and	r3, r3, #4
80020ab0:	e3530000 	cmp	r3, #0
80020ab4:	1a00000d 	bne	80020af0 <bget+0x144>
80020ab8:	e51b3008 	ldr	r3, [fp, #-8]
80020abc:	e51b2010 	ldr	r2, [fp, #-16]
80020ac0:	e5832004 	str	r2, [r3, #4]
80020ac4:	e51b3008 	ldr	r3, [fp, #-8]
80020ac8:	e51b2014 	ldr	r2, [fp, #-20]	; 0xffffffec
80020acc:	e5832008 	str	r2, [r3, #8]
80020ad0:	e51b3008 	ldr	r3, [fp, #-8]
80020ad4:	e3a02001 	mov	r2, #1
80020ad8:	e5832000 	str	r2, [r3]
80020adc:	e30a00c0 	movw	r0, #41152	; 0xa0c0
80020ae0:	e348000a 	movt	r0, #32778	; 0x800a
80020ae4:	eb001547 	bl	80026008 <release>
80020ae8:	e51b3008 	ldr	r3, [fp, #-8]
80020aec:	ea000009 	b	80020b18 <bget+0x16c>
80020af0:	e51b3008 	ldr	r3, [fp, #-8]
80020af4:	e593300c 	ldr	r3, [r3, #12]
80020af8:	e50b3008 	str	r3, [fp, #-8]
80020afc:	e51b2008 	ldr	r2, [fp, #-8]
80020b00:	e59f301c 	ldr	r3, [pc, #28]	; 80020b24 <bget+0x178>
80020b04:	e1520003 	cmp	r2, r3
80020b08:	1affffe0 	bne	80020a90 <bget+0xe4>
80020b0c:	e3090368 	movw	r0, #37736	; 0x9368
80020b10:	e3480002 	movt	r0, #32770	; 0x8002
80020b14:	eb000416 	bl	80021b74 <panic>
80020b18:	e1a00003 	mov	r0, r3
80020b1c:	e24bd004 	sub	sp, fp, #4
80020b20:	e8bd8800 	pop	{fp, pc}
80020b24:	800ab5e4 	.word	0x800ab5e4

80020b28 <bread>:
80020b28:	e92d4800 	push	{fp, lr}
80020b2c:	e28db004 	add	fp, sp, #4
80020b30:	e24dd010 	sub	sp, sp, #16
80020b34:	e50b0010 	str	r0, [fp, #-16]
80020b38:	e50b1014 	str	r1, [fp, #-20]	; 0xffffffec
80020b3c:	e51b0010 	ldr	r0, [fp, #-16]
80020b40:	e51b1014 	ldr	r1, [fp, #-20]	; 0xffffffec
80020b44:	ebffff98 	bl	800209ac <bget>
80020b48:	e50b0008 	str	r0, [fp, #-8]
80020b4c:	e51b3008 	ldr	r3, [fp, #-8]
80020b50:	e5933000 	ldr	r3, [r3]
80020b54:	e2033002 	and	r3, r3, #2
80020b58:	e3530000 	cmp	r3, #0
80020b5c:	1a000001 	bne	80020b68 <bread+0x40>
80020b60:	e51b0008 	ldr	r0, [fp, #-8]
80020b64:	eb000fca 	bl	80024a94 <iderw>
80020b68:	e51b3008 	ldr	r3, [fp, #-8]
80020b6c:	e1a00003 	mov	r0, r3
80020b70:	e24bd004 	sub	sp, fp, #4
80020b74:	e8bd8800 	pop	{fp, pc}

80020b78 <bwrite>:
80020b78:	e92d4800 	push	{fp, lr}
80020b7c:	e28db004 	add	fp, sp, #4
80020b80:	e24dd008 	sub	sp, sp, #8
80020b84:	e50b0008 	str	r0, [fp, #-8]
80020b88:	e51b3008 	ldr	r3, [fp, #-8]
80020b8c:	e5933000 	ldr	r3, [r3]
80020b90:	e2033001 	and	r3, r3, #1
80020b94:	e3530000 	cmp	r3, #0
80020b98:	1a000002 	bne	80020ba8 <bwrite+0x30>
80020b9c:	e309037c 	movw	r0, #37756	; 0x937c
80020ba0:	e3480002 	movt	r0, #32770	; 0x8002
80020ba4:	eb0003f2 	bl	80021b74 <panic>
80020ba8:	e51b3008 	ldr	r3, [fp, #-8]
80020bac:	e5933000 	ldr	r3, [r3]
80020bb0:	e3832004 	orr	r2, r3, #4
80020bb4:	e51b3008 	ldr	r3, [fp, #-8]
80020bb8:	e5832000 	str	r2, [r3]
80020bbc:	e51b0008 	ldr	r0, [fp, #-8]
80020bc0:	eb000fb3 	bl	80024a94 <iderw>
80020bc4:	e24bd004 	sub	sp, fp, #4
80020bc8:	e8bd8800 	pop	{fp, pc}

80020bcc <brelse>:
80020bcc:	e92d4800 	push	{fp, lr}
80020bd0:	e28db004 	add	fp, sp, #4
80020bd4:	e24dd008 	sub	sp, sp, #8
80020bd8:	e50b0008 	str	r0, [fp, #-8]
80020bdc:	e51b3008 	ldr	r3, [fp, #-8]
80020be0:	e5933000 	ldr	r3, [r3]
80020be4:	e2033001 	and	r3, r3, #1
80020be8:	e3530000 	cmp	r3, #0
80020bec:	1a000002 	bne	80020bfc <brelse+0x30>
80020bf0:	e3090384 	movw	r0, #37764	; 0x9384
80020bf4:	e3480002 	movt	r0, #32770	; 0x8002
80020bf8:	eb0003dd 	bl	80021b74 <panic>
80020bfc:	e30a00c0 	movw	r0, #41152	; 0xa0c0
80020c00:	e348000a 	movt	r0, #32778	; 0x800a
80020c04:	eb0014f5 	bl	80025fe0 <acquire>
80020c08:	e51b3008 	ldr	r3, [fp, #-8]
80020c0c:	e5933010 	ldr	r3, [r3, #16]
80020c10:	e51b2008 	ldr	r2, [fp, #-8]
80020c14:	e592200c 	ldr	r2, [r2, #12]
80020c18:	e583200c 	str	r2, [r3, #12]
80020c1c:	e51b3008 	ldr	r3, [fp, #-8]
80020c20:	e593300c 	ldr	r3, [r3, #12]
80020c24:	e51b2008 	ldr	r2, [fp, #-8]
80020c28:	e5922010 	ldr	r2, [r2, #16]
80020c2c:	e5832010 	str	r2, [r3, #16]
80020c30:	e30a30c0 	movw	r3, #41152	; 0xa0c0
80020c34:	e348300a 	movt	r3, #32778	; 0x800a
80020c38:	e3012534 	movw	r2, #5428	; 0x1534
80020c3c:	e7932002 	ldr	r2, [r3, r2]
80020c40:	e51b3008 	ldr	r3, [fp, #-8]
80020c44:	e5832010 	str	r2, [r3, #16]
80020c48:	e51b3008 	ldr	r3, [fp, #-8]
80020c4c:	e59f205c 	ldr	r2, [pc, #92]	; 80020cb0 <brelse+0xe4>
80020c50:	e583200c 	str	r2, [r3, #12]
80020c54:	e30a30c0 	movw	r3, #41152	; 0xa0c0
80020c58:	e348300a 	movt	r3, #32778	; 0x800a
80020c5c:	e3012534 	movw	r2, #5428	; 0x1534
80020c60:	e7933002 	ldr	r3, [r3, r2]
80020c64:	e51b2008 	ldr	r2, [fp, #-8]
80020c68:	e583200c 	str	r2, [r3, #12]
80020c6c:	e30a30c0 	movw	r3, #41152	; 0xa0c0
80020c70:	e348300a 	movt	r3, #32778	; 0x800a
80020c74:	e3012534 	movw	r2, #5428	; 0x1534
80020c78:	e51b1008 	ldr	r1, [fp, #-8]
80020c7c:	e7831002 	str	r1, [r3, r2]
80020c80:	e51b3008 	ldr	r3, [fp, #-8]
80020c84:	e5933000 	ldr	r3, [r3]
80020c88:	e3c32001 	bic	r2, r3, #1
80020c8c:	e51b3008 	ldr	r3, [fp, #-8]
80020c90:	e5832000 	str	r2, [r3]
80020c94:	e51b0008 	ldr	r0, [fp, #-8]
80020c98:	eb00143d 	bl	80025d94 <wakeup>
80020c9c:	e30a00c0 	movw	r0, #41152	; 0xa0c0
80020ca0:	e348000a 	movt	r0, #32778	; 0x800a
80020ca4:	eb0014d7 	bl	80026008 <release>
80020ca8:	e24bd004 	sub	sp, fp, #4
80020cac:	e8bd8800 	pop	{fp, pc}
80020cb0:	800ab5e4 	.word	0x800ab5e4

80020cb4 <get_mark>:
80020cb4:	e52db004 	push	{fp}		; (str fp, [sp, #-4]!)
80020cb8:	e28db000 	add	fp, sp, #0
80020cbc:	e24dd00c 	sub	sp, sp, #12
80020cc0:	e50b0008 	str	r0, [fp, #-8]
80020cc4:	e50b100c 	str	r1, [fp, #-12]
80020cc8:	e51b3008 	ldr	r3, [fp, #-8]
80020ccc:	e2432006 	sub	r2, r3, #6
80020cd0:	e30b37fc 	movw	r3, #47100	; 0xb7fc
80020cd4:	e348300a 	movt	r3, #32778	; 0x800a
80020cd8:	e2821008 	add	r1, r2, #8
80020cdc:	e3a02004 	mov	r2, #4
80020ce0:	e1a01181 	lsl	r1, r1, #3
80020ce4:	e0833001 	add	r3, r3, r1
80020ce8:	e0833002 	add	r3, r3, r2
80020cec:	e5932000 	ldr	r2, [r3]
80020cf0:	e51b300c 	ldr	r3, [fp, #-12]
80020cf4:	e0823003 	add	r3, r2, r3
80020cf8:	e1a02183 	lsl	r2, r3, #3
80020cfc:	e30b37fc 	movw	r3, #47100	; 0xb7fc
80020d00:	e348300a 	movt	r3, #32778	; 0x800a
80020d04:	e5933034 	ldr	r3, [r3, #52]	; 0x34
80020d08:	e0823003 	add	r3, r2, r3
80020d0c:	e1a00003 	mov	r0, r3
80020d10:	e24bd000 	sub	sp, fp, #0
80020d14:	e49db004 	pop	{fp}		; (ldr fp, [sp], #4)
80020d18:	e12fff1e 	bx	lr

80020d1c <blkid2mem>:
80020d1c:	e52db004 	push	{fp}		; (str fp, [sp, #-4]!)
80020d20:	e28db000 	add	fp, sp, #0
80020d24:	e24dd00c 	sub	sp, sp, #12
80020d28:	e50b0008 	str	r0, [fp, #-8]
80020d2c:	e50b100c 	str	r1, [fp, #-12]
80020d30:	e30b37fc 	movw	r3, #47100	; 0xb7fc
80020d34:	e348300a 	movt	r3, #32778	; 0x800a
80020d38:	e5932038 	ldr	r2, [r3, #56]	; 0x38
80020d3c:	e51b100c 	ldr	r1, [fp, #-12]
80020d40:	e51b3008 	ldr	r3, [fp, #-8]
80020d44:	e1a03311 	lsl	r3, r1, r3
80020d48:	e0823003 	add	r3, r2, r3
80020d4c:	e1a00003 	mov	r0, r3
80020d50:	e24bd000 	sub	sp, fp, #0
80020d54:	e49db004 	pop	{fp}		; (ldr fp, [sp], #4)
80020d58:	e12fff1e 	bx	lr

80020d5c <mem2blkid>:
80020d5c:	e52db004 	push	{fp}		; (str fp, [sp, #-4]!)
80020d60:	e28db000 	add	fp, sp, #0
80020d64:	e24dd00c 	sub	sp, sp, #12
80020d68:	e50b0008 	str	r0, [fp, #-8]
80020d6c:	e50b100c 	str	r1, [fp, #-12]
80020d70:	e51b200c 	ldr	r2, [fp, #-12]
80020d74:	e30b37fc 	movw	r3, #47100	; 0xb7fc
80020d78:	e348300a 	movt	r3, #32778	; 0x800a
80020d7c:	e5933038 	ldr	r3, [r3, #56]	; 0x38
80020d80:	e0632002 	rsb	r2, r3, r2
80020d84:	e51b3008 	ldr	r3, [fp, #-8]
80020d88:	e1a03332 	lsr	r3, r2, r3
80020d8c:	e1a00003 	mov	r0, r3
80020d90:	e24bd000 	sub	sp, fp, #0
80020d94:	e49db004 	pop	{fp}		; (ldr fp, [sp], #4)
80020d98:	e12fff1e 	bx	lr

80020d9c <available>:
80020d9c:	e52db004 	push	{fp}		; (str fp, [sp, #-4]!)
80020da0:	e28db000 	add	fp, sp, #0
80020da4:	e24dd00c 	sub	sp, sp, #12
80020da8:	e50b0008 	str	r0, [fp, #-8]
80020dac:	e50b100c 	str	r1, [fp, #-12]
80020db0:	e51b300c 	ldr	r3, [fp, #-12]
80020db4:	e203301f 	and	r3, r3, #31
80020db8:	e3a02001 	mov	r2, #1
80020dbc:	e1a03312 	lsl	r3, r2, r3
80020dc0:	e1a02003 	mov	r2, r3
80020dc4:	e51b3008 	ldr	r3, [fp, #-8]
80020dc8:	e0023003 	and	r3, r2, r3
80020dcc:	e1a00003 	mov	r0, r3
80020dd0:	e24bd000 	sub	sp, fp, #0
80020dd4:	e49db004 	pop	{fp}		; (ldr fp, [sp], #4)
80020dd8:	e12fff1e 	bx	lr

80020ddc <kmem_init>:
80020ddc:	e92d4800 	push	{fp, lr}
80020de0:	e28db004 	add	fp, sp, #4
80020de4:	e30b07fc 	movw	r0, #47100	; 0xb7fc
80020de8:	e348000a 	movt	r0, #32778	; 0x800a
80020dec:	e309138c 	movw	r1, #37772	; 0x938c
80020df0:	e3481002 	movt	r1, #32770	; 0x8002
80020df4:	eb001468 	bl	80025f9c <initlock>
80020df8:	e8bd8800 	pop	{fp, pc}

80020dfc <kmem_init2>:
80020dfc:	e92d4800 	push	{fp, lr}
80020e00:	e28db004 	add	fp, sp, #4
80020e04:	e24dd028 	sub	sp, sp, #40	; 0x28
80020e08:	e50b0028 	str	r0, [fp, #-40]	; 0xffffffd8
80020e0c:	e50b102c 	str	r1, [fp, #-44]	; 0xffffffd4
80020e10:	e51b2028 	ldr	r2, [fp, #-40]	; 0xffffffd8
80020e14:	e30b37fc 	movw	r3, #47100	; 0xb7fc
80020e18:	e348300a 	movt	r3, #32778	; 0x800a
80020e1c:	e5832034 	str	r2, [r3, #52]	; 0x34
80020e20:	e51b202c 	ldr	r2, [fp, #-44]	; 0xffffffd4
80020e24:	e30b37fc 	movw	r3, #47100	; 0xb7fc
80020e28:	e348300a 	movt	r3, #32778	; 0x800a
80020e2c:	e583203c 	str	r2, [r3, #60]	; 0x3c
80020e30:	e30b37fc 	movw	r3, #47100	; 0xb7fc
80020e34:	e348300a 	movt	r3, #32778	; 0x800a
80020e38:	e593203c 	ldr	r2, [r3, #60]	; 0x3c
80020e3c:	e30b37fc 	movw	r3, #47100	; 0xb7fc
80020e40:	e348300a 	movt	r3, #32778	; 0x800a
80020e44:	e5933034 	ldr	r3, [r3, #52]	; 0x34
80020e48:	e0633002 	rsb	r3, r3, r2
80020e4c:	e50b3018 	str	r3, [fp, #-24]	; 0xffffffe8
80020e50:	e51b3018 	ldr	r3, [fp, #-24]	; 0xffffffe8
80020e54:	e1a038a3 	lsr	r3, r3, #17
80020e58:	e2833001 	add	r3, r3, #1
80020e5c:	e50b3014 	str	r3, [fp, #-20]	; 0xffffffec
80020e60:	e3a03000 	mov	r3, #0
80020e64:	e50b3010 	str	r3, [fp, #-16]
80020e68:	e3a03006 	mov	r3, #6
80020e6c:	e50b3008 	str	r3, [fp, #-8]
80020e70:	ea00002c 	b	80020f28 <kmem_init2+0x12c>
80020e74:	e51b3008 	ldr	r3, [fp, #-8]
80020e78:	e2833008 	add	r3, r3, #8
80020e7c:	e1a02183 	lsl	r2, r3, #3
80020e80:	e30b37fc 	movw	r3, #47100	; 0xb7fc
80020e84:	e348300a 	movt	r3, #32778	; 0x800a
80020e88:	e0823003 	add	r3, r2, r3
80020e8c:	e50b301c 	str	r3, [fp, #-28]	; 0xffffffe4
80020e90:	e51b301c 	ldr	r3, [fp, #-28]	; 0xffffffe4
80020e94:	e51b2010 	ldr	r2, [fp, #-16]
80020e98:	e5832004 	str	r2, [r3, #4]
80020e9c:	e51b301c 	ldr	r3, [fp, #-28]	; 0xffffffe4
80020ea0:	e30f2fff 	movw	r2, #65535	; 0xffff
80020ea4:	e5832000 	str	r2, [r3]
80020ea8:	e3a03000 	mov	r3, #0
80020eac:	e50b300c 	str	r3, [fp, #-12]
80020eb0:	ea00000e 	b	80020ef0 <kmem_init2+0xf4>
80020eb4:	e51b3008 	ldr	r3, [fp, #-8]
80020eb8:	e2833006 	add	r3, r3, #6
80020ebc:	e1a00003 	mov	r0, r3
80020ec0:	e51b100c 	ldr	r1, [fp, #-12]
80020ec4:	ebffff7a 	bl	80020cb4 <get_mark>
80020ec8:	e50b0020 	str	r0, [fp, #-32]	; 0xffffffe0
80020ecc:	e51b3020 	ldr	r3, [fp, #-32]	; 0xffffffe0
80020ed0:	e3e02000 	mvn	r2, #0
80020ed4:	e5832000 	str	r2, [r3]
80020ed8:	e51b3020 	ldr	r3, [fp, #-32]	; 0xffffffe0
80020edc:	e3a02000 	mov	r2, #0
80020ee0:	e5832004 	str	r2, [r3, #4]
80020ee4:	e51b300c 	ldr	r3, [fp, #-12]
80020ee8:	e2833001 	add	r3, r3, #1
80020eec:	e50b300c 	str	r3, [fp, #-12]
80020ef0:	e51b200c 	ldr	r2, [fp, #-12]
80020ef4:	e51b3014 	ldr	r3, [fp, #-20]	; 0xffffffec
80020ef8:	e1520003 	cmp	r2, r3
80020efc:	3affffec 	bcc	80020eb4 <kmem_init2+0xb8>
80020f00:	e51b2010 	ldr	r2, [fp, #-16]
80020f04:	e51b3014 	ldr	r3, [fp, #-20]	; 0xffffffec
80020f08:	e0823003 	add	r3, r2, r3
80020f0c:	e50b3010 	str	r3, [fp, #-16]
80020f10:	e51b3014 	ldr	r3, [fp, #-20]	; 0xffffffec
80020f14:	e1a03083 	lsl	r3, r3, #1
80020f18:	e50b3014 	str	r3, [fp, #-20]	; 0xffffffec
80020f1c:	e51b3008 	ldr	r3, [fp, #-8]
80020f20:	e2433001 	sub	r3, r3, #1
80020f24:	e50b3008 	str	r3, [fp, #-8]
80020f28:	e51b3008 	ldr	r3, [fp, #-8]
80020f2c:	e3530000 	cmp	r3, #0
80020f30:	aaffffcf 	bge	80020e74 <kmem_init2+0x78>
80020f34:	e30b37fc 	movw	r3, #47100	; 0xb7fc
80020f38:	e348300a 	movt	r3, #32778	; 0x800a
80020f3c:	e5932034 	ldr	r2, [r3, #52]	; 0x34
80020f40:	e51b3010 	ldr	r3, [fp, #-16]
80020f44:	e1a03183 	lsl	r3, r3, #3
80020f48:	e0823003 	add	r3, r2, r3
80020f4c:	e2833eff 	add	r3, r3, #4080	; 0xff0
80020f50:	e283300f 	add	r3, r3, #15
80020f54:	e3c32eff 	bic	r2, r3, #4080	; 0xff0
80020f58:	e3c2200f 	bic	r2, r2, #15
80020f5c:	e30b37fc 	movw	r3, #47100	; 0xb7fc
80020f60:	e348300a 	movt	r3, #32778	; 0x800a
80020f64:	e5832038 	str	r2, [r3, #56]	; 0x38
80020f68:	e30b37fc 	movw	r3, #47100	; 0xb7fc
80020f6c:	e348300a 	movt	r3, #32778	; 0x800a
80020f70:	e5933038 	ldr	r3, [r3, #56]	; 0x38
80020f74:	e50b3008 	str	r3, [fp, #-8]
80020f78:	ea000006 	b	80020f98 <kmem_init2+0x19c>
80020f7c:	e51b3008 	ldr	r3, [fp, #-8]
80020f80:	e1a00003 	mov	r0, r3
80020f84:	e3a0100c 	mov	r1, #12
80020f88:	eb000184 	bl	800215a0 <kfree>
80020f8c:	e51b3008 	ldr	r3, [fp, #-8]
80020f90:	e2833a01 	add	r3, r3, #4096	; 0x1000
80020f94:	e50b3008 	str	r3, [fp, #-8]
80020f98:	e51b2008 	ldr	r2, [fp, #-8]
80020f9c:	e30b37fc 	movw	r3, #47100	; 0xb7fc
80020fa0:	e348300a 	movt	r3, #32778	; 0x800a
80020fa4:	e593303c 	ldr	r3, [r3, #60]	; 0x3c
80020fa8:	e1520003 	cmp	r2, r3
80020fac:	3afffff2 	bcc	80020f7c <kmem_init2+0x180>
80020fb0:	e24bd004 	sub	sp, fp, #4
80020fb4:	e8bd8800 	pop	{fp, pc}

80020fb8 <unmark_blk>:
80020fb8:	e92d4800 	push	{fp, lr}
80020fbc:	e28db004 	add	fp, sp, #4
80020fc0:	e24dd020 	sub	sp, sp, #32
80020fc4:	e50b0020 	str	r0, [fp, #-32]	; 0xffffffe0
80020fc8:	e50b1024 	str	r1, [fp, #-36]	; 0xffffffdc
80020fcc:	e51b3020 	ldr	r3, [fp, #-32]	; 0xffffffe0
80020fd0:	e2433006 	sub	r3, r3, #6
80020fd4:	e2833008 	add	r3, r3, #8
80020fd8:	e1a02183 	lsl	r2, r3, #3
80020fdc:	e30b37fc 	movw	r3, #47100	; 0xb7fc
80020fe0:	e348300a 	movt	r3, #32778	; 0x800a
80020fe4:	e0823003 	add	r3, r2, r3
80020fe8:	e50b3008 	str	r3, [fp, #-8]
80020fec:	e51b3024 	ldr	r3, [fp, #-36]	; 0xffffffdc
80020ff0:	e1a032c3 	asr	r3, r3, #5
80020ff4:	e51b0020 	ldr	r0, [fp, #-32]	; 0xffffffe0
80020ff8:	e1a01003 	mov	r1, r3
80020ffc:	ebffff2c 	bl	80020cb4 <get_mark>
80021000:	e50b000c 	str	r0, [fp, #-12]
80021004:	e51b300c 	ldr	r3, [fp, #-12]
80021008:	e5933004 	ldr	r3, [r3, #4]
8002100c:	e1a00003 	mov	r0, r3
80021010:	e51b1024 	ldr	r1, [fp, #-36]	; 0xffffffdc
80021014:	ebffff60 	bl	80020d9c <available>
80021018:	e1a03000 	mov	r3, r0
8002101c:	e3530000 	cmp	r3, #0
80021020:	1a000002 	bne	80021030 <unmark_blk+0x78>
80021024:	e3090394 	movw	r0, #37780	; 0x9394
80021028:	e3480002 	movt	r0, #32770	; 0x8002
8002102c:	eb0002d0 	bl	80021b74 <panic>
80021030:	e51b300c 	ldr	r3, [fp, #-12]
80021034:	e5932004 	ldr	r2, [r3, #4]
80021038:	e51b3024 	ldr	r3, [fp, #-36]	; 0xffffffdc
8002103c:	e203301f 	and	r3, r3, #31
80021040:	e3a01001 	mov	r1, #1
80021044:	e1a03311 	lsl	r3, r1, r3
80021048:	e1e03003 	mvn	r3, r3
8002104c:	e0022003 	and	r2, r2, r3
80021050:	e51b300c 	ldr	r3, [fp, #-12]
80021054:	e5832004 	str	r2, [r3, #4]
80021058:	e51b300c 	ldr	r3, [fp, #-12]
8002105c:	e5933004 	ldr	r3, [r3, #4]
80021060:	e3530000 	cmp	r3, #0
80021064:	1a000038 	bne	8002114c <unmark_blk+0x194>
80021068:	e51b3024 	ldr	r3, [fp, #-36]	; 0xffffffdc
8002106c:	e1a032c3 	asr	r3, r3, #5
80021070:	e50b3024 	str	r3, [fp, #-36]	; 0xffffffdc
80021074:	e51b300c 	ldr	r3, [fp, #-12]
80021078:	e5933000 	ldr	r3, [r3]
8002107c:	e1a03823 	lsr	r3, r3, #16
80021080:	e50b3010 	str	r3, [fp, #-16]
80021084:	e51b300c 	ldr	r3, [fp, #-12]
80021088:	e5933000 	ldr	r3, [r3]
8002108c:	e6ff3073 	uxth	r3, r3
80021090:	e50b3014 	str	r3, [fp, #-20]	; 0xffffffec
80021094:	e51b2010 	ldr	r2, [fp, #-16]
80021098:	e30f3fff 	movw	r3, #65535	; 0xffff
8002109c:	e1520003 	cmp	r2, r3
800210a0:	0a00000d 	beq	800210dc <unmark_blk+0x124>
800210a4:	e51b0020 	ldr	r0, [fp, #-32]	; 0xffffffe0
800210a8:	e51b1010 	ldr	r1, [fp, #-16]
800210ac:	ebffff00 	bl	80020cb4 <get_mark>
800210b0:	e50b0018 	str	r0, [fp, #-24]	; 0xffffffe8
800210b4:	e51b3018 	ldr	r3, [fp, #-24]	; 0xffffffe8
800210b8:	e5933000 	ldr	r3, [r3]
800210bc:	e1a03823 	lsr	r3, r3, #16
800210c0:	e1a03803 	lsl	r3, r3, #16
800210c4:	e51b2014 	ldr	r2, [fp, #-20]	; 0xffffffec
800210c8:	e6ff2072 	uxth	r2, r2
800210cc:	e1832002 	orr	r2, r3, r2
800210d0:	e51b3018 	ldr	r3, [fp, #-24]	; 0xffffffe8
800210d4:	e5832000 	str	r2, [r3]
800210d8:	ea000007 	b	800210fc <unmark_blk+0x144>
800210dc:	e51b3008 	ldr	r3, [fp, #-8]
800210e0:	e5932000 	ldr	r2, [r3]
800210e4:	e51b3024 	ldr	r3, [fp, #-36]	; 0xffffffdc
800210e8:	e1520003 	cmp	r2, r3
800210ec:	1a000002 	bne	800210fc <unmark_blk+0x144>
800210f0:	e51b2014 	ldr	r2, [fp, #-20]	; 0xffffffec
800210f4:	e51b3008 	ldr	r3, [fp, #-8]
800210f8:	e5832000 	str	r2, [r3]
800210fc:	e51b2014 	ldr	r2, [fp, #-20]	; 0xffffffec
80021100:	e30f3fff 	movw	r3, #65535	; 0xffff
80021104:	e1520003 	cmp	r2, r3
80021108:	0a00000c 	beq	80021140 <unmark_blk+0x188>
8002110c:	e51b0020 	ldr	r0, [fp, #-32]	; 0xffffffe0
80021110:	e51b1014 	ldr	r1, [fp, #-20]	; 0xffffffec
80021114:	ebfffee6 	bl	80020cb4 <get_mark>
80021118:	e50b0018 	str	r0, [fp, #-24]	; 0xffffffe8
8002111c:	e51b3010 	ldr	r3, [fp, #-16]
80021120:	e1a03803 	lsl	r3, r3, #16
80021124:	e1a02003 	mov	r2, r3
80021128:	e51b3018 	ldr	r3, [fp, #-24]	; 0xffffffe8
8002112c:	e5933000 	ldr	r3, [r3]
80021130:	e6ff3073 	uxth	r3, r3
80021134:	e1822003 	orr	r2, r2, r3
80021138:	e51b3018 	ldr	r3, [fp, #-24]	; 0xffffffe8
8002113c:	e5832000 	str	r2, [r3]
80021140:	e51b300c 	ldr	r3, [fp, #-12]
80021144:	e3e02000 	mvn	r2, #0
80021148:	e5832000 	str	r2, [r3]
8002114c:	e24bd004 	sub	sp, fp, #4
80021150:	e8bd8800 	pop	{fp, pc}

80021154 <mark_blk>:
80021154:	e92d4800 	push	{fp, lr}
80021158:	e28db004 	add	fp, sp, #4
8002115c:	e24dd018 	sub	sp, sp, #24
80021160:	e50b0018 	str	r0, [fp, #-24]	; 0xffffffe8
80021164:	e50b101c 	str	r1, [fp, #-28]	; 0xffffffe4
80021168:	e51b3018 	ldr	r3, [fp, #-24]	; 0xffffffe8
8002116c:	e2433006 	sub	r3, r3, #6
80021170:	e2833008 	add	r3, r3, #8
80021174:	e1a02183 	lsl	r2, r3, #3
80021178:	e30b37fc 	movw	r3, #47100	; 0xb7fc
8002117c:	e348300a 	movt	r3, #32778	; 0x800a
80021180:	e0823003 	add	r3, r2, r3
80021184:	e50b3008 	str	r3, [fp, #-8]
80021188:	e51b301c 	ldr	r3, [fp, #-28]	; 0xffffffe4
8002118c:	e1a032c3 	asr	r3, r3, #5
80021190:	e51b0018 	ldr	r0, [fp, #-24]	; 0xffffffe8
80021194:	e1a01003 	mov	r1, r3
80021198:	ebfffec5 	bl	80020cb4 <get_mark>
8002119c:	e50b000c 	str	r0, [fp, #-12]
800211a0:	e51b300c 	ldr	r3, [fp, #-12]
800211a4:	e5933004 	ldr	r3, [r3, #4]
800211a8:	e3530000 	cmp	r3, #0
800211ac:	13a03000 	movne	r3, #0
800211b0:	03a03001 	moveq	r3, #1
800211b4:	e6ef3073 	uxtb	r3, r3
800211b8:	e50b3010 	str	r3, [fp, #-16]
800211bc:	e51b300c 	ldr	r3, [fp, #-12]
800211c0:	e5933004 	ldr	r3, [r3, #4]
800211c4:	e1a00003 	mov	r0, r3
800211c8:	e51b101c 	ldr	r1, [fp, #-28]	; 0xffffffe4
800211cc:	ebfffef2 	bl	80020d9c <available>
800211d0:	e1a03000 	mov	r3, r0
800211d4:	e3530000 	cmp	r3, #0
800211d8:	0a000002 	beq	800211e8 <mark_blk+0x94>
800211dc:	e30903a4 	movw	r0, #37796	; 0x93a4
800211e0:	e3480002 	movt	r0, #32770	; 0x8002
800211e4:	eb000262 	bl	80021b74 <panic>
800211e8:	e51b300c 	ldr	r3, [fp, #-12]
800211ec:	e5932004 	ldr	r2, [r3, #4]
800211f0:	e51b301c 	ldr	r3, [fp, #-28]	; 0xffffffe4
800211f4:	e203301f 	and	r3, r3, #31
800211f8:	e3a01001 	mov	r1, #1
800211fc:	e1a03311 	lsl	r3, r1, r3
80021200:	e1822003 	orr	r2, r2, r3
80021204:	e51b300c 	ldr	r3, [fp, #-12]
80021208:	e5832004 	str	r2, [r3, #4]
8002120c:	e51b3010 	ldr	r3, [fp, #-16]
80021210:	e3530000 	cmp	r3, #0
80021214:	0a00001f 	beq	80021298 <mark_blk+0x144>
80021218:	e51b301c 	ldr	r3, [fp, #-28]	; 0xffffffe4
8002121c:	e1a032c3 	asr	r3, r3, #5
80021220:	e50b301c 	str	r3, [fp, #-28]	; 0xffffffe4
80021224:	e51b3008 	ldr	r3, [fp, #-8]
80021228:	e5933000 	ldr	r3, [r3]
8002122c:	e1e03803 	mvn	r3, r3, lsl #16
80021230:	e1e03823 	mvn	r3, r3, lsr #16
80021234:	e51b200c 	ldr	r2, [fp, #-12]
80021238:	e5823000 	str	r3, [r2]
8002123c:	e51b3008 	ldr	r3, [fp, #-8]
80021240:	e5932000 	ldr	r2, [r3]
80021244:	e30f3fff 	movw	r3, #65535	; 0xffff
80021248:	e1520003 	cmp	r2, r3
8002124c:	0a00000e 	beq	8002128c <mark_blk+0x138>
80021250:	e51b3008 	ldr	r3, [fp, #-8]
80021254:	e5933000 	ldr	r3, [r3]
80021258:	e51b0018 	ldr	r0, [fp, #-24]	; 0xffffffe8
8002125c:	e1a01003 	mov	r1, r3
80021260:	ebfffe93 	bl	80020cb4 <get_mark>
80021264:	e50b0014 	str	r0, [fp, #-20]	; 0xffffffec
80021268:	e51b301c 	ldr	r3, [fp, #-28]	; 0xffffffe4
8002126c:	e1a03803 	lsl	r3, r3, #16
80021270:	e1a02003 	mov	r2, r3
80021274:	e51b3014 	ldr	r3, [fp, #-20]	; 0xffffffec
80021278:	e5933000 	ldr	r3, [r3]
8002127c:	e6ff3073 	uxth	r3, r3
80021280:	e1822003 	orr	r2, r2, r3
80021284:	e51b3014 	ldr	r3, [fp, #-20]	; 0xffffffec
80021288:	e5832000 	str	r2, [r3]
8002128c:	e51b201c 	ldr	r2, [fp, #-28]	; 0xffffffe4
80021290:	e51b3008 	ldr	r3, [fp, #-8]
80021294:	e5832000 	str	r2, [r3]
80021298:	e24bd004 	sub	sp, fp, #4
8002129c:	e8bd8800 	pop	{fp, pc}

800212a0 <get_blk>:
800212a0:	e92d4800 	push	{fp, lr}
800212a4:	e28db004 	add	fp, sp, #4
800212a8:	e24dd018 	sub	sp, sp, #24
800212ac:	e50b0018 	str	r0, [fp, #-24]	; 0xffffffe8
800212b0:	e51b3018 	ldr	r3, [fp, #-24]	; 0xffffffe8
800212b4:	e2433006 	sub	r3, r3, #6
800212b8:	e2833008 	add	r3, r3, #8
800212bc:	e1a02183 	lsl	r2, r3, #3
800212c0:	e30b37fc 	movw	r3, #47100	; 0xb7fc
800212c4:	e348300a 	movt	r3, #32778	; 0x800a
800212c8:	e0823003 	add	r3, r2, r3
800212cc:	e50b300c 	str	r3, [fp, #-12]
800212d0:	e51b300c 	ldr	r3, [fp, #-12]
800212d4:	e5933000 	ldr	r3, [r3]
800212d8:	e51b0018 	ldr	r0, [fp, #-24]	; 0xffffffe8
800212dc:	e1a01003 	mov	r1, r3
800212e0:	ebfffe73 	bl	80020cb4 <get_mark>
800212e4:	e50b0010 	str	r0, [fp, #-16]
800212e8:	e51b3010 	ldr	r3, [fp, #-16]
800212ec:	e5933004 	ldr	r3, [r3, #4]
800212f0:	e3530000 	cmp	r3, #0
800212f4:	1a000002 	bne	80021304 <get_blk+0x64>
800212f8:	e30903b4 	movw	r0, #37812	; 0x93b4
800212fc:	e3480002 	movt	r0, #32770	; 0x8002
80021300:	eb00021b 	bl	80021b74 <panic>
80021304:	e3a03000 	mov	r3, #0
80021308:	e50b3008 	str	r3, [fp, #-8]
8002130c:	ea000018 	b	80021374 <get_blk+0xd4>
80021310:	e51b3010 	ldr	r3, [fp, #-16]
80021314:	e5932004 	ldr	r2, [r3, #4]
80021318:	e3a01001 	mov	r1, #1
8002131c:	e51b3008 	ldr	r3, [fp, #-8]
80021320:	e1a03311 	lsl	r3, r1, r3
80021324:	e0023003 	and	r3, r2, r3
80021328:	e3530000 	cmp	r3, #0
8002132c:	0a00000d 	beq	80021368 <get_blk+0xc8>
80021330:	e51b300c 	ldr	r3, [fp, #-12]
80021334:	e5933000 	ldr	r3, [r3]
80021338:	e1a02283 	lsl	r2, r3, #5
8002133c:	e51b3008 	ldr	r3, [fp, #-8]
80021340:	e0823003 	add	r3, r2, r3
80021344:	e50b3014 	str	r3, [fp, #-20]	; 0xffffffec
80021348:	e51b0018 	ldr	r0, [fp, #-24]	; 0xffffffe8
8002134c:	e51b1014 	ldr	r1, [fp, #-20]	; 0xffffffec
80021350:	ebffff18 	bl	80020fb8 <unmark_blk>
80021354:	e51b0018 	ldr	r0, [fp, #-24]	; 0xffffffe8
80021358:	e51b1014 	ldr	r1, [fp, #-20]	; 0xffffffec
8002135c:	ebfffe6e 	bl	80020d1c <blkid2mem>
80021360:	e1a03000 	mov	r3, r0
80021364:	ea000006 	b	80021384 <get_blk+0xe4>
80021368:	e51b3008 	ldr	r3, [fp, #-8]
8002136c:	e2833001 	add	r3, r3, #1
80021370:	e50b3008 	str	r3, [fp, #-8]
80021374:	e51b3008 	ldr	r3, [fp, #-8]
80021378:	e353001f 	cmp	r3, #31
8002137c:	daffffe3 	ble	80021310 <get_blk+0x70>
80021380:	e3a03000 	mov	r3, #0
80021384:	e1a00003 	mov	r0, r3
80021388:	e24bd004 	sub	sp, fp, #4
8002138c:	e8bd8800 	pop	{fp, pc}

80021390 <_kmalloc>:
80021390:	e92d4800 	push	{fp, lr}
80021394:	e28db004 	add	fp, sp, #4
80021398:	e24dd010 	sub	sp, sp, #16
8002139c:	e50b0010 	str	r0, [fp, #-16]
800213a0:	e51b3010 	ldr	r3, [fp, #-16]
800213a4:	e2433006 	sub	r3, r3, #6
800213a8:	e2833008 	add	r3, r3, #8
800213ac:	e1a02183 	lsl	r2, r3, #3
800213b0:	e30b37fc 	movw	r3, #47100	; 0xb7fc
800213b4:	e348300a 	movt	r3, #32778	; 0x800a
800213b8:	e0823003 	add	r3, r2, r3
800213bc:	e50b300c 	str	r3, [fp, #-12]
800213c0:	e3a03000 	mov	r3, #0
800213c4:	e50b3008 	str	r3, [fp, #-8]
800213c8:	e51b300c 	ldr	r3, [fp, #-12]
800213cc:	e5932000 	ldr	r2, [r3]
800213d0:	e30f3fff 	movw	r3, #65535	; 0xffff
800213d4:	e1520003 	cmp	r2, r3
800213d8:	0a000003 	beq	800213ec <_kmalloc+0x5c>
800213dc:	e51b0010 	ldr	r0, [fp, #-16]
800213e0:	ebffffae 	bl	800212a0 <get_blk>
800213e4:	e50b0008 	str	r0, [fp, #-8]
800213e8:	ea000012 	b	80021438 <_kmalloc+0xa8>
800213ec:	e51b3010 	ldr	r3, [fp, #-16]
800213f0:	e353000b 	cmp	r3, #11
800213f4:	ca00000f 	bgt	80021438 <_kmalloc+0xa8>
800213f8:	e51b3010 	ldr	r3, [fp, #-16]
800213fc:	e2833001 	add	r3, r3, #1
80021400:	e1a00003 	mov	r0, r3
80021404:	ebffffe1 	bl	80021390 <_kmalloc>
80021408:	e50b0008 	str	r0, [fp, #-8]
8002140c:	e51b3008 	ldr	r3, [fp, #-8]
80021410:	e3530000 	cmp	r3, #0
80021414:	0a000007 	beq	80021438 <_kmalloc+0xa8>
80021418:	e3a02001 	mov	r2, #1
8002141c:	e51b3010 	ldr	r3, [fp, #-16]
80021420:	e1a03312 	lsl	r3, r2, r3
80021424:	e51b2008 	ldr	r2, [fp, #-8]
80021428:	e0823003 	add	r3, r2, r3
8002142c:	e1a00003 	mov	r0, r3
80021430:	e51b1010 	ldr	r1, [fp, #-16]
80021434:	eb00001d 	bl	800214b0 <_kfree>
80021438:	e51b3008 	ldr	r3, [fp, #-8]
8002143c:	e1a00003 	mov	r0, r3
80021440:	e24bd004 	sub	sp, fp, #4
80021444:	e8bd8800 	pop	{fp, pc}

80021448 <kmalloc>:
80021448:	e92d4800 	push	{fp, lr}
8002144c:	e28db004 	add	fp, sp, #4
80021450:	e24dd010 	sub	sp, sp, #16
80021454:	e50b0010 	str	r0, [fp, #-16]
80021458:	e51b3010 	ldr	r3, [fp, #-16]
8002145c:	e353000c 	cmp	r3, #12
80021460:	ca000002 	bgt	80021470 <kmalloc+0x28>
80021464:	e51b3010 	ldr	r3, [fp, #-16]
80021468:	e3530005 	cmp	r3, #5
8002146c:	ca000002 	bgt	8002147c <kmalloc+0x34>
80021470:	e30903cc 	movw	r0, #37836	; 0x93cc
80021474:	e3480002 	movt	r0, #32770	; 0x8002
80021478:	eb0001bd 	bl	80021b74 <panic>
8002147c:	e30b07fc 	movw	r0, #47100	; 0xb7fc
80021480:	e348000a 	movt	r0, #32778	; 0x800a
80021484:	eb0012d5 	bl	80025fe0 <acquire>
80021488:	e51b0010 	ldr	r0, [fp, #-16]
8002148c:	ebffffbf 	bl	80021390 <_kmalloc>
80021490:	e50b0008 	str	r0, [fp, #-8]
80021494:	e30b07fc 	movw	r0, #47100	; 0xb7fc
80021498:	e348000a 	movt	r0, #32778	; 0x800a
8002149c:	eb0012d9 	bl	80026008 <release>
800214a0:	e51b3008 	ldr	r3, [fp, #-8]
800214a4:	e1a00003 	mov	r0, r3
800214a8:	e24bd004 	sub	sp, fp, #4
800214ac:	e8bd8800 	pop	{fp, pc}

800214b0 <_kfree>:
800214b0:	e92d4800 	push	{fp, lr}
800214b4:	e28db004 	add	fp, sp, #4
800214b8:	e24dd018 	sub	sp, sp, #24
800214bc:	e50b0018 	str	r0, [fp, #-24]	; 0xffffffe8
800214c0:	e50b101c 	str	r1, [fp, #-28]	; 0xffffffe4
800214c4:	e51b001c 	ldr	r0, [fp, #-28]	; 0xffffffe4
800214c8:	e51b1018 	ldr	r1, [fp, #-24]	; 0xffffffe8
800214cc:	ebfffe22 	bl	80020d5c <mem2blkid>
800214d0:	e50b0008 	str	r0, [fp, #-8]
800214d4:	e51b3008 	ldr	r3, [fp, #-8]
800214d8:	e1a032c3 	asr	r3, r3, #5
800214dc:	e51b001c 	ldr	r0, [fp, #-28]	; 0xffffffe4
800214e0:	e1a01003 	mov	r1, r3
800214e4:	ebfffdf2 	bl	80020cb4 <get_mark>
800214e8:	e50b000c 	str	r0, [fp, #-12]
800214ec:	e51b300c 	ldr	r3, [fp, #-12]
800214f0:	e5933004 	ldr	r3, [r3, #4]
800214f4:	e1a00003 	mov	r0, r3
800214f8:	e51b1008 	ldr	r1, [fp, #-8]
800214fc:	ebfffe26 	bl	80020d9c <available>
80021500:	e1a03000 	mov	r3, r0
80021504:	e3530000 	cmp	r3, #0
80021508:	0a000002 	beq	80021518 <_kfree+0x68>
8002150c:	e30903ec 	movw	r0, #37868	; 0x93ec
80021510:	e3480002 	movt	r0, #32770	; 0x8002
80021514:	eb000196 	bl	80021b74 <panic>
80021518:	e51b3008 	ldr	r3, [fp, #-8]
8002151c:	e2233001 	eor	r3, r3, #1
80021520:	e50b3010 	str	r3, [fp, #-16]
80021524:	e51b300c 	ldr	r3, [fp, #-12]
80021528:	e5933004 	ldr	r3, [r3, #4]
8002152c:	e1a00003 	mov	r0, r3
80021530:	e51b1010 	ldr	r1, [fp, #-16]
80021534:	ebfffe18 	bl	80020d9c <available>
80021538:	e1a03000 	mov	r3, r0
8002153c:	e3530000 	cmp	r3, #0
80021540:	0a000002 	beq	80021550 <_kfree+0xa0>
80021544:	e51b301c 	ldr	r3, [fp, #-28]	; 0xffffffe4
80021548:	e353000c 	cmp	r3, #12
8002154c:	1a000003 	bne	80021560 <_kfree+0xb0>
80021550:	e51b001c 	ldr	r0, [fp, #-28]	; 0xffffffe4
80021554:	e51b1008 	ldr	r1, [fp, #-8]
80021558:	ebfffefd 	bl	80021154 <mark_blk>
8002155c:	ea00000d 	b	80021598 <_kfree+0xe8>
80021560:	e51b001c 	ldr	r0, [fp, #-28]	; 0xffffffe4
80021564:	e51b1010 	ldr	r1, [fp, #-16]
80021568:	ebfffe92 	bl	80020fb8 <unmark_blk>
8002156c:	e51b3008 	ldr	r3, [fp, #-8]
80021570:	e3c33001 	bic	r3, r3, #1
80021574:	e51b001c 	ldr	r0, [fp, #-28]	; 0xffffffe4
80021578:	e1a01003 	mov	r1, r3
8002157c:	ebfffde6 	bl	80020d1c <blkid2mem>
80021580:	e1a02000 	mov	r2, r0
80021584:	e51b301c 	ldr	r3, [fp, #-28]	; 0xffffffe4
80021588:	e2833001 	add	r3, r3, #1
8002158c:	e1a00002 	mov	r0, r2
80021590:	e1a01003 	mov	r1, r3
80021594:	ebffffc5 	bl	800214b0 <_kfree>
80021598:	e24bd004 	sub	sp, fp, #4
8002159c:	e8bd8800 	pop	{fp, pc}

800215a0 <kfree>:
800215a0:	e92d4800 	push	{fp, lr}
800215a4:	e28db004 	add	fp, sp, #4
800215a8:	e24dd008 	sub	sp, sp, #8
800215ac:	e50b0008 	str	r0, [fp, #-8]
800215b0:	e50b100c 	str	r1, [fp, #-12]
800215b4:	e51b300c 	ldr	r3, [fp, #-12]
800215b8:	e353000c 	cmp	r3, #12
800215bc:	ca00000b 	bgt	800215f0 <kfree+0x50>
800215c0:	e51b300c 	ldr	r3, [fp, #-12]
800215c4:	e3530005 	cmp	r3, #5
800215c8:	da000008 	ble	800215f0 <kfree+0x50>
800215cc:	e3a02001 	mov	r2, #1
800215d0:	e51b300c 	ldr	r3, [fp, #-12]
800215d4:	e1a03312 	lsl	r3, r2, r3
800215d8:	e2433001 	sub	r3, r3, #1
800215dc:	e1a02003 	mov	r2, r3
800215e0:	e51b3008 	ldr	r3, [fp, #-8]
800215e4:	e0023003 	and	r3, r2, r3
800215e8:	e3530000 	cmp	r3, #0
800215ec:	0a000002 	beq	800215fc <kfree+0x5c>
800215f0:	e3090400 	movw	r0, #37888	; 0x9400
800215f4:	e3480002 	movt	r0, #32770	; 0x8002
800215f8:	eb00015d 	bl	80021b74 <panic>
800215fc:	e30b07fc 	movw	r0, #47100	; 0xb7fc
80021600:	e348000a 	movt	r0, #32778	; 0x800a
80021604:	eb001275 	bl	80025fe0 <acquire>
80021608:	e51b0008 	ldr	r0, [fp, #-8]
8002160c:	e51b100c 	ldr	r1, [fp, #-12]
80021610:	ebffffa6 	bl	800214b0 <_kfree>
80021614:	e30b07fc 	movw	r0, #47100	; 0xb7fc
80021618:	e348000a 	movt	r0, #32778	; 0x800a
8002161c:	eb001279 	bl	80026008 <release>
80021620:	e24bd004 	sub	sp, fp, #4
80021624:	e8bd8800 	pop	{fp, pc}

80021628 <free_page>:
80021628:	e92d4800 	push	{fp, lr}
8002162c:	e28db004 	add	fp, sp, #4
80021630:	e24dd008 	sub	sp, sp, #8
80021634:	e50b0008 	str	r0, [fp, #-8]
80021638:	e51b0008 	ldr	r0, [fp, #-8]
8002163c:	e3a0100c 	mov	r1, #12
80021640:	ebffffd6 	bl	800215a0 <kfree>
80021644:	e24bd004 	sub	sp, fp, #4
80021648:	e8bd8800 	pop	{fp, pc}

8002164c <alloc_page>:
8002164c:	e92d4800 	push	{fp, lr}
80021650:	e28db004 	add	fp, sp, #4
80021654:	e3a0000c 	mov	r0, #12
80021658:	ebffff7a 	bl	80021448 <kmalloc>
8002165c:	e1a03000 	mov	r3, r0
80021660:	e1a00003 	mov	r0, r3
80021664:	e8bd8800 	pop	{fp, pc}

80021668 <get_order>:
80021668:	e92d4800 	push	{fp, lr}
8002166c:	e28db004 	add	fp, sp, #4
80021670:	e24dd010 	sub	sp, sp, #16
80021674:	e50b0010 	str	r0, [fp, #-16]
80021678:	e51b3010 	ldr	r3, [fp, #-16]
8002167c:	e2433001 	sub	r3, r3, #1
80021680:	e50b3010 	str	r3, [fp, #-16]
80021684:	e51b3010 	ldr	r3, [fp, #-16]
80021688:	e1a030a3 	lsr	r3, r3, #1
8002168c:	e51b2010 	ldr	r2, [fp, #-16]
80021690:	e1823003 	orr	r3, r2, r3
80021694:	e50b3010 	str	r3, [fp, #-16]
80021698:	e51b3010 	ldr	r3, [fp, #-16]
8002169c:	e1a03123 	lsr	r3, r3, #2
800216a0:	e51b2010 	ldr	r2, [fp, #-16]
800216a4:	e1823003 	orr	r3, r2, r3
800216a8:	e50b3010 	str	r3, [fp, #-16]
800216ac:	e51b3010 	ldr	r3, [fp, #-16]
800216b0:	e1a03223 	lsr	r3, r3, #4
800216b4:	e51b2010 	ldr	r2, [fp, #-16]
800216b8:	e1823003 	orr	r3, r2, r3
800216bc:	e50b3010 	str	r3, [fp, #-16]
800216c0:	e51b3010 	ldr	r3, [fp, #-16]
800216c4:	e1a03423 	lsr	r3, r3, #8
800216c8:	e51b2010 	ldr	r2, [fp, #-16]
800216cc:	e1823003 	orr	r3, r2, r3
800216d0:	e50b3010 	str	r3, [fp, #-16]
800216d4:	e51b3010 	ldr	r3, [fp, #-16]
800216d8:	e1a03823 	lsr	r3, r3, #16
800216dc:	e51b2010 	ldr	r2, [fp, #-16]
800216e0:	e1823003 	orr	r3, r2, r3
800216e4:	e50b3010 	str	r3, [fp, #-16]
800216e8:	e51b3010 	ldr	r3, [fp, #-16]
800216ec:	e2833001 	add	r3, r3, #1
800216f0:	e50b3010 	str	r3, [fp, #-16]
800216f4:	e3a03000 	mov	r3, #0
800216f8:	e50b3008 	str	r3, [fp, #-8]
800216fc:	ea00000b 	b	80021730 <get_order+0xc8>
80021700:	e51b3008 	ldr	r3, [fp, #-8]
80021704:	e3a02001 	mov	r2, #1
80021708:	e1a03312 	lsl	r3, r2, r3
8002170c:	e1a02003 	mov	r2, r3
80021710:	e51b3010 	ldr	r3, [fp, #-16]
80021714:	e0023003 	and	r3, r2, r3
80021718:	e3530000 	cmp	r3, #0
8002171c:	0a000000 	beq	80021724 <get_order+0xbc>
80021720:	ea000005 	b	8002173c <get_order+0xd4>
80021724:	e51b3008 	ldr	r3, [fp, #-8]
80021728:	e2833001 	add	r3, r3, #1
8002172c:	e50b3008 	str	r3, [fp, #-8]
80021730:	e51b3008 	ldr	r3, [fp, #-8]
80021734:	e353001f 	cmp	r3, #31
80021738:	9afffff0 	bls	80021700 <get_order+0x98>
8002173c:	e51b3008 	ldr	r3, [fp, #-8]
80021740:	e3530005 	cmp	r3, #5
80021744:	8a000002 	bhi	80021754 <get_order+0xec>
80021748:	e3a03006 	mov	r3, #6
8002174c:	e50b3008 	str	r3, [fp, #-8]
80021750:	ea000005 	b	8002176c <get_order+0x104>
80021754:	e51b3008 	ldr	r3, [fp, #-8]
80021758:	e353000c 	cmp	r3, #12
8002175c:	9a000002 	bls	8002176c <get_order+0x104>
80021760:	e3090430 	movw	r0, #37936	; 0x9430
80021764:	e3480002 	movt	r0, #32770	; 0x8002
80021768:	eb000101 	bl	80021b74 <panic>
8002176c:	e51b3008 	ldr	r3, [fp, #-8]
80021770:	e1a00003 	mov	r0, r3
80021774:	e24bd004 	sub	sp, fp, #4
80021778:	e8bd8800 	pop	{fp, pc}

8002177c <flush_dcache_all>:
8002177c:	e92d0fff 	push	{r0, r1, r2, r3, r4, r5, r6, r7, r8, r9, sl, fp}
80021780:	f57ff05f 	dmb	sy
80021784:	ee300f30 	mrc	15, 1, r0, cr0, cr0, {1}
80021788:	e2103407 	ands	r3, r0, #117440512	; 0x7000000
8002178c:	e1a03ba3 	lsr	r3, r3, #23
80021790:	0a00001c 	beq	80021808 <finished>
80021794:	e3a0a000 	mov	sl, #0

80021798 <flush_levels>:
80021798:	e08a20aa 	add	r2, sl, sl, lsr #1
8002179c:	e1a01230 	lsr	r1, r0, r2
800217a0:	e2011007 	and	r1, r1, #7
800217a4:	e3510002 	cmp	r1, #2
800217a8:	ba000013 	blt	800217fc <skip>
800217ac:	ee40af10 	mcr	15, 2, sl, cr0, cr0, {0}
800217b0:	f57ff06f 	isb	sy
800217b4:	ee301f10 	mrc	15, 1, r1, cr0, cr0, {0}
800217b8:	e2012007 	and	r2, r1, #7
800217bc:	e2822004 	add	r2, r2, #4
800217c0:	e59f4058 	ldr	r4, [pc, #88]	; 80021820 <finished+0x18>
800217c4:	e01441a1 	ands	r4, r4, r1, lsr #3
800217c8:	e16f5f14 	clz	r5, r4
800217cc:	e59f7050 	ldr	r7, [pc, #80]	; 80021824 <finished+0x1c>
800217d0:	e01776a1 	ands	r7, r7, r1, lsr #13

800217d4 <loop1>:
800217d4:	e1a09007 	mov	r9, r7

800217d8 <loop2>:
800217d8:	e1a06514 	lsl	r6, r4, r5
800217dc:	e18ab006 	orr	fp, sl, r6
800217e0:	e1a06219 	lsl	r6, r9, r2
800217e4:	e18bb006 	orr	fp, fp, r6
800217e8:	ee07bf5e 	mcr	15, 0, fp, cr7, cr14, {2}
800217ec:	e2599001 	subs	r9, r9, #1
800217f0:	aafffff8 	bge	800217d8 <loop2>
800217f4:	e2544001 	subs	r4, r4, #1
800217f8:	aafffff5 	bge	800217d4 <loop1>

800217fc <skip>:
800217fc:	e28aa002 	add	sl, sl, #2
80021800:	e153000a 	cmp	r3, sl
80021804:	caffffe3 	bgt	80021798 <flush_levels>

80021808 <finished>:
80021808:	e3a0a000 	mov	sl, #0
8002180c:	ee40af10 	mcr	15, 2, sl, cr0, cr0, {0}
80021810:	f57ff04e 	dsb	st
80021814:	f57ff06f 	isb	sy
80021818:	e8bd0fff 	pop	{r0, r1, r2, r3, r4, r5, r6, r7, r8, r9, sl, fp}
8002181c:	e12fff1e 	bx	lr
80021820:	000003ff 	.word	0x000003ff
80021824:	00007fff 	.word	0x00007fff

80021828 <printint>:
80021828:	e92d4810 	push	{r4, fp, lr}
8002182c:	e28db008 	add	fp, sp, #8
80021830:	e24dd02c 	sub	sp, sp, #44	; 0x2c
80021834:	e50b0028 	str	r0, [fp, #-40]	; 0xffffffd8
80021838:	e50b102c 	str	r1, [fp, #-44]	; 0xffffffd4
8002183c:	e50b2030 	str	r2, [fp, #-48]	; 0xffffffd0
80021840:	e51b3030 	ldr	r3, [fp, #-48]	; 0xffffffd0
80021844:	e3530000 	cmp	r3, #0
80021848:	0a00000a 	beq	80021878 <printint+0x50>
8002184c:	e51b3028 	ldr	r3, [fp, #-40]	; 0xffffffd8
80021850:	e1a03fa3 	lsr	r3, r3, #31
80021854:	e6ef3073 	uxtb	r3, r3
80021858:	e50b3030 	str	r3, [fp, #-48]	; 0xffffffd0
8002185c:	e51b3030 	ldr	r3, [fp, #-48]	; 0xffffffd0
80021860:	e3530000 	cmp	r3, #0
80021864:	0a000003 	beq	80021878 <printint+0x50>
80021868:	e51b3028 	ldr	r3, [fp, #-40]	; 0xffffffd8
8002186c:	e2633000 	rsb	r3, r3, #0
80021870:	e50b3014 	str	r3, [fp, #-20]	; 0xffffffec
80021874:	ea000001 	b	80021880 <printint+0x58>
80021878:	e51b3028 	ldr	r3, [fp, #-40]	; 0xffffffd8
8002187c:	e50b3014 	str	r3, [fp, #-20]	; 0xffffffec
80021880:	e3a03000 	mov	r3, #0
80021884:	e50b3010 	str	r3, [fp, #-16]
80021888:	e51b4010 	ldr	r4, [fp, #-16]
8002188c:	e2843001 	add	r3, r4, #1
80021890:	e50b3010 	str	r3, [fp, #-16]
80021894:	e51b302c 	ldr	r3, [fp, #-44]	; 0xffffffd4
80021898:	e51b2014 	ldr	r2, [fp, #-20]	; 0xffffffec
8002189c:	e1a00002 	mov	r0, r2
800218a0:	e1a01003 	mov	r1, r3
800218a4:	eb001e8e 	bl	800292e4 <__aeabi_uidivmod>
800218a8:	e1a03001 	mov	r3, r1
800218ac:	e1a02003 	mov	r2, r3
800218b0:	e30a3000 	movw	r3, #40960	; 0xa000
800218b4:	e3483002 	movt	r3, #32770	; 0x8002
800218b8:	e7d32002 	ldrb	r2, [r3, r2]
800218bc:	e3e03017 	mvn	r3, #23
800218c0:	e24b000c 	sub	r0, fp, #12
800218c4:	e0801004 	add	r1, r0, r4
800218c8:	e0813003 	add	r3, r1, r3
800218cc:	e5c32000 	strb	r2, [r3]
800218d0:	e51b302c 	ldr	r3, [fp, #-44]	; 0xffffffd4
800218d4:	e51b0014 	ldr	r0, [fp, #-20]	; 0xffffffec
800218d8:	e1a01003 	mov	r1, r3
800218dc:	eb001e43 	bl	800291f0 <__aeabi_uidiv>
800218e0:	e1a03000 	mov	r3, r0
800218e4:	e50b3014 	str	r3, [fp, #-20]	; 0xffffffec
800218e8:	e51b3014 	ldr	r3, [fp, #-20]	; 0xffffffec
800218ec:	e3530000 	cmp	r3, #0
800218f0:	1affffe4 	bne	80021888 <printint+0x60>
800218f4:	e51b3030 	ldr	r3, [fp, #-48]	; 0xffffffd0
800218f8:	e3530000 	cmp	r3, #0
800218fc:	0a000009 	beq	80021928 <printint+0x100>
80021900:	e51b3010 	ldr	r3, [fp, #-16]
80021904:	e2832001 	add	r2, r3, #1
80021908:	e50b2010 	str	r2, [fp, #-16]
8002190c:	e3e02017 	mvn	r2, #23
80021910:	e24b100c 	sub	r1, fp, #12
80021914:	e0813003 	add	r3, r1, r3
80021918:	e0833002 	add	r3, r3, r2
8002191c:	e3a0202d 	mov	r2, #45	; 0x2d
80021920:	e5c32000 	strb	r2, [r3]
80021924:	ea000008 	b	8002194c <printint+0x124>
80021928:	ea000007 	b	8002194c <printint+0x124>
8002192c:	e3e03017 	mvn	r3, #23
80021930:	e51b2010 	ldr	r2, [fp, #-16]
80021934:	e24b000c 	sub	r0, fp, #12
80021938:	e0802002 	add	r2, r0, r2
8002193c:	e0823003 	add	r3, r2, r3
80021940:	e5d33000 	ldrb	r3, [r3]
80021944:	e1a00003 	mov	r0, r3
80021948:	eb0000a1 	bl	80021bd4 <consputc>
8002194c:	e51b3010 	ldr	r3, [fp, #-16]
80021950:	e2433001 	sub	r3, r3, #1
80021954:	e50b3010 	str	r3, [fp, #-16]
80021958:	e51b3010 	ldr	r3, [fp, #-16]
8002195c:	e3530000 	cmp	r3, #0
80021960:	aafffff1 	bge	8002192c <printint+0x104>
80021964:	e24bd008 	sub	sp, fp, #8
80021968:	e8bd8810 	pop	{r4, fp, pc}

8002196c <cprintf>:
8002196c:	e92d000f 	push	{r0, r1, r2, r3}
80021970:	e92d4800 	push	{fp, lr}
80021974:	e28db004 	add	fp, sp, #4
80021978:	e24dd018 	sub	sp, sp, #24
8002197c:	e30b3878 	movw	r3, #47224	; 0xb878
80021980:	e348300a 	movt	r3, #32778	; 0x800a
80021984:	e5933034 	ldr	r3, [r3, #52]	; 0x34
80021988:	e50b3014 	str	r3, [fp, #-20]	; 0xffffffec
8002198c:	e51b3014 	ldr	r3, [fp, #-20]	; 0xffffffec
80021990:	e3530000 	cmp	r3, #0
80021994:	0a000002 	beq	800219a4 <cprintf+0x38>
80021998:	e30b0878 	movw	r0, #47224	; 0xb878
8002199c:	e348000a 	movt	r0, #32778	; 0x800a
800219a0:	eb00118e 	bl	80025fe0 <acquire>
800219a4:	e59b3004 	ldr	r3, [fp, #4]
800219a8:	e3530000 	cmp	r3, #0
800219ac:	1a000002 	bne	800219bc <cprintf+0x50>
800219b0:	e3090440 	movw	r0, #37952	; 0x9440
800219b4:	e3480002 	movt	r0, #32770	; 0x8002
800219b8:	eb00006d 	bl	80021b74 <panic>
800219bc:	e28b3008 	add	r3, fp, #8
800219c0:	e50b300c 	str	r3, [fp, #-12]
800219c4:	e3a03000 	mov	r3, #0
800219c8:	e50b3008 	str	r3, [fp, #-8]
800219cc:	ea000056 	b	80021b2c <cprintf+0x1c0>
800219d0:	e51b3018 	ldr	r3, [fp, #-24]	; 0xffffffe8
800219d4:	e3530025 	cmp	r3, #37	; 0x25
800219d8:	0a000002 	beq	800219e8 <cprintf+0x7c>
800219dc:	e51b0018 	ldr	r0, [fp, #-24]	; 0xffffffe8
800219e0:	eb00007b 	bl	80021bd4 <consputc>
800219e4:	ea00004d 	b	80021b20 <cprintf+0x1b4>
800219e8:	e59b2004 	ldr	r2, [fp, #4]
800219ec:	e51b3008 	ldr	r3, [fp, #-8]
800219f0:	e2833001 	add	r3, r3, #1
800219f4:	e50b3008 	str	r3, [fp, #-8]
800219f8:	e51b3008 	ldr	r3, [fp, #-8]
800219fc:	e0823003 	add	r3, r2, r3
80021a00:	e5d33000 	ldrb	r3, [r3]
80021a04:	e50b3018 	str	r3, [fp, #-24]	; 0xffffffe8
80021a08:	e51b3018 	ldr	r3, [fp, #-24]	; 0xffffffe8
80021a0c:	e3530000 	cmp	r3, #0
80021a10:	1a000000 	bne	80021a18 <cprintf+0xac>
80021a14:	ea00004c 	b	80021b4c <cprintf+0x1e0>
80021a18:	e51b3018 	ldr	r3, [fp, #-24]	; 0xffffffe8
80021a1c:	e3530070 	cmp	r3, #112	; 0x70
80021a20:	0a000014 	beq	80021a78 <cprintf+0x10c>
80021a24:	e3530070 	cmp	r3, #112	; 0x70
80021a28:	ca000004 	bgt	80021a40 <cprintf+0xd4>
80021a2c:	e3530025 	cmp	r3, #37	; 0x25
80021a30:	0a000032 	beq	80021b00 <cprintf+0x194>
80021a34:	e3530064 	cmp	r3, #100	; 0x64
80021a38:	0a000005 	beq	80021a54 <cprintf+0xe8>
80021a3c:	ea000032 	b	80021b0c <cprintf+0x1a0>
80021a40:	e3530073 	cmp	r3, #115	; 0x73
80021a44:	0a000014 	beq	80021a9c <cprintf+0x130>
80021a48:	e3530078 	cmp	r3, #120	; 0x78
80021a4c:	0a000009 	beq	80021a78 <cprintf+0x10c>
80021a50:	ea00002d 	b	80021b0c <cprintf+0x1a0>
80021a54:	e51b300c 	ldr	r3, [fp, #-12]
80021a58:	e2832004 	add	r2, r3, #4
80021a5c:	e50b200c 	str	r2, [fp, #-12]
80021a60:	e5933000 	ldr	r3, [r3]
80021a64:	e1a00003 	mov	r0, r3
80021a68:	e3a0100a 	mov	r1, #10
80021a6c:	e3a02001 	mov	r2, #1
80021a70:	ebffff6c 	bl	80021828 <printint>
80021a74:	ea000029 	b	80021b20 <cprintf+0x1b4>
80021a78:	e51b300c 	ldr	r3, [fp, #-12]
80021a7c:	e2832004 	add	r2, r3, #4
80021a80:	e50b200c 	str	r2, [fp, #-12]
80021a84:	e5933000 	ldr	r3, [r3]
80021a88:	e1a00003 	mov	r0, r3
80021a8c:	e3a01010 	mov	r1, #16
80021a90:	e3a02000 	mov	r2, #0
80021a94:	ebffff63 	bl	80021828 <printint>
80021a98:	ea000020 	b	80021b20 <cprintf+0x1b4>
80021a9c:	e51b300c 	ldr	r3, [fp, #-12]
80021aa0:	e2832004 	add	r2, r3, #4
80021aa4:	e50b200c 	str	r2, [fp, #-12]
80021aa8:	e5933000 	ldr	r3, [r3]
80021aac:	e50b3010 	str	r3, [fp, #-16]
80021ab0:	e51b3010 	ldr	r3, [fp, #-16]
80021ab4:	e3530000 	cmp	r3, #0
80021ab8:	1a000003 	bne	80021acc <cprintf+0x160>
80021abc:	e309344c 	movw	r3, #37964	; 0x944c
80021ac0:	e3483002 	movt	r3, #32770	; 0x8002
80021ac4:	e50b3010 	str	r3, [fp, #-16]
80021ac8:	ea000007 	b	80021aec <cprintf+0x180>
80021acc:	ea000006 	b	80021aec <cprintf+0x180>
80021ad0:	e51b3010 	ldr	r3, [fp, #-16]
80021ad4:	e5d33000 	ldrb	r3, [r3]
80021ad8:	e1a00003 	mov	r0, r3
80021adc:	eb00003c 	bl	80021bd4 <consputc>
80021ae0:	e51b3010 	ldr	r3, [fp, #-16]
80021ae4:	e2833001 	add	r3, r3, #1
80021ae8:	e50b3010 	str	r3, [fp, #-16]
80021aec:	e51b3010 	ldr	r3, [fp, #-16]
80021af0:	e5d33000 	ldrb	r3, [r3]
80021af4:	e3530000 	cmp	r3, #0
80021af8:	1afffff4 	bne	80021ad0 <cprintf+0x164>
80021afc:	ea000007 	b	80021b20 <cprintf+0x1b4>
80021b00:	e3a00025 	mov	r0, #37	; 0x25
80021b04:	eb000032 	bl	80021bd4 <consputc>
80021b08:	ea000004 	b	80021b20 <cprintf+0x1b4>
80021b0c:	e3a00025 	mov	r0, #37	; 0x25
80021b10:	eb00002f 	bl	80021bd4 <consputc>
80021b14:	e51b0018 	ldr	r0, [fp, #-24]	; 0xffffffe8
80021b18:	eb00002d 	bl	80021bd4 <consputc>
80021b1c:	e1a00000 	nop			; (mov r0, r0)
80021b20:	e51b3008 	ldr	r3, [fp, #-8]
80021b24:	e2833001 	add	r3, r3, #1
80021b28:	e50b3008 	str	r3, [fp, #-8]
80021b2c:	e59b2004 	ldr	r2, [fp, #4]
80021b30:	e51b3008 	ldr	r3, [fp, #-8]
80021b34:	e0823003 	add	r3, r2, r3
80021b38:	e5d33000 	ldrb	r3, [r3]
80021b3c:	e50b3018 	str	r3, [fp, #-24]	; 0xffffffe8
80021b40:	e51b3018 	ldr	r3, [fp, #-24]	; 0xffffffe8
80021b44:	e3530000 	cmp	r3, #0
80021b48:	1affffa0 	bne	800219d0 <cprintf+0x64>
80021b4c:	e51b3014 	ldr	r3, [fp, #-20]	; 0xffffffec
80021b50:	e3530000 	cmp	r3, #0
80021b54:	0a000002 	beq	80021b64 <cprintf+0x1f8>
80021b58:	e30b0878 	movw	r0, #47224	; 0xb878
80021b5c:	e348000a 	movt	r0, #32778	; 0x800a
80021b60:	eb001128 	bl	80026008 <release>
80021b64:	e24bd004 	sub	sp, fp, #4
80021b68:	e8bd4800 	pop	{fp, lr}
80021b6c:	e28dd010 	add	sp, sp, #16
80021b70:	e12fff1e 	bx	lr

80021b74 <panic>:
80021b74:	e92d4800 	push	{fp, lr}
80021b78:	e28db004 	add	fp, sp, #4
80021b7c:	e24dd008 	sub	sp, sp, #8
80021b80:	e50b0008 	str	r0, [fp, #-8]
80021b84:	ebfffa6c 	bl	8002053c <cli>
80021b88:	e30b3878 	movw	r3, #47224	; 0xb878
80021b8c:	e348300a 	movt	r3, #32778	; 0x800a
80021b90:	e3a02000 	mov	r2, #0
80021b94:	e5832034 	str	r2, [r3, #52]	; 0x34
80021b98:	e30d3518 	movw	r3, #54552	; 0xd518
80021b9c:	e348300a 	movt	r3, #32778	; 0x800a
80021ba0:	e5933000 	ldr	r3, [r3]
80021ba4:	e5d33000 	ldrb	r3, [r3]
80021ba8:	e3090454 	movw	r0, #37972	; 0x9454
80021bac:	e3480002 	movt	r0, #32770	; 0x8002
80021bb0:	e1a01003 	mov	r1, r3
80021bb4:	ebffff6c 	bl	8002196c <cprintf>
80021bb8:	e51b0008 	ldr	r0, [fp, #-8]
80021bbc:	ebfffb11 	bl	80020808 <show_callstk>
80021bc0:	e30b3874 	movw	r3, #47220	; 0xb874
80021bc4:	e348300a 	movt	r3, #32778	; 0x800a
80021bc8:	e3a02001 	mov	r2, #1
80021bcc:	e5832000 	str	r2, [r3]
80021bd0:	eafffffe 	b	80021bd0 <panic+0x5c>

80021bd4 <consputc>:
80021bd4:	e92d4800 	push	{fp, lr}
80021bd8:	e28db004 	add	fp, sp, #4
80021bdc:	e24dd008 	sub	sp, sp, #8
80021be0:	e50b0008 	str	r0, [fp, #-8]
80021be4:	e30b3874 	movw	r3, #47220	; 0xb874
80021be8:	e348300a 	movt	r3, #32778	; 0x800a
80021bec:	e5933000 	ldr	r3, [r3]
80021bf0:	e3530000 	cmp	r3, #0
80021bf4:	0a000001 	beq	80021c00 <consputc+0x2c>
80021bf8:	ebfffa4f 	bl	8002053c <cli>
80021bfc:	eafffffe 	b	80021bfc <consputc+0x28>
80021c00:	e51b3008 	ldr	r3, [fp, #-8]
80021c04:	e3530c01 	cmp	r3, #256	; 0x100
80021c08:	1a000006 	bne	80021c28 <consputc+0x54>
80021c0c:	e3a00008 	mov	r0, #8
80021c10:	eb001bf6 	bl	80028bf0 <uartputc>
80021c14:	e3a00020 	mov	r0, #32
80021c18:	eb001bf4 	bl	80028bf0 <uartputc>
80021c1c:	e3a00008 	mov	r0, #8
80021c20:	eb001bf2 	bl	80028bf0 <uartputc>
80021c24:	ea000006 	b	80021c44 <consputc+0x70>
80021c28:	e51b3008 	ldr	r3, [fp, #-8]
80021c2c:	e353000a 	cmp	r3, #10
80021c30:	1a000001 	bne	80021c3c <consputc+0x68>
80021c34:	e3a0000d 	mov	r0, #13
80021c38:	eb001bec 	bl	80028bf0 <uartputc>
80021c3c:	e51b0008 	ldr	r0, [fp, #-8]
80021c40:	eb001bea 	bl	80028bf0 <uartputc>
80021c44:	e24bd004 	sub	sp, fp, #4
80021c48:	e8bd8800 	pop	{fp, pc}

80021c4c <consoleintr>:
80021c4c:	e92d4800 	push	{fp, lr}
80021c50:	e28db004 	add	fp, sp, #4
80021c54:	e24dd010 	sub	sp, sp, #16
80021c58:	e50b0010 	str	r0, [fp, #-16]
80021c5c:	e30b08b0 	movw	r0, #47280	; 0xb8b0
80021c60:	e348000a 	movt	r0, #32778	; 0x800a
80021c64:	eb0010dd 	bl	80025fe0 <acquire>
80021c68:	ea000080 	b	80021e70 <consoleintr+0x224>
80021c6c:	e51b3008 	ldr	r3, [fp, #-8]
80021c70:	e3530010 	cmp	r3, #16
80021c74:	0a000009 	beq	80021ca0 <consoleintr+0x54>
80021c78:	e3530010 	cmp	r3, #16
80021c7c:	ca000002 	bgt	80021c8c <consoleintr+0x40>
80021c80:	e3530008 	cmp	r3, #8
80021c84:	0a000028 	beq	80021d2c <consoleintr+0xe0>
80021c88:	ea00003a 	b	80021d78 <consoleintr+0x12c>
80021c8c:	e3530015 	cmp	r3, #21
80021c90:	0a00000e 	beq	80021cd0 <consoleintr+0x84>
80021c94:	e353007f 	cmp	r3, #127	; 0x7f
80021c98:	0a000023 	beq	80021d2c <consoleintr+0xe0>
80021c9c:	ea000035 	b	80021d78 <consoleintr+0x12c>
80021ca0:	eb001077 	bl	80025e84 <procdump>
80021ca4:	ea000071 	b	80021e70 <consoleintr+0x224>
80021ca8:	e30b38b0 	movw	r3, #47280	; 0xb8b0
80021cac:	e348300a 	movt	r3, #32778	; 0x800a
80021cb0:	e593323c 	ldr	r3, [r3, #572]	; 0x23c
80021cb4:	e2432001 	sub	r2, r3, #1
80021cb8:	e30b38b0 	movw	r3, #47280	; 0xb8b0
80021cbc:	e348300a 	movt	r3, #32778	; 0x800a
80021cc0:	e583223c 	str	r2, [r3, #572]	; 0x23c
80021cc4:	e3a00c01 	mov	r0, #256	; 0x100
80021cc8:	ebffffc1 	bl	80021bd4 <consputc>
80021ccc:	ea000000 	b	80021cd4 <consoleintr+0x88>
80021cd0:	e1a00000 	nop			; (mov r0, r0)
80021cd4:	e30b38b0 	movw	r3, #47280	; 0xb8b0
80021cd8:	e348300a 	movt	r3, #32778	; 0x800a
80021cdc:	e593223c 	ldr	r2, [r3, #572]	; 0x23c
80021ce0:	e30b38b0 	movw	r3, #47280	; 0xb8b0
80021ce4:	e348300a 	movt	r3, #32778	; 0x800a
80021ce8:	e5933238 	ldr	r3, [r3, #568]	; 0x238
80021cec:	e1520003 	cmp	r2, r3
80021cf0:	0a00000c 	beq	80021d28 <consoleintr+0xdc>
80021cf4:	e30b38b0 	movw	r3, #47280	; 0xb8b0
80021cf8:	e348300a 	movt	r3, #32778	; 0x800a
80021cfc:	e593323c 	ldr	r3, [r3, #572]	; 0x23c
80021d00:	e2433001 	sub	r3, r3, #1
80021d04:	e7e81053 	ubfx	r1, r3, #0, #9
80021d08:	e30b38b0 	movw	r3, #47280	; 0xb8b0
80021d0c:	e348300a 	movt	r3, #32778	; 0x800a
80021d10:	e3a02030 	mov	r2, #48	; 0x30
80021d14:	e0833001 	add	r3, r3, r1
80021d18:	e0833002 	add	r3, r3, r2
80021d1c:	e5d33004 	ldrb	r3, [r3, #4]
80021d20:	e353000a 	cmp	r3, #10
80021d24:	1affffdf 	bne	80021ca8 <consoleintr+0x5c>
80021d28:	ea000050 	b	80021e70 <consoleintr+0x224>
80021d2c:	e30b38b0 	movw	r3, #47280	; 0xb8b0
80021d30:	e348300a 	movt	r3, #32778	; 0x800a
80021d34:	e593223c 	ldr	r2, [r3, #572]	; 0x23c
80021d38:	e30b38b0 	movw	r3, #47280	; 0xb8b0
80021d3c:	e348300a 	movt	r3, #32778	; 0x800a
80021d40:	e5933238 	ldr	r3, [r3, #568]	; 0x238
80021d44:	e1520003 	cmp	r2, r3
80021d48:	0a000009 	beq	80021d74 <consoleintr+0x128>
80021d4c:	e30b38b0 	movw	r3, #47280	; 0xb8b0
80021d50:	e348300a 	movt	r3, #32778	; 0x800a
80021d54:	e593323c 	ldr	r3, [r3, #572]	; 0x23c
80021d58:	e2432001 	sub	r2, r3, #1
80021d5c:	e30b38b0 	movw	r3, #47280	; 0xb8b0
80021d60:	e348300a 	movt	r3, #32778	; 0x800a
80021d64:	e583223c 	str	r2, [r3, #572]	; 0x23c
80021d68:	e3a00c01 	mov	r0, #256	; 0x100
80021d6c:	ebffff98 	bl	80021bd4 <consputc>
80021d70:	ea00003e 	b	80021e70 <consoleintr+0x224>
80021d74:	ea00003d 	b	80021e70 <consoleintr+0x224>
80021d78:	e51b3008 	ldr	r3, [fp, #-8]
80021d7c:	e3530000 	cmp	r3, #0
80021d80:	0a000039 	beq	80021e6c <consoleintr+0x220>
80021d84:	e30b38b0 	movw	r3, #47280	; 0xb8b0
80021d88:	e348300a 	movt	r3, #32778	; 0x800a
80021d8c:	e593223c 	ldr	r2, [r3, #572]	; 0x23c
80021d90:	e30b38b0 	movw	r3, #47280	; 0xb8b0
80021d94:	e348300a 	movt	r3, #32778	; 0x800a
80021d98:	e5933234 	ldr	r3, [r3, #564]	; 0x234
80021d9c:	e0633002 	rsb	r3, r3, r2
80021da0:	e3530c02 	cmp	r3, #512	; 0x200
80021da4:	2a000030 	bcs	80021e6c <consoleintr+0x220>
80021da8:	e51b3008 	ldr	r3, [fp, #-8]
80021dac:	e353000d 	cmp	r3, #13
80021db0:	0a000001 	beq	80021dbc <consoleintr+0x170>
80021db4:	e51b3008 	ldr	r3, [fp, #-8]
80021db8:	ea000000 	b	80021dc0 <consoleintr+0x174>
80021dbc:	e3a0300a 	mov	r3, #10
80021dc0:	e50b3008 	str	r3, [fp, #-8]
80021dc4:	e30b38b0 	movw	r3, #47280	; 0xb8b0
80021dc8:	e348300a 	movt	r3, #32778	; 0x800a
80021dcc:	e593223c 	ldr	r2, [r3, #572]	; 0x23c
80021dd0:	e2821001 	add	r1, r2, #1
80021dd4:	e30b38b0 	movw	r3, #47280	; 0xb8b0
80021dd8:	e348300a 	movt	r3, #32778	; 0x800a
80021ddc:	e583123c 	str	r1, [r3, #572]	; 0x23c
80021de0:	e7e80052 	ubfx	r0, r2, #0, #9
80021de4:	e51b3008 	ldr	r3, [fp, #-8]
80021de8:	e6ef2073 	uxtb	r2, r3
80021dec:	e30b38b0 	movw	r3, #47280	; 0xb8b0
80021df0:	e348300a 	movt	r3, #32778	; 0x800a
80021df4:	e3a01030 	mov	r1, #48	; 0x30
80021df8:	e0833000 	add	r3, r3, r0
80021dfc:	e0833001 	add	r3, r3, r1
80021e00:	e5c32004 	strb	r2, [r3, #4]
80021e04:	e51b0008 	ldr	r0, [fp, #-8]
80021e08:	ebffff71 	bl	80021bd4 <consputc>
80021e0c:	e51b3008 	ldr	r3, [fp, #-8]
80021e10:	e353000a 	cmp	r3, #10
80021e14:	0a00000b 	beq	80021e48 <consoleintr+0x1fc>
80021e18:	e51b3008 	ldr	r3, [fp, #-8]
80021e1c:	e3530004 	cmp	r3, #4
80021e20:	0a000008 	beq	80021e48 <consoleintr+0x1fc>
80021e24:	e30b38b0 	movw	r3, #47280	; 0xb8b0
80021e28:	e348300a 	movt	r3, #32778	; 0x800a
80021e2c:	e593223c 	ldr	r2, [r3, #572]	; 0x23c
80021e30:	e30b38b0 	movw	r3, #47280	; 0xb8b0
80021e34:	e348300a 	movt	r3, #32778	; 0x800a
80021e38:	e5933234 	ldr	r3, [r3, #564]	; 0x234
80021e3c:	e2833c02 	add	r3, r3, #512	; 0x200
80021e40:	e1520003 	cmp	r2, r3
80021e44:	1a000008 	bne	80021e6c <consoleintr+0x220>
80021e48:	e30b38b0 	movw	r3, #47280	; 0xb8b0
80021e4c:	e348300a 	movt	r3, #32778	; 0x800a
80021e50:	e593223c 	ldr	r2, [r3, #572]	; 0x23c
80021e54:	e30b38b0 	movw	r3, #47280	; 0xb8b0
80021e58:	e348300a 	movt	r3, #32778	; 0x800a
80021e5c:	e5832238 	str	r2, [r3, #568]	; 0x238
80021e60:	e59f0034 	ldr	r0, [pc, #52]	; 80021e9c <consoleintr+0x250>
80021e64:	eb000fca 	bl	80025d94 <wakeup>
80021e68:	eaffffff 	b	80021e6c <consoleintr+0x220>
80021e6c:	e1a00000 	nop			; (mov r0, r0)
80021e70:	e51b3010 	ldr	r3, [fp, #-16]
80021e74:	e12fff33 	blx	r3
80021e78:	e50b0008 	str	r0, [fp, #-8]
80021e7c:	e51b3008 	ldr	r3, [fp, #-8]
80021e80:	e3530000 	cmp	r3, #0
80021e84:	aaffff78 	bge	80021c6c <consoleintr+0x20>
80021e88:	e30b08b0 	movw	r0, #47280	; 0xb8b0
80021e8c:	e348000a 	movt	r0, #32778	; 0x800a
80021e90:	eb00105c 	bl	80026008 <release>
80021e94:	e24bd004 	sub	sp, fp, #4
80021e98:	e8bd8800 	pop	{fp, pc}
80021e9c:	800abae4 	.word	0x800abae4

80021ea0 <consoleread>:
80021ea0:	e92d4800 	push	{fp, lr}
80021ea4:	e28db004 	add	fp, sp, #4
80021ea8:	e24dd018 	sub	sp, sp, #24
80021eac:	e50b0010 	str	r0, [fp, #-16]
80021eb0:	e50b1014 	str	r1, [fp, #-20]	; 0xffffffec
80021eb4:	e50b2018 	str	r2, [fp, #-24]	; 0xffffffe8
80021eb8:	e51b0010 	ldr	r0, [fp, #-16]
80021ebc:	eb000558 	bl	80023424 <iunlock>
80021ec0:	e51b3018 	ldr	r3, [fp, #-24]	; 0xffffffe8
80021ec4:	e50b3008 	str	r3, [fp, #-8]
80021ec8:	e30b08b0 	movw	r0, #47280	; 0xb8b0
80021ecc:	e348000a 	movt	r0, #32778	; 0x800a
80021ed0:	eb001042 	bl	80025fe0 <acquire>
80021ed4:	ea000045 	b	80021ff0 <consoleread+0x150>
80021ed8:	ea000010 	b	80021f20 <consoleread+0x80>
80021edc:	e30d3608 	movw	r3, #54792	; 0xd608
80021ee0:	e348300a 	movt	r3, #32778	; 0x800a
80021ee4:	e5933000 	ldr	r3, [r3]
80021ee8:	e5933024 	ldr	r3, [r3, #36]	; 0x24
80021eec:	e3530000 	cmp	r3, #0
80021ef0:	0a000006 	beq	80021f10 <consoleread+0x70>
80021ef4:	e30b08b0 	movw	r0, #47280	; 0xb8b0
80021ef8:	e348000a 	movt	r0, #32778	; 0x800a
80021efc:	eb001041 	bl	80026008 <release>
80021f00:	e51b0010 	ldr	r0, [fp, #-16]
80021f04:	eb0004e0 	bl	8002328c <ilock>
80021f08:	e3e03000 	mvn	r3, #0
80021f0c:	ea000042 	b	8002201c <consoleread+0x17c>
80021f10:	e59f0110 	ldr	r0, [pc, #272]	; 80022028 <consoleread+0x188>
80021f14:	e30b18b0 	movw	r1, #47280	; 0xb8b0
80021f18:	e348100a 	movt	r1, #32778	; 0x800a
80021f1c:	eb000f44 	bl	80025c34 <sleep>
80021f20:	e30b38b0 	movw	r3, #47280	; 0xb8b0
80021f24:	e348300a 	movt	r3, #32778	; 0x800a
80021f28:	e5932234 	ldr	r2, [r3, #564]	; 0x234
80021f2c:	e30b38b0 	movw	r3, #47280	; 0xb8b0
80021f30:	e348300a 	movt	r3, #32778	; 0x800a
80021f34:	e5933238 	ldr	r3, [r3, #568]	; 0x238
80021f38:	e1520003 	cmp	r2, r3
80021f3c:	0affffe6 	beq	80021edc <consoleread+0x3c>
80021f40:	e30b38b0 	movw	r3, #47280	; 0xb8b0
80021f44:	e348300a 	movt	r3, #32778	; 0x800a
80021f48:	e5932234 	ldr	r2, [r3, #564]	; 0x234
80021f4c:	e2821001 	add	r1, r2, #1
80021f50:	e30b38b0 	movw	r3, #47280	; 0xb8b0
80021f54:	e348300a 	movt	r3, #32778	; 0x800a
80021f58:	e5831234 	str	r1, [r3, #564]	; 0x234
80021f5c:	e7e81052 	ubfx	r1, r2, #0, #9
80021f60:	e30b38b0 	movw	r3, #47280	; 0xb8b0
80021f64:	e348300a 	movt	r3, #32778	; 0x800a
80021f68:	e3a02030 	mov	r2, #48	; 0x30
80021f6c:	e0833001 	add	r3, r3, r1
80021f70:	e0833002 	add	r3, r3, r2
80021f74:	e5d33004 	ldrb	r3, [r3, #4]
80021f78:	e50b300c 	str	r3, [fp, #-12]
80021f7c:	e51b300c 	ldr	r3, [fp, #-12]
80021f80:	e3530004 	cmp	r3, #4
80021f84:	1a00000c 	bne	80021fbc <consoleread+0x11c>
80021f88:	e51b2018 	ldr	r2, [fp, #-24]	; 0xffffffe8
80021f8c:	e51b3008 	ldr	r3, [fp, #-8]
80021f90:	e1520003 	cmp	r2, r3
80021f94:	2a000007 	bcs	80021fb8 <consoleread+0x118>
80021f98:	e30b38b0 	movw	r3, #47280	; 0xb8b0
80021f9c:	e348300a 	movt	r3, #32778	; 0x800a
80021fa0:	e5933234 	ldr	r3, [r3, #564]	; 0x234
80021fa4:	e2432001 	sub	r2, r3, #1
80021fa8:	e30b38b0 	movw	r3, #47280	; 0xb8b0
80021fac:	e348300a 	movt	r3, #32778	; 0x800a
80021fb0:	e5832234 	str	r2, [r3, #564]	; 0x234
80021fb4:	ea000010 	b	80021ffc <consoleread+0x15c>
80021fb8:	ea00000f 	b	80021ffc <consoleread+0x15c>
80021fbc:	e51b3014 	ldr	r3, [fp, #-20]	; 0xffffffec
80021fc0:	e2832001 	add	r2, r3, #1
80021fc4:	e50b2014 	str	r2, [fp, #-20]	; 0xffffffec
80021fc8:	e51b200c 	ldr	r2, [fp, #-12]
80021fcc:	e6ef2072 	uxtb	r2, r2
80021fd0:	e5c32000 	strb	r2, [r3]
80021fd4:	e51b3018 	ldr	r3, [fp, #-24]	; 0xffffffe8
80021fd8:	e2433001 	sub	r3, r3, #1
80021fdc:	e50b3018 	str	r3, [fp, #-24]	; 0xffffffe8
80021fe0:	e51b300c 	ldr	r3, [fp, #-12]
80021fe4:	e353000a 	cmp	r3, #10
80021fe8:	1a000000 	bne	80021ff0 <consoleread+0x150>
80021fec:	ea000002 	b	80021ffc <consoleread+0x15c>
80021ff0:	e51b3018 	ldr	r3, [fp, #-24]	; 0xffffffe8
80021ff4:	e3530000 	cmp	r3, #0
80021ff8:	caffffb6 	bgt	80021ed8 <consoleread+0x38>
80021ffc:	e30b08b0 	movw	r0, #47280	; 0xb8b0
80022000:	e348000a 	movt	r0, #32778	; 0x800a
80022004:	eb000fff 	bl	80026008 <release>
80022008:	e51b0010 	ldr	r0, [fp, #-16]
8002200c:	eb00049e 	bl	8002328c <ilock>
80022010:	e51b3018 	ldr	r3, [fp, #-24]	; 0xffffffe8
80022014:	e51b2008 	ldr	r2, [fp, #-8]
80022018:	e0633002 	rsb	r3, r3, r2
8002201c:	e1a00003 	mov	r0, r3
80022020:	e24bd004 	sub	sp, fp, #4
80022024:	e8bd8800 	pop	{fp, pc}
80022028:	800abae4 	.word	0x800abae4

8002202c <consolewrite>:
8002202c:	e92d4800 	push	{fp, lr}
80022030:	e28db004 	add	fp, sp, #4
80022034:	e24dd018 	sub	sp, sp, #24
80022038:	e50b0010 	str	r0, [fp, #-16]
8002203c:	e50b1014 	str	r1, [fp, #-20]	; 0xffffffec
80022040:	e50b2018 	str	r2, [fp, #-24]	; 0xffffffe8
80022044:	e51b0010 	ldr	r0, [fp, #-16]
80022048:	eb0004f5 	bl	80023424 <iunlock>
8002204c:	e30b0878 	movw	r0, #47224	; 0xb878
80022050:	e348000a 	movt	r0, #32778	; 0x800a
80022054:	eb000fe1 	bl	80025fe0 <acquire>
80022058:	e3a03000 	mov	r3, #0
8002205c:	e50b3008 	str	r3, [fp, #-8]
80022060:	ea000008 	b	80022088 <consolewrite+0x5c>
80022064:	e51b3008 	ldr	r3, [fp, #-8]
80022068:	e51b2014 	ldr	r2, [fp, #-20]	; 0xffffffec
8002206c:	e0823003 	add	r3, r2, r3
80022070:	e5d33000 	ldrb	r3, [r3]
80022074:	e1a00003 	mov	r0, r3
80022078:	ebfffed5 	bl	80021bd4 <consputc>
8002207c:	e51b3008 	ldr	r3, [fp, #-8]
80022080:	e2833001 	add	r3, r3, #1
80022084:	e50b3008 	str	r3, [fp, #-8]
80022088:	e51b2008 	ldr	r2, [fp, #-8]
8002208c:	e51b3018 	ldr	r3, [fp, #-24]	; 0xffffffe8
80022090:	e1520003 	cmp	r2, r3
80022094:	bafffff2 	blt	80022064 <consolewrite+0x38>
80022098:	e30b0878 	movw	r0, #47224	; 0xb878
8002209c:	e348000a 	movt	r0, #32778	; 0x800a
800220a0:	eb000fd8 	bl	80026008 <release>
800220a4:	e51b0010 	ldr	r0, [fp, #-16]
800220a8:	eb000477 	bl	8002328c <ilock>
800220ac:	e51b3018 	ldr	r3, [fp, #-24]	; 0xffffffe8
800220b0:	e1a00003 	mov	r0, r3
800220b4:	e24bd004 	sub	sp, fp, #4
800220b8:	e8bd8800 	pop	{fp, pc}

800220bc <consoleinit>:
800220bc:	e92d4800 	push	{fp, lr}
800220c0:	e28db004 	add	fp, sp, #4
800220c4:	e30b0878 	movw	r0, #47224	; 0xb878
800220c8:	e348000a 	movt	r0, #32778	; 0x800a
800220cc:	e3091464 	movw	r1, #37988	; 0x9464
800220d0:	e3481002 	movt	r1, #32770	; 0x8002
800220d4:	eb000fb0 	bl	80025f9c <initlock>
800220d8:	e30b08b0 	movw	r0, #47280	; 0xb8b0
800220dc:	e348000a 	movt	r0, #32778	; 0x800a
800220e0:	e309146c 	movw	r1, #37996	; 0x946c
800220e4:	e3481002 	movt	r1, #32770	; 0x8002
800220e8:	eb000fab 	bl	80025f9c <initlock>
800220ec:	e30c3484 	movw	r3, #50308	; 0xc484
800220f0:	e348300a 	movt	r3, #32778	; 0x800a
800220f4:	e302202c 	movw	r2, #8236	; 0x202c
800220f8:	e3482002 	movt	r2, #32770	; 0x8002
800220fc:	e583200c 	str	r2, [r3, #12]
80022100:	e30c3484 	movw	r3, #50308	; 0xc484
80022104:	e348300a 	movt	r3, #32778	; 0x800a
80022108:	e3012ea0 	movw	r2, #7840	; 0x1ea0
8002210c:	e3482002 	movt	r2, #32770	; 0x8002
80022110:	e5832008 	str	r2, [r3, #8]
80022114:	e30b3878 	movw	r3, #47224	; 0xb878
80022118:	e348300a 	movt	r3, #32778	; 0x800a
8002211c:	e3a02001 	mov	r2, #1
80022120:	e5832034 	str	r2, [r3, #52]	; 0x34
80022124:	e8bd8800 	pop	{fp, pc}

80022128 <exec>:
80022128:	e92d4810 	push	{r4, fp, lr}
8002212c:	e28db008 	add	fp, sp, #8
80022130:	e24ddf49 	sub	sp, sp, #292	; 0x124
80022134:	e50b0120 	str	r0, [fp, #-288]	; 0xfffffee0
80022138:	e50b1124 	str	r1, [fp, #-292]	; 0xfffffedc
8002213c:	e51b0120 	ldr	r0, [fp, #-288]	; 0xfffffee0
80022140:	eb00083f 	bl	80024244 <namei>
80022144:	e50b0010 	str	r0, [fp, #-16]
80022148:	e51b3010 	ldr	r3, [fp, #-16]
8002214c:	e3530000 	cmp	r3, #0
80022150:	1a000001 	bne	8002215c <exec+0x34>
80022154:	e3e03000 	mvn	r3, #0
80022158:	ea000127 	b	800225fc <exec+0x4d4>
8002215c:	e51b0010 	ldr	r0, [fp, #-16]
80022160:	eb000449 	bl	8002328c <ilock>
80022164:	e24b3068 	sub	r3, fp, #104	; 0x68
80022168:	e51b0010 	ldr	r0, [fp, #-16]
8002216c:	e1a01003 	mov	r1, r3
80022170:	e3a02000 	mov	r2, #0
80022174:	e3a03034 	mov	r3, #52	; 0x34
80022178:	eb0005fc 	bl	80023970 <readi>
8002217c:	e1a03000 	mov	r3, r0
80022180:	e3530033 	cmp	r3, #51	; 0x33
80022184:	8a000000 	bhi	8002218c <exec+0x64>
80022188:	ea000110 	b	800225d0 <exec+0x4a8>
8002218c:	e51b2068 	ldr	r2, [fp, #-104]	; 0xffffff98
80022190:	e304357f 	movw	r3, #17791	; 0x457f
80022194:	e344364c 	movt	r3, #17996	; 0x464c
80022198:	e1520003 	cmp	r2, r3
8002219c:	0a000000 	beq	800221a4 <exec+0x7c>
800221a0:	ea00010a 	b	800225d0 <exec+0x4a8>
800221a4:	e3a03000 	mov	r3, #0
800221a8:	e50b3014 	str	r3, [fp, #-20]	; 0xffffffec
800221ac:	eb001780 	bl	80027fb4 <kpt_alloc>
800221b0:	e50b0014 	str	r0, [fp, #-20]	; 0xffffffec
800221b4:	e51b3014 	ldr	r3, [fp, #-20]	; 0xffffffec
800221b8:	e3530000 	cmp	r3, #0
800221bc:	1a000000 	bne	800221c4 <exec+0x9c>
800221c0:	ea000102 	b	800225d0 <exec+0x4a8>
800221c4:	e3a03000 	mov	r3, #0
800221c8:	e50b302c 	str	r3, [fp, #-44]	; 0xffffffd4
800221cc:	e3a03000 	mov	r3, #0
800221d0:	e50b3020 	str	r3, [fp, #-32]	; 0xffffffe0
800221d4:	e51b304c 	ldr	r3, [fp, #-76]	; 0xffffffb4
800221d8:	e50b3024 	str	r3, [fp, #-36]	; 0xffffffdc
800221dc:	ea000033 	b	800222b0 <exec+0x188>
800221e0:	e51b3024 	ldr	r3, [fp, #-36]	; 0xffffffdc
800221e4:	e24b2088 	sub	r2, fp, #136	; 0x88
800221e8:	e51b0010 	ldr	r0, [fp, #-16]
800221ec:	e1a01002 	mov	r1, r2
800221f0:	e1a02003 	mov	r2, r3
800221f4:	e3a03020 	mov	r3, #32
800221f8:	eb0005dc 	bl	80023970 <readi>
800221fc:	e1a03000 	mov	r3, r0
80022200:	e3530020 	cmp	r3, #32
80022204:	0a000000 	beq	8002220c <exec+0xe4>
80022208:	ea0000f0 	b	800225d0 <exec+0x4a8>
8002220c:	e51b3088 	ldr	r3, [fp, #-136]	; 0xffffff78
80022210:	e3530001 	cmp	r3, #1
80022214:	0a000000 	beq	8002221c <exec+0xf4>
80022218:	ea00001e 	b	80022298 <exec+0x170>
8002221c:	e51b2074 	ldr	r2, [fp, #-116]	; 0xffffff8c
80022220:	e51b3078 	ldr	r3, [fp, #-120]	; 0xffffff88
80022224:	e1520003 	cmp	r2, r3
80022228:	2a000000 	bcs	80022230 <exec+0x108>
8002222c:	ea0000e7 	b	800225d0 <exec+0x4a8>
80022230:	e51b2080 	ldr	r2, [fp, #-128]	; 0xffffff80
80022234:	e51b3074 	ldr	r3, [fp, #-116]	; 0xffffff8c
80022238:	e0823003 	add	r3, r2, r3
8002223c:	e51b0014 	ldr	r0, [fp, #-20]	; 0xffffffec
80022240:	e51b102c 	ldr	r1, [fp, #-44]	; 0xffffffd4
80022244:	e1a02003 	mov	r2, r3
80022248:	eb001886 	bl	80028468 <allocuvm>
8002224c:	e1a03000 	mov	r3, r0
80022250:	e50b302c 	str	r3, [fp, #-44]	; 0xffffffd4
80022254:	e51b302c 	ldr	r3, [fp, #-44]	; 0xffffffd4
80022258:	e3530000 	cmp	r3, #0
8002225c:	1a000000 	bne	80022264 <exec+0x13c>
80022260:	ea0000da 	b	800225d0 <exec+0x4a8>
80022264:	e51b3080 	ldr	r3, [fp, #-128]	; 0xffffff80
80022268:	e1a02003 	mov	r2, r3
8002226c:	e51b3084 	ldr	r3, [fp, #-132]	; 0xffffff7c
80022270:	e51b1078 	ldr	r1, [fp, #-120]	; 0xffffff88
80022274:	e58d1000 	str	r1, [sp]
80022278:	e51b0014 	ldr	r0, [fp, #-20]	; 0xffffffec
8002227c:	e1a01002 	mov	r1, r2
80022280:	e51b2010 	ldr	r2, [fp, #-16]
80022284:	eb00182a 	bl	80028334 <loaduvm>
80022288:	e1a03000 	mov	r3, r0
8002228c:	e3530000 	cmp	r3, #0
80022290:	aa000000 	bge	80022298 <exec+0x170>
80022294:	ea0000cd 	b	800225d0 <exec+0x4a8>
80022298:	e51b3020 	ldr	r3, [fp, #-32]	; 0xffffffe0
8002229c:	e2833001 	add	r3, r3, #1
800222a0:	e50b3020 	str	r3, [fp, #-32]	; 0xffffffe0
800222a4:	e51b3024 	ldr	r3, [fp, #-36]	; 0xffffffdc
800222a8:	e2833020 	add	r3, r3, #32
800222ac:	e50b3024 	str	r3, [fp, #-36]	; 0xffffffdc
800222b0:	e15b33bc 	ldrh	r3, [fp, #-60]	; 0xffffffc4
800222b4:	e1a02003 	mov	r2, r3
800222b8:	e51b3020 	ldr	r3, [fp, #-32]	; 0xffffffe0
800222bc:	e1520003 	cmp	r2, r3
800222c0:	caffffc6 	bgt	800221e0 <exec+0xb8>
800222c4:	e51b0010 	ldr	r0, [fp, #-16]
800222c8:	eb0004b4 	bl	800235a0 <iunlockput>
800222cc:	e3a03000 	mov	r3, #0
800222d0:	e50b3010 	str	r3, [fp, #-16]
800222d4:	e51b302c 	ldr	r3, [fp, #-44]	; 0xffffffd4
800222d8:	e2833eff 	add	r3, r3, #4080	; 0xff0
800222dc:	e283300f 	add	r3, r3, #15
800222e0:	e3c33eff 	bic	r3, r3, #4080	; 0xff0
800222e4:	e3c3300f 	bic	r3, r3, #15
800222e8:	e50b302c 	str	r3, [fp, #-44]	; 0xffffffd4
800222ec:	e51b302c 	ldr	r3, [fp, #-44]	; 0xffffffd4
800222f0:	e2833a02 	add	r3, r3, #8192	; 0x2000
800222f4:	e51b0014 	ldr	r0, [fp, #-20]	; 0xffffffec
800222f8:	e51b102c 	ldr	r1, [fp, #-44]	; 0xffffffd4
800222fc:	e1a02003 	mov	r2, r3
80022300:	eb001858 	bl	80028468 <allocuvm>
80022304:	e1a03000 	mov	r3, r0
80022308:	e50b302c 	str	r3, [fp, #-44]	; 0xffffffd4
8002230c:	e51b302c 	ldr	r3, [fp, #-44]	; 0xffffffd4
80022310:	e3530000 	cmp	r3, #0
80022314:	1a000000 	bne	8002231c <exec+0x1f4>
80022318:	ea0000ac 	b	800225d0 <exec+0x4a8>
8002231c:	e51b302c 	ldr	r3, [fp, #-44]	; 0xffffffd4
80022320:	e2433a02 	sub	r3, r3, #8192	; 0x2000
80022324:	e51b0014 	ldr	r0, [fp, #-20]	; 0xffffffec
80022328:	e1a01003 	mov	r1, r3
8002232c:	eb001901 	bl	80028738 <clearpteu>
80022330:	e51b302c 	ldr	r3, [fp, #-44]	; 0xffffffd4
80022334:	e50b3030 	str	r3, [fp, #-48]	; 0xffffffd0
80022338:	e3a03000 	mov	r3, #0
8002233c:	e50b3028 	str	r3, [fp, #-40]	; 0xffffffd8
80022340:	ea000032 	b	80022410 <exec+0x2e8>
80022344:	e51b3028 	ldr	r3, [fp, #-40]	; 0xffffffd8
80022348:	e353001f 	cmp	r3, #31
8002234c:	9a000000 	bls	80022354 <exec+0x22c>
80022350:	ea00009e 	b	800225d0 <exec+0x4a8>
80022354:	e51b3028 	ldr	r3, [fp, #-40]	; 0xffffffd8
80022358:	e1a03103 	lsl	r3, r3, #2
8002235c:	e51b2124 	ldr	r2, [fp, #-292]	; 0xfffffedc
80022360:	e0823003 	add	r3, r2, r3
80022364:	e5933000 	ldr	r3, [r3]
80022368:	e1a00003 	mov	r0, r3
8002236c:	ebfff85d 	bl	800204e8 <strlen>
80022370:	e1a03000 	mov	r3, r0
80022374:	e51b2030 	ldr	r2, [fp, #-48]	; 0xffffffd0
80022378:	e0633002 	rsb	r3, r3, r2
8002237c:	e2433001 	sub	r3, r3, #1
80022380:	e3c33003 	bic	r3, r3, #3
80022384:	e50b3030 	str	r3, [fp, #-48]	; 0xffffffd0
80022388:	e51b3028 	ldr	r3, [fp, #-40]	; 0xffffffd8
8002238c:	e1a03103 	lsl	r3, r3, #2
80022390:	e51b2124 	ldr	r2, [fp, #-292]	; 0xfffffedc
80022394:	e0823003 	add	r3, r2, r3
80022398:	e5934000 	ldr	r4, [r3]
8002239c:	e51b3028 	ldr	r3, [fp, #-40]	; 0xffffffd8
800223a0:	e1a03103 	lsl	r3, r3, #2
800223a4:	e51b2124 	ldr	r2, [fp, #-292]	; 0xfffffedc
800223a8:	e0823003 	add	r3, r2, r3
800223ac:	e5933000 	ldr	r3, [r3]
800223b0:	e1a00003 	mov	r0, r3
800223b4:	ebfff84b 	bl	800204e8 <strlen>
800223b8:	e1a03000 	mov	r3, r0
800223bc:	e2833001 	add	r3, r3, #1
800223c0:	e51b0014 	ldr	r0, [fp, #-20]	; 0xffffffec
800223c4:	e51b1030 	ldr	r1, [fp, #-48]	; 0xffffffd0
800223c8:	e1a02004 	mov	r2, r4
800223cc:	eb00196b 	bl	80028980 <copyout>
800223d0:	e1a03000 	mov	r3, r0
800223d4:	e3530000 	cmp	r3, #0
800223d8:	aa000000 	bge	800223e0 <exec+0x2b8>
800223dc:	ea00007b 	b	800225d0 <exec+0x4a8>
800223e0:	e51b2028 	ldr	r2, [fp, #-40]	; 0xffffffd8
800223e4:	e30f3ef4 	movw	r3, #65268	; 0xfef4
800223e8:	e34f3fff 	movt	r3, #65535	; 0xffff
800223ec:	e1a02102 	lsl	r2, r2, #2
800223f0:	e24b100c 	sub	r1, fp, #12
800223f4:	e0812002 	add	r2, r1, r2
800223f8:	e0823003 	add	r3, r2, r3
800223fc:	e51b2030 	ldr	r2, [fp, #-48]	; 0xffffffd0
80022400:	e5832000 	str	r2, [r3]
80022404:	e51b3028 	ldr	r3, [fp, #-40]	; 0xffffffd8
80022408:	e2833001 	add	r3, r3, #1
8002240c:	e50b3028 	str	r3, [fp, #-40]	; 0xffffffd8
80022410:	e51b3028 	ldr	r3, [fp, #-40]	; 0xffffffd8
80022414:	e1a03103 	lsl	r3, r3, #2
80022418:	e51b2124 	ldr	r2, [fp, #-292]	; 0xfffffedc
8002241c:	e0823003 	add	r3, r2, r3
80022420:	e5933000 	ldr	r3, [r3]
80022424:	e3530000 	cmp	r3, #0
80022428:	1affffc5 	bne	80022344 <exec+0x21c>
8002242c:	e51b2028 	ldr	r2, [fp, #-40]	; 0xffffffd8
80022430:	e30f3ef4 	movw	r3, #65268	; 0xfef4
80022434:	e34f3fff 	movt	r3, #65535	; 0xffff
80022438:	e1a02102 	lsl	r2, r2, #2
8002243c:	e24b100c 	sub	r1, fp, #12
80022440:	e0812002 	add	r2, r1, r2
80022444:	e0823003 	add	r3, r2, r3
80022448:	e3a02000 	mov	r2, #0
8002244c:	e5832000 	str	r2, [r3]
80022450:	e30d3608 	movw	r3, #54792	; 0xd608
80022454:	e348300a 	movt	r3, #32778	; 0x800a
80022458:	e5933000 	ldr	r3, [r3]
8002245c:	e5933018 	ldr	r3, [r3, #24]
80022460:	e51b2028 	ldr	r2, [fp, #-40]	; 0xffffffd8
80022464:	e5832010 	str	r2, [r3, #16]
80022468:	e30d3608 	movw	r3, #54792	; 0xd608
8002246c:	e348300a 	movt	r3, #32778	; 0x800a
80022470:	e5933000 	ldr	r3, [r3]
80022474:	e5933018 	ldr	r3, [r3, #24]
80022478:	e51b2028 	ldr	r2, [fp, #-40]	; 0xffffffd8
8002247c:	e2822001 	add	r2, r2, #1
80022480:	e1a02102 	lsl	r2, r2, #2
80022484:	e51b1030 	ldr	r1, [fp, #-48]	; 0xffffffd0
80022488:	e0622001 	rsb	r2, r2, r1
8002248c:	e5832014 	str	r2, [r3, #20]
80022490:	e51b3028 	ldr	r3, [fp, #-40]	; 0xffffffd8
80022494:	e2833001 	add	r3, r3, #1
80022498:	e1a03103 	lsl	r3, r3, #2
8002249c:	e51b2030 	ldr	r2, [fp, #-48]	; 0xffffffd0
800224a0:	e0633002 	rsb	r3, r3, r2
800224a4:	e50b3030 	str	r3, [fp, #-48]	; 0xffffffd0
800224a8:	e51b3028 	ldr	r3, [fp, #-40]	; 0xffffffd8
800224ac:	e2833001 	add	r3, r3, #1
800224b0:	e1a03103 	lsl	r3, r3, #2
800224b4:	e24b2f46 	sub	r2, fp, #280	; 0x118
800224b8:	e51b0014 	ldr	r0, [fp, #-20]	; 0xffffffec
800224bc:	e51b1030 	ldr	r1, [fp, #-48]	; 0xffffffd0
800224c0:	eb00192e 	bl	80028980 <copyout>
800224c4:	e1a03000 	mov	r3, r0
800224c8:	e3530000 	cmp	r3, #0
800224cc:	aa000000 	bge	800224d4 <exec+0x3ac>
800224d0:	ea00003e 	b	800225d0 <exec+0x4a8>
800224d4:	e51b3120 	ldr	r3, [fp, #-288]	; 0xfffffee0
800224d8:	e50b3018 	str	r3, [fp, #-24]	; 0xffffffe8
800224dc:	e51b3018 	ldr	r3, [fp, #-24]	; 0xffffffe8
800224e0:	e50b301c 	str	r3, [fp, #-28]	; 0xffffffe4
800224e4:	ea000009 	b	80022510 <exec+0x3e8>
800224e8:	e51b3018 	ldr	r3, [fp, #-24]	; 0xffffffe8
800224ec:	e5d33000 	ldrb	r3, [r3]
800224f0:	e353002f 	cmp	r3, #47	; 0x2f
800224f4:	1a000002 	bne	80022504 <exec+0x3dc>
800224f8:	e51b3018 	ldr	r3, [fp, #-24]	; 0xffffffe8
800224fc:	e2833001 	add	r3, r3, #1
80022500:	e50b301c 	str	r3, [fp, #-28]	; 0xffffffe4
80022504:	e51b3018 	ldr	r3, [fp, #-24]	; 0xffffffe8
80022508:	e2833001 	add	r3, r3, #1
8002250c:	e50b3018 	str	r3, [fp, #-24]	; 0xffffffe8
80022510:	e51b3018 	ldr	r3, [fp, #-24]	; 0xffffffe8
80022514:	e5d33000 	ldrb	r3, [r3]
80022518:	e3530000 	cmp	r3, #0
8002251c:	1afffff1 	bne	800224e8 <exec+0x3c0>
80022520:	e30d3608 	movw	r3, #54792	; 0xd608
80022524:	e348300a 	movt	r3, #32778	; 0x800a
80022528:	e5933000 	ldr	r3, [r3]
8002252c:	e283306c 	add	r3, r3, #108	; 0x6c
80022530:	e1a00003 	mov	r0, r3
80022534:	e51b101c 	ldr	r1, [fp, #-28]	; 0xffffffe4
80022538:	e3a02010 	mov	r2, #16
8002253c:	ebfff7c3 	bl	80020450 <safestrcpy>
80022540:	e30d3608 	movw	r3, #54792	; 0xd608
80022544:	e348300a 	movt	r3, #32778	; 0x800a
80022548:	e5933000 	ldr	r3, [r3]
8002254c:	e5933004 	ldr	r3, [r3, #4]
80022550:	e50b3034 	str	r3, [fp, #-52]	; 0xffffffcc
80022554:	e30d3608 	movw	r3, #54792	; 0xd608
80022558:	e348300a 	movt	r3, #32778	; 0x800a
8002255c:	e5933000 	ldr	r3, [r3]
80022560:	e51b2014 	ldr	r2, [fp, #-20]	; 0xffffffec
80022564:	e5832004 	str	r2, [r3, #4]
80022568:	e30d3608 	movw	r3, #54792	; 0xd608
8002256c:	e348300a 	movt	r3, #32778	; 0x800a
80022570:	e5933000 	ldr	r3, [r3]
80022574:	e51b202c 	ldr	r2, [fp, #-44]	; 0xffffffd4
80022578:	e5832000 	str	r2, [r3]
8002257c:	e30d3608 	movw	r3, #54792	; 0xd608
80022580:	e348300a 	movt	r3, #32778	; 0x800a
80022584:	e5933000 	ldr	r3, [r3]
80022588:	e5933018 	ldr	r3, [r3, #24]
8002258c:	e51b2050 	ldr	r2, [fp, #-80]	; 0xffffffb0
80022590:	e5832044 	str	r2, [r3, #68]	; 0x44
80022594:	e30d3608 	movw	r3, #54792	; 0xd608
80022598:	e348300a 	movt	r3, #32778	; 0x800a
8002259c:	e5933000 	ldr	r3, [r3]
800225a0:	e5933018 	ldr	r3, [r3, #24]
800225a4:	e51b2030 	ldr	r2, [fp, #-48]	; 0xffffffd0
800225a8:	e5832000 	str	r2, [r3]
800225ac:	e30d3608 	movw	r3, #54792	; 0xd608
800225b0:	e348300a 	movt	r3, #32778	; 0x800a
800225b4:	e5933000 	ldr	r3, [r3]
800225b8:	e1a00003 	mov	r0, r3
800225bc:	eb001725 	bl	80028258 <switchuvm>
800225c0:	e51b0034 	ldr	r0, [fp, #-52]	; 0xffffffcc
800225c4:	eb00182c 	bl	8002867c <freevm>
800225c8:	e3a03000 	mov	r3, #0
800225cc:	ea00000a 	b	800225fc <exec+0x4d4>
800225d0:	e51b3014 	ldr	r3, [fp, #-20]	; 0xffffffec
800225d4:	e3530000 	cmp	r3, #0
800225d8:	0a000001 	beq	800225e4 <exec+0x4bc>
800225dc:	e51b0014 	ldr	r0, [fp, #-20]	; 0xffffffec
800225e0:	eb001825 	bl	8002867c <freevm>
800225e4:	e51b3010 	ldr	r3, [fp, #-16]
800225e8:	e3530000 	cmp	r3, #0
800225ec:	0a000001 	beq	800225f8 <exec+0x4d0>
800225f0:	e51b0010 	ldr	r0, [fp, #-16]
800225f4:	eb0003e9 	bl	800235a0 <iunlockput>
800225f8:	e3e03000 	mvn	r3, #0
800225fc:	e1a00003 	mov	r0, r3
80022600:	e24bd008 	sub	sp, fp, #8
80022604:	e8bd8810 	pop	{r4, fp, pc}

80022608 <fileinit>:
80022608:	e92d4800 	push	{fp, lr}
8002260c:	e28db004 	add	fp, sp, #4
80022610:	e30b0af0 	movw	r0, #47856	; 0xbaf0
80022614:	e348000a 	movt	r0, #32778	; 0x800a
80022618:	e3091474 	movw	r1, #38004	; 0x9474
8002261c:	e3481002 	movt	r1, #32770	; 0x8002
80022620:	eb000e5d 	bl	80025f9c <initlock>
80022624:	e8bd8800 	pop	{fp, pc}

80022628 <filealloc>:
80022628:	e92d4800 	push	{fp, lr}
8002262c:	e28db004 	add	fp, sp, #4
80022630:	e24dd008 	sub	sp, sp, #8
80022634:	e30b0af0 	movw	r0, #47856	; 0xbaf0
80022638:	e348000a 	movt	r0, #32778	; 0x800a
8002263c:	eb000e67 	bl	80025fe0 <acquire>
80022640:	e59f306c 	ldr	r3, [pc, #108]	; 800226b4 <filealloc+0x8c>
80022644:	e50b3008 	str	r3, [fp, #-8]
80022648:	ea00000e 	b	80022688 <filealloc+0x60>
8002264c:	e51b3008 	ldr	r3, [fp, #-8]
80022650:	e5933004 	ldr	r3, [r3, #4]
80022654:	e3530000 	cmp	r3, #0
80022658:	1a000007 	bne	8002267c <filealloc+0x54>
8002265c:	e51b3008 	ldr	r3, [fp, #-8]
80022660:	e3a02001 	mov	r2, #1
80022664:	e5832004 	str	r2, [r3, #4]
80022668:	e30b0af0 	movw	r0, #47856	; 0xbaf0
8002266c:	e348000a 	movt	r0, #32778	; 0x800a
80022670:	eb000e64 	bl	80026008 <release>
80022674:	e51b3008 	ldr	r3, [fp, #-8]
80022678:	ea00000a 	b	800226a8 <filealloc+0x80>
8002267c:	e51b3008 	ldr	r3, [fp, #-8]
80022680:	e2833018 	add	r3, r3, #24
80022684:	e50b3008 	str	r3, [fp, #-8]
80022688:	e51b2008 	ldr	r2, [fp, #-8]
8002268c:	e59f3024 	ldr	r3, [pc, #36]	; 800226b8 <filealloc+0x90>
80022690:	e1520003 	cmp	r2, r3
80022694:	3affffec 	bcc	8002264c <filealloc+0x24>
80022698:	e30b0af0 	movw	r0, #47856	; 0xbaf0
8002269c:	e348000a 	movt	r0, #32778	; 0x800a
800226a0:	eb000e58 	bl	80026008 <release>
800226a4:	e3a03000 	mov	r3, #0
800226a8:	e1a00003 	mov	r0, r3
800226ac:	e24bd004 	sub	sp, fp, #4
800226b0:	e8bd8800 	pop	{fp, pc}
800226b4:	800abb24 	.word	0x800abb24
800226b8:	800ac484 	.word	0x800ac484

800226bc <filedup>:
800226bc:	e92d4800 	push	{fp, lr}
800226c0:	e28db004 	add	fp, sp, #4
800226c4:	e24dd008 	sub	sp, sp, #8
800226c8:	e50b0008 	str	r0, [fp, #-8]
800226cc:	e30b0af0 	movw	r0, #47856	; 0xbaf0
800226d0:	e348000a 	movt	r0, #32778	; 0x800a
800226d4:	eb000e41 	bl	80025fe0 <acquire>
800226d8:	e51b3008 	ldr	r3, [fp, #-8]
800226dc:	e5933004 	ldr	r3, [r3, #4]
800226e0:	e3530000 	cmp	r3, #0
800226e4:	ca000002 	bgt	800226f4 <filedup+0x38>
800226e8:	e309047c 	movw	r0, #38012	; 0x947c
800226ec:	e3480002 	movt	r0, #32770	; 0x8002
800226f0:	ebfffd1f 	bl	80021b74 <panic>
800226f4:	e51b3008 	ldr	r3, [fp, #-8]
800226f8:	e5933004 	ldr	r3, [r3, #4]
800226fc:	e2832001 	add	r2, r3, #1
80022700:	e51b3008 	ldr	r3, [fp, #-8]
80022704:	e5832004 	str	r2, [r3, #4]
80022708:	e30b0af0 	movw	r0, #47856	; 0xbaf0
8002270c:	e348000a 	movt	r0, #32778	; 0x800a
80022710:	eb000e3c 	bl	80026008 <release>
80022714:	e51b3008 	ldr	r3, [fp, #-8]
80022718:	e1a00003 	mov	r0, r3
8002271c:	e24bd004 	sub	sp, fp, #4
80022720:	e8bd8800 	pop	{fp, pc}

80022724 <fileclose>:
80022724:	e92d4800 	push	{fp, lr}
80022728:	e28db004 	add	fp, sp, #4
8002272c:	e24dd020 	sub	sp, sp, #32
80022730:	e50b0020 	str	r0, [fp, #-32]	; 0xffffffe0
80022734:	e30b0af0 	movw	r0, #47856	; 0xbaf0
80022738:	e348000a 	movt	r0, #32778	; 0x800a
8002273c:	eb000e27 	bl	80025fe0 <acquire>
80022740:	e51b3020 	ldr	r3, [fp, #-32]	; 0xffffffe0
80022744:	e5933004 	ldr	r3, [r3, #4]
80022748:	e3530000 	cmp	r3, #0
8002274c:	ca000002 	bgt	8002275c <fileclose+0x38>
80022750:	e3090484 	movw	r0, #38020	; 0x9484
80022754:	e3480002 	movt	r0, #32770	; 0x8002
80022758:	ebfffd05 	bl	80021b74 <panic>
8002275c:	e51b3020 	ldr	r3, [fp, #-32]	; 0xffffffe0
80022760:	e5933004 	ldr	r3, [r3, #4]
80022764:	e2432001 	sub	r2, r3, #1
80022768:	e51b3020 	ldr	r3, [fp, #-32]	; 0xffffffe0
8002276c:	e5832004 	str	r2, [r3, #4]
80022770:	e51b3020 	ldr	r3, [fp, #-32]	; 0xffffffe0
80022774:	e5933004 	ldr	r3, [r3, #4]
80022778:	e3530000 	cmp	r3, #0
8002277c:	da000003 	ble	80022790 <fileclose+0x6c>
80022780:	e30b0af0 	movw	r0, #47856	; 0xbaf0
80022784:	e348000a 	movt	r0, #32778	; 0x800a
80022788:	eb000e1e 	bl	80026008 <release>
8002278c:	ea000020 	b	80022814 <fileclose+0xf0>
80022790:	e51b3020 	ldr	r3, [fp, #-32]	; 0xffffffe0
80022794:	e24bc01c 	sub	ip, fp, #28
80022798:	e1a0e003 	mov	lr, r3
8002279c:	e8be000f 	ldm	lr!, {r0, r1, r2, r3}
800227a0:	e8ac000f 	stmia	ip!, {r0, r1, r2, r3}
800227a4:	e89e0003 	ldm	lr, {r0, r1}
800227a8:	e88c0003 	stm	ip, {r0, r1}
800227ac:	e51b3020 	ldr	r3, [fp, #-32]	; 0xffffffe0
800227b0:	e3a02000 	mov	r2, #0
800227b4:	e5832004 	str	r2, [r3, #4]
800227b8:	e51b3020 	ldr	r3, [fp, #-32]	; 0xffffffe0
800227bc:	e3a02000 	mov	r2, #0
800227c0:	e5c32000 	strb	r2, [r3]
800227c4:	e30b0af0 	movw	r0, #47856	; 0xbaf0
800227c8:	e348000a 	movt	r0, #32778	; 0x800a
800227cc:	eb000e0d 	bl	80026008 <release>
800227d0:	e55b301c 	ldrb	r3, [fp, #-28]	; 0xffffffe4
800227d4:	e3530001 	cmp	r3, #1
800227d8:	1a000005 	bne	800227f4 <fileclose+0xd0>
800227dc:	e51b2010 	ldr	r2, [fp, #-16]
800227e0:	e55b3013 	ldrb	r3, [fp, #-19]	; 0xffffffed
800227e4:	e1a00002 	mov	r0, r2
800227e8:	e1a01003 	mov	r1, r3
800227ec:	eb00096b 	bl	80024da0 <pipeclose>
800227f0:	ea000007 	b	80022814 <fileclose+0xf0>
800227f4:	e55b301c 	ldrb	r3, [fp, #-28]	; 0xffffffe4
800227f8:	e3530002 	cmp	r3, #2
800227fc:	1a000004 	bne	80022814 <fileclose+0xf0>
80022800:	eb00077e 	bl	80024600 <begin_trans>
80022804:	e51b300c 	ldr	r3, [fp, #-12]
80022808:	e1a00003 	mov	r0, r3
8002280c:	eb000326 	bl	800234ac <iput>
80022810:	eb000792 	bl	80024660 <commit_trans>
80022814:	e24bd004 	sub	sp, fp, #4
80022818:	e8bd8800 	pop	{fp, pc}

8002281c <filestat>:
8002281c:	e92d4800 	push	{fp, lr}
80022820:	e28db004 	add	fp, sp, #4
80022824:	e24dd008 	sub	sp, sp, #8
80022828:	e50b0008 	str	r0, [fp, #-8]
8002282c:	e50b100c 	str	r1, [fp, #-12]
80022830:	e51b3008 	ldr	r3, [fp, #-8]
80022834:	e5d33000 	ldrb	r3, [r3]
80022838:	e3530002 	cmp	r3, #2
8002283c:	1a00000e 	bne	8002287c <filestat+0x60>
80022840:	e51b3008 	ldr	r3, [fp, #-8]
80022844:	e5933010 	ldr	r3, [r3, #16]
80022848:	e1a00003 	mov	r0, r3
8002284c:	eb00028e 	bl	8002328c <ilock>
80022850:	e51b3008 	ldr	r3, [fp, #-8]
80022854:	e5933010 	ldr	r3, [r3, #16]
80022858:	e1a00003 	mov	r0, r3
8002285c:	e51b100c 	ldr	r1, [fp, #-12]
80022860:	eb000425 	bl	800238fc <stati>
80022864:	e51b3008 	ldr	r3, [fp, #-8]
80022868:	e5933010 	ldr	r3, [r3, #16]
8002286c:	e1a00003 	mov	r0, r3
80022870:	eb0002eb 	bl	80023424 <iunlock>
80022874:	e3a03000 	mov	r3, #0
80022878:	ea000000 	b	80022880 <filestat+0x64>
8002287c:	e3e03000 	mvn	r3, #0
80022880:	e1a00003 	mov	r0, r3
80022884:	e24bd004 	sub	sp, fp, #4
80022888:	e8bd8800 	pop	{fp, pc}

8002288c <fileread>:
8002288c:	e92d4800 	push	{fp, lr}
80022890:	e28db004 	add	fp, sp, #4
80022894:	e24dd018 	sub	sp, sp, #24
80022898:	e50b0010 	str	r0, [fp, #-16]
8002289c:	e50b1014 	str	r1, [fp, #-20]	; 0xffffffec
800228a0:	e50b2018 	str	r2, [fp, #-24]	; 0xffffffe8
800228a4:	e51b3010 	ldr	r3, [fp, #-16]
800228a8:	e5d33008 	ldrb	r3, [r3, #8]
800228ac:	e3530000 	cmp	r3, #0
800228b0:	1a000001 	bne	800228bc <fileread+0x30>
800228b4:	e3e03000 	mvn	r3, #0
800228b8:	ea00002e 	b	80022978 <fileread+0xec>
800228bc:	e51b3010 	ldr	r3, [fp, #-16]
800228c0:	e5d33000 	ldrb	r3, [r3]
800228c4:	e3530001 	cmp	r3, #1
800228c8:	1a000007 	bne	800228ec <fileread+0x60>
800228cc:	e51b3010 	ldr	r3, [fp, #-16]
800228d0:	e593300c 	ldr	r3, [r3, #12]
800228d4:	e1a00003 	mov	r0, r3
800228d8:	e51b1014 	ldr	r1, [fp, #-20]	; 0xffffffec
800228dc:	e51b2018 	ldr	r2, [fp, #-24]	; 0xffffffe8
800228e0:	eb0009a7 	bl	80024f84 <piperead>
800228e4:	e1a03000 	mov	r3, r0
800228e8:	ea000022 	b	80022978 <fileread+0xec>
800228ec:	e51b3010 	ldr	r3, [fp, #-16]
800228f0:	e5d33000 	ldrb	r3, [r3]
800228f4:	e3530002 	cmp	r3, #2
800228f8:	1a00001b 	bne	8002296c <fileread+0xe0>
800228fc:	e51b3010 	ldr	r3, [fp, #-16]
80022900:	e5933010 	ldr	r3, [r3, #16]
80022904:	e1a00003 	mov	r0, r3
80022908:	eb00025f 	bl	8002328c <ilock>
8002290c:	e51b3010 	ldr	r3, [fp, #-16]
80022910:	e5931010 	ldr	r1, [r3, #16]
80022914:	e51b3010 	ldr	r3, [fp, #-16]
80022918:	e5932014 	ldr	r2, [r3, #20]
8002291c:	e51b3018 	ldr	r3, [fp, #-24]	; 0xffffffe8
80022920:	e1a00001 	mov	r0, r1
80022924:	e51b1014 	ldr	r1, [fp, #-20]	; 0xffffffec
80022928:	eb000410 	bl	80023970 <readi>
8002292c:	e50b0008 	str	r0, [fp, #-8]
80022930:	e51b3008 	ldr	r3, [fp, #-8]
80022934:	e3530000 	cmp	r3, #0
80022938:	da000005 	ble	80022954 <fileread+0xc8>
8002293c:	e51b3010 	ldr	r3, [fp, #-16]
80022940:	e5932014 	ldr	r2, [r3, #20]
80022944:	e51b3008 	ldr	r3, [fp, #-8]
80022948:	e0822003 	add	r2, r2, r3
8002294c:	e51b3010 	ldr	r3, [fp, #-16]
80022950:	e5832014 	str	r2, [r3, #20]
80022954:	e51b3010 	ldr	r3, [fp, #-16]
80022958:	e5933010 	ldr	r3, [r3, #16]
8002295c:	e1a00003 	mov	r0, r3
80022960:	eb0002af 	bl	80023424 <iunlock>
80022964:	e51b3008 	ldr	r3, [fp, #-8]
80022968:	ea000002 	b	80022978 <fileread+0xec>
8002296c:	e3090490 	movw	r0, #38032	; 0x9490
80022970:	e3480002 	movt	r0, #32770	; 0x8002
80022974:	ebfffc7e 	bl	80021b74 <panic>
80022978:	e1a00003 	mov	r0, r3
8002297c:	e24bd004 	sub	sp, fp, #4
80022980:	e8bd8800 	pop	{fp, pc}

80022984 <filewrite>:
80022984:	e92d4800 	push	{fp, lr}
80022988:	e28db004 	add	fp, sp, #4
8002298c:	e24dd020 	sub	sp, sp, #32
80022990:	e50b0018 	str	r0, [fp, #-24]	; 0xffffffe8
80022994:	e50b101c 	str	r1, [fp, #-28]	; 0xffffffe4
80022998:	e50b2020 	str	r2, [fp, #-32]	; 0xffffffe0
8002299c:	e51b3018 	ldr	r3, [fp, #-24]	; 0xffffffe8
800229a0:	e5d33009 	ldrb	r3, [r3, #9]
800229a4:	e3530000 	cmp	r3, #0
800229a8:	1a000001 	bne	800229b4 <filewrite+0x30>
800229ac:	e3e03000 	mvn	r3, #0
800229b0:	ea000059 	b	80022b1c <filewrite+0x198>
800229b4:	e51b3018 	ldr	r3, [fp, #-24]	; 0xffffffe8
800229b8:	e5d33000 	ldrb	r3, [r3]
800229bc:	e3530001 	cmp	r3, #1
800229c0:	1a000007 	bne	800229e4 <filewrite+0x60>
800229c4:	e51b3018 	ldr	r3, [fp, #-24]	; 0xffffffe8
800229c8:	e593300c 	ldr	r3, [r3, #12]
800229cc:	e1a00003 	mov	r0, r3
800229d0:	e51b101c 	ldr	r1, [fp, #-28]	; 0xffffffe4
800229d4:	e51b2020 	ldr	r2, [fp, #-32]	; 0xffffffe0
800229d8:	eb000921 	bl	80024e64 <pipewrite>
800229dc:	e1a03000 	mov	r3, r0
800229e0:	ea00004d 	b	80022b1c <filewrite+0x198>
800229e4:	e51b3018 	ldr	r3, [fp, #-24]	; 0xffffffe8
800229e8:	e5d33000 	ldrb	r3, [r3]
800229ec:	e3530002 	cmp	r3, #2
800229f0:	1a000046 	bne	80022b10 <filewrite+0x18c>
800229f4:	e3a03c06 	mov	r3, #1536	; 0x600
800229f8:	e50b3010 	str	r3, [fp, #-16]
800229fc:	e3a03000 	mov	r3, #0
80022a00:	e50b3008 	str	r3, [fp, #-8]
80022a04:	ea000035 	b	80022ae0 <filewrite+0x15c>
80022a08:	e51b2020 	ldr	r2, [fp, #-32]	; 0xffffffe0
80022a0c:	e51b3008 	ldr	r3, [fp, #-8]
80022a10:	e0633002 	rsb	r3, r3, r2
80022a14:	e50b300c 	str	r3, [fp, #-12]
80022a18:	e51b200c 	ldr	r2, [fp, #-12]
80022a1c:	e51b3010 	ldr	r3, [fp, #-16]
80022a20:	e1520003 	cmp	r2, r3
80022a24:	da000001 	ble	80022a30 <filewrite+0xac>
80022a28:	e51b3010 	ldr	r3, [fp, #-16]
80022a2c:	e50b300c 	str	r3, [fp, #-12]
80022a30:	eb0006f2 	bl	80024600 <begin_trans>
80022a34:	e51b3018 	ldr	r3, [fp, #-24]	; 0xffffffe8
80022a38:	e5933010 	ldr	r3, [r3, #16]
80022a3c:	e1a00003 	mov	r0, r3
80022a40:	eb000211 	bl	8002328c <ilock>
80022a44:	e51b3018 	ldr	r3, [fp, #-24]	; 0xffffffe8
80022a48:	e5930010 	ldr	r0, [r3, #16]
80022a4c:	e51b3008 	ldr	r3, [fp, #-8]
80022a50:	e51b201c 	ldr	r2, [fp, #-28]	; 0xffffffe4
80022a54:	e0821003 	add	r1, r2, r3
80022a58:	e51b3018 	ldr	r3, [fp, #-24]	; 0xffffffe8
80022a5c:	e5932014 	ldr	r2, [r3, #20]
80022a60:	e51b300c 	ldr	r3, [fp, #-12]
80022a64:	eb00043d 	bl	80023b60 <writei>
80022a68:	e50b0014 	str	r0, [fp, #-20]	; 0xffffffec
80022a6c:	e51b3014 	ldr	r3, [fp, #-20]	; 0xffffffec
80022a70:	e3530000 	cmp	r3, #0
80022a74:	da000005 	ble	80022a90 <filewrite+0x10c>
80022a78:	e51b3018 	ldr	r3, [fp, #-24]	; 0xffffffe8
80022a7c:	e5932014 	ldr	r2, [r3, #20]
80022a80:	e51b3014 	ldr	r3, [fp, #-20]	; 0xffffffec
80022a84:	e0822003 	add	r2, r2, r3
80022a88:	e51b3018 	ldr	r3, [fp, #-24]	; 0xffffffe8
80022a8c:	e5832014 	str	r2, [r3, #20]
80022a90:	e51b3018 	ldr	r3, [fp, #-24]	; 0xffffffe8
80022a94:	e5933010 	ldr	r3, [r3, #16]
80022a98:	e1a00003 	mov	r0, r3
80022a9c:	eb000260 	bl	80023424 <iunlock>
80022aa0:	eb0006ee 	bl	80024660 <commit_trans>
80022aa4:	e51b3014 	ldr	r3, [fp, #-20]	; 0xffffffec
80022aa8:	e3530000 	cmp	r3, #0
80022aac:	aa000000 	bge	80022ab4 <filewrite+0x130>
80022ab0:	ea00000e 	b	80022af0 <filewrite+0x16c>
80022ab4:	e51b2014 	ldr	r2, [fp, #-20]	; 0xffffffec
80022ab8:	e51b300c 	ldr	r3, [fp, #-12]
80022abc:	e1520003 	cmp	r2, r3
80022ac0:	0a000002 	beq	80022ad0 <filewrite+0x14c>
80022ac4:	e309049c 	movw	r0, #38044	; 0x949c
80022ac8:	e3480002 	movt	r0, #32770	; 0x8002
80022acc:	ebfffc28 	bl	80021b74 <panic>
80022ad0:	e51b2008 	ldr	r2, [fp, #-8]
80022ad4:	e51b3014 	ldr	r3, [fp, #-20]	; 0xffffffec
80022ad8:	e0823003 	add	r3, r2, r3
80022adc:	e50b3008 	str	r3, [fp, #-8]
80022ae0:	e51b2008 	ldr	r2, [fp, #-8]
80022ae4:	e51b3020 	ldr	r3, [fp, #-32]	; 0xffffffe0
80022ae8:	e1520003 	cmp	r2, r3
80022aec:	baffffc5 	blt	80022a08 <filewrite+0x84>
80022af0:	e51b2008 	ldr	r2, [fp, #-8]
80022af4:	e51b3020 	ldr	r3, [fp, #-32]	; 0xffffffe0
80022af8:	e1520003 	cmp	r2, r3
80022afc:	1a000001 	bne	80022b08 <filewrite+0x184>
80022b00:	e51b3020 	ldr	r3, [fp, #-32]	; 0xffffffe0
80022b04:	ea000000 	b	80022b0c <filewrite+0x188>
80022b08:	e3e03000 	mvn	r3, #0
80022b0c:	ea000002 	b	80022b1c <filewrite+0x198>
80022b10:	e30904ac 	movw	r0, #38060	; 0x94ac
80022b14:	e3480002 	movt	r0, #32770	; 0x8002
80022b18:	ebfffc15 	bl	80021b74 <panic>
80022b1c:	e1a00003 	mov	r0, r3
80022b20:	e24bd004 	sub	sp, fp, #4
80022b24:	e8bd8800 	pop	{fp, pc}

80022b28 <readsb>:
80022b28:	e92d4800 	push	{fp, lr}
80022b2c:	e28db004 	add	fp, sp, #4
80022b30:	e24dd010 	sub	sp, sp, #16
80022b34:	e50b0010 	str	r0, [fp, #-16]
80022b38:	e50b1014 	str	r1, [fp, #-20]	; 0xffffffec
80022b3c:	e51b3010 	ldr	r3, [fp, #-16]
80022b40:	e1a00003 	mov	r0, r3
80022b44:	e3a01001 	mov	r1, #1
80022b48:	ebfff7f6 	bl	80020b28 <bread>
80022b4c:	e50b0008 	str	r0, [fp, #-8]
80022b50:	e51b3008 	ldr	r3, [fp, #-8]
80022b54:	e2833018 	add	r3, r3, #24
80022b58:	e51b0014 	ldr	r0, [fp, #-20]	; 0xffffffec
80022b5c:	e1a01003 	mov	r1, r3
80022b60:	e3a02010 	mov	r2, #16
80022b64:	ebfff596 	bl	800201c4 <memmove>
80022b68:	e51b0008 	ldr	r0, [fp, #-8]
80022b6c:	ebfff816 	bl	80020bcc <brelse>
80022b70:	e24bd004 	sub	sp, fp, #4
80022b74:	e8bd8800 	pop	{fp, pc}

80022b78 <bzero>:
80022b78:	e92d4800 	push	{fp, lr}
80022b7c:	e28db004 	add	fp, sp, #4
80022b80:	e24dd010 	sub	sp, sp, #16
80022b84:	e50b0010 	str	r0, [fp, #-16]
80022b88:	e50b1014 	str	r1, [fp, #-20]	; 0xffffffec
80022b8c:	e51b2010 	ldr	r2, [fp, #-16]
80022b90:	e51b3014 	ldr	r3, [fp, #-20]	; 0xffffffec
80022b94:	e1a00002 	mov	r0, r2
80022b98:	e1a01003 	mov	r1, r3
80022b9c:	ebfff7e1 	bl	80020b28 <bread>
80022ba0:	e50b0008 	str	r0, [fp, #-8]
80022ba4:	e51b3008 	ldr	r3, [fp, #-8]
80022ba8:	e2833018 	add	r3, r3, #24
80022bac:	e1a00003 	mov	r0, r3
80022bb0:	e3a01000 	mov	r1, #0
80022bb4:	e3a02c02 	mov	r2, #512	; 0x200
80022bb8:	ebfff510 	bl	80020000 <memset>
80022bbc:	e51b0008 	ldr	r0, [fp, #-8]
80022bc0:	eb0006c2 	bl	800246d0 <log_write>
80022bc4:	e51b0008 	ldr	r0, [fp, #-8]
80022bc8:	ebfff7ff 	bl	80020bcc <brelse>
80022bcc:	e24bd004 	sub	sp, fp, #4
80022bd0:	e8bd8800 	pop	{fp, pc}

80022bd4 <balloc>:
80022bd4:	e92d4800 	push	{fp, lr}
80022bd8:	e28db004 	add	fp, sp, #4
80022bdc:	e24dd028 	sub	sp, sp, #40	; 0x28
80022be0:	e50b0028 	str	r0, [fp, #-40]	; 0xffffffd8
80022be4:	e3a03000 	mov	r3, #0
80022be8:	e50b3010 	str	r3, [fp, #-16]
80022bec:	e51b2028 	ldr	r2, [fp, #-40]	; 0xffffffd8
80022bf0:	e24b3024 	sub	r3, fp, #36	; 0x24
80022bf4:	e1a00002 	mov	r0, r2
80022bf8:	e1a01003 	mov	r1, r3
80022bfc:	ebffffc9 	bl	80022b28 <readsb>
80022c00:	e3a03000 	mov	r3, #0
80022c04:	e50b3008 	str	r3, [fp, #-8]
80022c08:	ea000060 	b	80022d90 <balloc+0x1bc>
80022c0c:	e51b3008 	ldr	r3, [fp, #-8]
80022c10:	e2832eff 	add	r2, r3, #4080	; 0xff0
80022c14:	e282200f 	add	r2, r2, #15
80022c18:	e3530000 	cmp	r3, #0
80022c1c:	b1a03002 	movlt	r3, r2
80022c20:	e1a03643 	asr	r3, r3, #12
80022c24:	e1a02003 	mov	r2, r3
80022c28:	e51b301c 	ldr	r3, [fp, #-28]	; 0xffffffe4
80022c2c:	e1a031a3 	lsr	r3, r3, #3
80022c30:	e0823003 	add	r3, r2, r3
80022c34:	e2833003 	add	r3, r3, #3
80022c38:	e51b0028 	ldr	r0, [fp, #-40]	; 0xffffffd8
80022c3c:	e1a01003 	mov	r1, r3
80022c40:	ebfff7b8 	bl	80020b28 <bread>
80022c44:	e50b0010 	str	r0, [fp, #-16]
80022c48:	e3a03000 	mov	r3, #0
80022c4c:	e50b300c 	str	r3, [fp, #-12]
80022c50:	ea00003f 	b	80022d54 <balloc+0x180>
80022c54:	e51b200c 	ldr	r2, [fp, #-12]
80022c58:	e1a03fc2 	asr	r3, r2, #31
80022c5c:	e1a03ea3 	lsr	r3, r3, #29
80022c60:	e0822003 	add	r2, r2, r3
80022c64:	e2022007 	and	r2, r2, #7
80022c68:	e0633002 	rsb	r3, r3, r2
80022c6c:	e3a02001 	mov	r2, #1
80022c70:	e1a03312 	lsl	r3, r2, r3
80022c74:	e50b3014 	str	r3, [fp, #-20]	; 0xffffffec
80022c78:	e51b300c 	ldr	r3, [fp, #-12]
80022c7c:	e2832007 	add	r2, r3, #7
80022c80:	e3530000 	cmp	r3, #0
80022c84:	b1a03002 	movlt	r3, r2
80022c88:	e1a031c3 	asr	r3, r3, #3
80022c8c:	e1a02003 	mov	r2, r3
80022c90:	e51b1010 	ldr	r1, [fp, #-16]
80022c94:	e3a03018 	mov	r3, #24
80022c98:	e0812002 	add	r2, r1, r2
80022c9c:	e0823003 	add	r3, r2, r3
80022ca0:	e5d33000 	ldrb	r3, [r3]
80022ca4:	e1a02003 	mov	r2, r3
80022ca8:	e51b3014 	ldr	r3, [fp, #-20]	; 0xffffffec
80022cac:	e0023003 	and	r3, r2, r3
80022cb0:	e3530000 	cmp	r3, #0
80022cb4:	1a000023 	bne	80022d48 <balloc+0x174>
80022cb8:	e51b300c 	ldr	r3, [fp, #-12]
80022cbc:	e2832007 	add	r2, r3, #7
80022cc0:	e3530000 	cmp	r3, #0
80022cc4:	b1a03002 	movlt	r3, r2
80022cc8:	e1a031c3 	asr	r3, r3, #3
80022ccc:	e51b1010 	ldr	r1, [fp, #-16]
80022cd0:	e3a02018 	mov	r2, #24
80022cd4:	e0811003 	add	r1, r1, r3
80022cd8:	e0812002 	add	r2, r1, r2
80022cdc:	e5d22000 	ldrb	r2, [r2]
80022ce0:	e6ef1072 	uxtb	r1, r2
80022ce4:	e51b2014 	ldr	r2, [fp, #-20]	; 0xffffffec
80022ce8:	e6ef2072 	uxtb	r2, r2
80022cec:	e1812002 	orr	r2, r1, r2
80022cf0:	e6ef2072 	uxtb	r2, r2
80022cf4:	e6ef2072 	uxtb	r2, r2
80022cf8:	e51b0010 	ldr	r0, [fp, #-16]
80022cfc:	e3a01018 	mov	r1, #24
80022d00:	e0803003 	add	r3, r0, r3
80022d04:	e0833001 	add	r3, r3, r1
80022d08:	e5c32000 	strb	r2, [r3]
80022d0c:	e51b0010 	ldr	r0, [fp, #-16]
80022d10:	eb00066e 	bl	800246d0 <log_write>
80022d14:	e51b0010 	ldr	r0, [fp, #-16]
80022d18:	ebfff7ab 	bl	80020bcc <brelse>
80022d1c:	e51b2028 	ldr	r2, [fp, #-40]	; 0xffffffd8
80022d20:	e51b1008 	ldr	r1, [fp, #-8]
80022d24:	e51b300c 	ldr	r3, [fp, #-12]
80022d28:	e0813003 	add	r3, r1, r3
80022d2c:	e1a00002 	mov	r0, r2
80022d30:	e1a01003 	mov	r1, r3
80022d34:	ebffff8f 	bl	80022b78 <bzero>
80022d38:	e51b2008 	ldr	r2, [fp, #-8]
80022d3c:	e51b300c 	ldr	r3, [fp, #-12]
80022d40:	e0823003 	add	r3, r2, r3
80022d44:	ea000018 	b	80022dac <balloc+0x1d8>
80022d48:	e51b300c 	ldr	r3, [fp, #-12]
80022d4c:	e2833001 	add	r3, r3, #1
80022d50:	e50b300c 	str	r3, [fp, #-12]
80022d54:	e51b300c 	ldr	r3, [fp, #-12]
80022d58:	e3530a01 	cmp	r3, #4096	; 0x1000
80022d5c:	aa000006 	bge	80022d7c <balloc+0x1a8>
80022d60:	e51b2008 	ldr	r2, [fp, #-8]
80022d64:	e51b300c 	ldr	r3, [fp, #-12]
80022d68:	e0823003 	add	r3, r2, r3
80022d6c:	e1a02003 	mov	r2, r3
80022d70:	e51b3024 	ldr	r3, [fp, #-36]	; 0xffffffdc
80022d74:	e1520003 	cmp	r2, r3
80022d78:	3affffb5 	bcc	80022c54 <balloc+0x80>
80022d7c:	e51b0010 	ldr	r0, [fp, #-16]
80022d80:	ebfff791 	bl	80020bcc <brelse>
80022d84:	e51b3008 	ldr	r3, [fp, #-8]
80022d88:	e2833a01 	add	r3, r3, #4096	; 0x1000
80022d8c:	e50b3008 	str	r3, [fp, #-8]
80022d90:	e51b2008 	ldr	r2, [fp, #-8]
80022d94:	e51b3024 	ldr	r3, [fp, #-36]	; 0xffffffdc
80022d98:	e1520003 	cmp	r2, r3
80022d9c:	3affff9a 	bcc	80022c0c <balloc+0x38>
80022da0:	e30904b8 	movw	r0, #38072	; 0x94b8
80022da4:	e3480002 	movt	r0, #32770	; 0x8002
80022da8:	ebfffb71 	bl	80021b74 <panic>
80022dac:	e1a00003 	mov	r0, r3
80022db0:	e24bd004 	sub	sp, fp, #4
80022db4:	e8bd8800 	pop	{fp, pc}

80022db8 <bfree>:
80022db8:	e92d4800 	push	{fp, lr}
80022dbc:	e28db004 	add	fp, sp, #4
80022dc0:	e24dd028 	sub	sp, sp, #40	; 0x28
80022dc4:	e50b0028 	str	r0, [fp, #-40]	; 0xffffffd8
80022dc8:	e50b102c 	str	r1, [fp, #-44]	; 0xffffffd4
80022dcc:	e24b3020 	sub	r3, fp, #32
80022dd0:	e51b0028 	ldr	r0, [fp, #-40]	; 0xffffffd8
80022dd4:	e1a01003 	mov	r1, r3
80022dd8:	ebffff52 	bl	80022b28 <readsb>
80022ddc:	e51b2028 	ldr	r2, [fp, #-40]	; 0xffffffd8
80022de0:	e51b302c 	ldr	r3, [fp, #-44]	; 0xffffffd4
80022de4:	e1a01623 	lsr	r1, r3, #12
80022de8:	e51b3018 	ldr	r3, [fp, #-24]	; 0xffffffe8
80022dec:	e1a031a3 	lsr	r3, r3, #3
80022df0:	e0813003 	add	r3, r1, r3
80022df4:	e2833003 	add	r3, r3, #3
80022df8:	e1a00002 	mov	r0, r2
80022dfc:	e1a01003 	mov	r1, r3
80022e00:	ebfff748 	bl	80020b28 <bread>
80022e04:	e50b0008 	str	r0, [fp, #-8]
80022e08:	e51b302c 	ldr	r3, [fp, #-44]	; 0xffffffd4
80022e0c:	e7eb3053 	ubfx	r3, r3, #0, #12
80022e10:	e50b300c 	str	r3, [fp, #-12]
80022e14:	e51b200c 	ldr	r2, [fp, #-12]
80022e18:	e1a03fc2 	asr	r3, r2, #31
80022e1c:	e1a03ea3 	lsr	r3, r3, #29
80022e20:	e0822003 	add	r2, r2, r3
80022e24:	e2022007 	and	r2, r2, #7
80022e28:	e0633002 	rsb	r3, r3, r2
80022e2c:	e3a02001 	mov	r2, #1
80022e30:	e1a03312 	lsl	r3, r2, r3
80022e34:	e50b3010 	str	r3, [fp, #-16]
80022e38:	e51b300c 	ldr	r3, [fp, #-12]
80022e3c:	e2832007 	add	r2, r3, #7
80022e40:	e3530000 	cmp	r3, #0
80022e44:	b1a03002 	movlt	r3, r2
80022e48:	e1a031c3 	asr	r3, r3, #3
80022e4c:	e1a02003 	mov	r2, r3
80022e50:	e51b1008 	ldr	r1, [fp, #-8]
80022e54:	e3a03018 	mov	r3, #24
80022e58:	e0812002 	add	r2, r1, r2
80022e5c:	e0823003 	add	r3, r2, r3
80022e60:	e5d33000 	ldrb	r3, [r3]
80022e64:	e1a02003 	mov	r2, r3
80022e68:	e51b3010 	ldr	r3, [fp, #-16]
80022e6c:	e0023003 	and	r3, r2, r3
80022e70:	e3530000 	cmp	r3, #0
80022e74:	1a000002 	bne	80022e84 <bfree+0xcc>
80022e78:	e30904d0 	movw	r0, #38096	; 0x94d0
80022e7c:	e3480002 	movt	r0, #32770	; 0x8002
80022e80:	ebfffb3b 	bl	80021b74 <panic>
80022e84:	e51b300c 	ldr	r3, [fp, #-12]
80022e88:	e2832007 	add	r2, r3, #7
80022e8c:	e3530000 	cmp	r3, #0
80022e90:	b1a03002 	movlt	r3, r2
80022e94:	e1a031c3 	asr	r3, r3, #3
80022e98:	e51b1008 	ldr	r1, [fp, #-8]
80022e9c:	e3a02018 	mov	r2, #24
80022ea0:	e0811003 	add	r1, r1, r3
80022ea4:	e0812002 	add	r2, r1, r2
80022ea8:	e5d22000 	ldrb	r2, [r2]
80022eac:	e6ef1072 	uxtb	r1, r2
80022eb0:	e51b2010 	ldr	r2, [fp, #-16]
80022eb4:	e6ef2072 	uxtb	r2, r2
80022eb8:	e1e02002 	mvn	r2, r2
80022ebc:	e6ef2072 	uxtb	r2, r2
80022ec0:	e0012002 	and	r2, r1, r2
80022ec4:	e6ef2072 	uxtb	r2, r2
80022ec8:	e6ef2072 	uxtb	r2, r2
80022ecc:	e51b0008 	ldr	r0, [fp, #-8]
80022ed0:	e3a01018 	mov	r1, #24
80022ed4:	e0803003 	add	r3, r0, r3
80022ed8:	e0833001 	add	r3, r3, r1
80022edc:	e5c32000 	strb	r2, [r3]
80022ee0:	e51b0008 	ldr	r0, [fp, #-8]
80022ee4:	eb0005f9 	bl	800246d0 <log_write>
80022ee8:	e51b0008 	ldr	r0, [fp, #-8]
80022eec:	ebfff736 	bl	80020bcc <brelse>
80022ef0:	e24bd004 	sub	sp, fp, #4
80022ef4:	e8bd8800 	pop	{fp, pc}

80022ef8 <iinit>:
80022ef8:	e92d4800 	push	{fp, lr}
80022efc:	e28db004 	add	fp, sp, #4
80022f00:	e30c04d4 	movw	r0, #50388	; 0xc4d4
80022f04:	e348000a 	movt	r0, #32778	; 0x800a
80022f08:	e30914e4 	movw	r1, #38116	; 0x94e4
80022f0c:	e3481002 	movt	r1, #32770	; 0x8002
80022f10:	eb000c21 	bl	80025f9c <initlock>
80022f14:	e8bd8800 	pop	{fp, pc}

80022f18 <ialloc>:
80022f18:	e92d4800 	push	{fp, lr}
80022f1c:	e28db004 	add	fp, sp, #4
80022f20:	e24dd028 	sub	sp, sp, #40	; 0x28
80022f24:	e50b0028 	str	r0, [fp, #-40]	; 0xffffffd8
80022f28:	e1a03001 	mov	r3, r1
80022f2c:	e14b32ba 	strh	r3, [fp, #-42]	; 0xffffffd6
80022f30:	e51b2028 	ldr	r2, [fp, #-40]	; 0xffffffd8
80022f34:	e24b3020 	sub	r3, fp, #32
80022f38:	e1a00002 	mov	r0, r2
80022f3c:	e1a01003 	mov	r1, r3
80022f40:	ebfffef8 	bl	80022b28 <readsb>
80022f44:	e3a03001 	mov	r3, #1
80022f48:	e50b3008 	str	r3, [fp, #-8]
80022f4c:	ea000027 	b	80022ff0 <ialloc+0xd8>
80022f50:	e51b3008 	ldr	r3, [fp, #-8]
80022f54:	e1a031a3 	lsr	r3, r3, #3
80022f58:	e2833002 	add	r3, r3, #2
80022f5c:	e51b0028 	ldr	r0, [fp, #-40]	; 0xffffffd8
80022f60:	e1a01003 	mov	r1, r3
80022f64:	ebfff6ef 	bl	80020b28 <bread>
80022f68:	e50b000c 	str	r0, [fp, #-12]
80022f6c:	e51b300c 	ldr	r3, [fp, #-12]
80022f70:	e2832018 	add	r2, r3, #24
80022f74:	e51b3008 	ldr	r3, [fp, #-8]
80022f78:	e2033007 	and	r3, r3, #7
80022f7c:	e1a03303 	lsl	r3, r3, #6
80022f80:	e0823003 	add	r3, r2, r3
80022f84:	e50b3010 	str	r3, [fp, #-16]
80022f88:	e51b3010 	ldr	r3, [fp, #-16]
80022f8c:	e1d330b0 	ldrh	r3, [r3]
80022f90:	e3530000 	cmp	r3, #0
80022f94:	1a000010 	bne	80022fdc <ialloc+0xc4>
80022f98:	e51b0010 	ldr	r0, [fp, #-16]
80022f9c:	e3a01000 	mov	r1, #0
80022fa0:	e3a02040 	mov	r2, #64	; 0x40
80022fa4:	ebfff415 	bl	80020000 <memset>
80022fa8:	e51b3010 	ldr	r3, [fp, #-16]
80022fac:	e15b22ba 	ldrh	r2, [fp, #-42]	; 0xffffffd6
80022fb0:	e1c320b0 	strh	r2, [r3]
80022fb4:	e51b000c 	ldr	r0, [fp, #-12]
80022fb8:	eb0005c4 	bl	800246d0 <log_write>
80022fbc:	e51b000c 	ldr	r0, [fp, #-12]
80022fc0:	ebfff701 	bl	80020bcc <brelse>
80022fc4:	e51b3008 	ldr	r3, [fp, #-8]
80022fc8:	e51b0028 	ldr	r0, [fp, #-40]	; 0xffffffd8
80022fcc:	e1a01003 	mov	r1, r3
80022fd0:	eb000048 	bl	800230f8 <iget>
80022fd4:	e1a03000 	mov	r3, r0
80022fd8:	ea00000b 	b	8002300c <ialloc+0xf4>
80022fdc:	e51b000c 	ldr	r0, [fp, #-12]
80022fe0:	ebfff6f9 	bl	80020bcc <brelse>
80022fe4:	e51b3008 	ldr	r3, [fp, #-8]
80022fe8:	e2833001 	add	r3, r3, #1
80022fec:	e50b3008 	str	r3, [fp, #-8]
80022ff0:	e51b2008 	ldr	r2, [fp, #-8]
80022ff4:	e51b3018 	ldr	r3, [fp, #-24]	; 0xffffffe8
80022ff8:	e1520003 	cmp	r2, r3
80022ffc:	3affffd3 	bcc	80022f50 <ialloc+0x38>
80023000:	e30904ec 	movw	r0, #38124	; 0x94ec
80023004:	e3480002 	movt	r0, #32770	; 0x8002
80023008:	ebfffad9 	bl	80021b74 <panic>
8002300c:	e1a00003 	mov	r0, r3
80023010:	e24bd004 	sub	sp, fp, #4
80023014:	e8bd8800 	pop	{fp, pc}

80023018 <iupdate>:
80023018:	e92d4800 	push	{fp, lr}
8002301c:	e28db004 	add	fp, sp, #4
80023020:	e24dd010 	sub	sp, sp, #16
80023024:	e50b0010 	str	r0, [fp, #-16]
80023028:	e51b3010 	ldr	r3, [fp, #-16]
8002302c:	e5932000 	ldr	r2, [r3]
80023030:	e51b3010 	ldr	r3, [fp, #-16]
80023034:	e5933004 	ldr	r3, [r3, #4]
80023038:	e1a031a3 	lsr	r3, r3, #3
8002303c:	e2833002 	add	r3, r3, #2
80023040:	e1a00002 	mov	r0, r2
80023044:	e1a01003 	mov	r1, r3
80023048:	ebfff6b6 	bl	80020b28 <bread>
8002304c:	e50b0008 	str	r0, [fp, #-8]
80023050:	e51b3008 	ldr	r3, [fp, #-8]
80023054:	e2832018 	add	r2, r3, #24
80023058:	e51b3010 	ldr	r3, [fp, #-16]
8002305c:	e5933004 	ldr	r3, [r3, #4]
80023060:	e2033007 	and	r3, r3, #7
80023064:	e1a03303 	lsl	r3, r3, #6
80023068:	e0823003 	add	r3, r2, r3
8002306c:	e50b300c 	str	r3, [fp, #-12]
80023070:	e51b3010 	ldr	r3, [fp, #-16]
80023074:	e1d321b0 	ldrh	r2, [r3, #16]
80023078:	e51b300c 	ldr	r3, [fp, #-12]
8002307c:	e1c320b0 	strh	r2, [r3]
80023080:	e51b3010 	ldr	r3, [fp, #-16]
80023084:	e1d321b2 	ldrh	r2, [r3, #18]
80023088:	e51b300c 	ldr	r3, [fp, #-12]
8002308c:	e1c320b2 	strh	r2, [r3, #2]
80023090:	e51b3010 	ldr	r3, [fp, #-16]
80023094:	e1d321b4 	ldrh	r2, [r3, #20]
80023098:	e51b300c 	ldr	r3, [fp, #-12]
8002309c:	e1c320b4 	strh	r2, [r3, #4]
800230a0:	e51b3010 	ldr	r3, [fp, #-16]
800230a4:	e1d321b6 	ldrh	r2, [r3, #22]
800230a8:	e51b300c 	ldr	r3, [fp, #-12]
800230ac:	e1c320b6 	strh	r2, [r3, #6]
800230b0:	e51b3010 	ldr	r3, [fp, #-16]
800230b4:	e5932018 	ldr	r2, [r3, #24]
800230b8:	e51b300c 	ldr	r3, [fp, #-12]
800230bc:	e5832008 	str	r2, [r3, #8]
800230c0:	e51b300c 	ldr	r3, [fp, #-12]
800230c4:	e283200c 	add	r2, r3, #12
800230c8:	e51b3010 	ldr	r3, [fp, #-16]
800230cc:	e283301c 	add	r3, r3, #28
800230d0:	e1a00002 	mov	r0, r2
800230d4:	e1a01003 	mov	r1, r3
800230d8:	e3a02034 	mov	r2, #52	; 0x34
800230dc:	ebfff438 	bl	800201c4 <memmove>
800230e0:	e51b0008 	ldr	r0, [fp, #-8]
800230e4:	eb000579 	bl	800246d0 <log_write>
800230e8:	e51b0008 	ldr	r0, [fp, #-8]
800230ec:	ebfff6b6 	bl	80020bcc <brelse>
800230f0:	e24bd004 	sub	sp, fp, #4
800230f4:	e8bd8800 	pop	{fp, pc}

800230f8 <iget>:
800230f8:	e92d4800 	push	{fp, lr}
800230fc:	e28db004 	add	fp, sp, #4
80023100:	e24dd010 	sub	sp, sp, #16
80023104:	e50b0010 	str	r0, [fp, #-16]
80023108:	e50b1014 	str	r1, [fp, #-20]	; 0xffffffec
8002310c:	e30c04d4 	movw	r0, #50388	; 0xc4d4
80023110:	e348000a 	movt	r0, #32778	; 0x800a
80023114:	eb000bb1 	bl	80025fe0 <acquire>
80023118:	e3a03000 	mov	r3, #0
8002311c:	e50b300c 	str	r3, [fp, #-12]
80023120:	e59f3110 	ldr	r3, [pc, #272]	; 80023238 <iget+0x140>
80023124:	e50b3008 	str	r3, [fp, #-8]
80023128:	ea000023 	b	800231bc <iget+0xc4>
8002312c:	e51b3008 	ldr	r3, [fp, #-8]
80023130:	e5933008 	ldr	r3, [r3, #8]
80023134:	e3530000 	cmp	r3, #0
80023138:	da000013 	ble	8002318c <iget+0x94>
8002313c:	e51b3008 	ldr	r3, [fp, #-8]
80023140:	e5932000 	ldr	r2, [r3]
80023144:	e51b3010 	ldr	r3, [fp, #-16]
80023148:	e1520003 	cmp	r2, r3
8002314c:	1a00000e 	bne	8002318c <iget+0x94>
80023150:	e51b3008 	ldr	r3, [fp, #-8]
80023154:	e5932004 	ldr	r2, [r3, #4]
80023158:	e51b3014 	ldr	r3, [fp, #-20]	; 0xffffffec
8002315c:	e1520003 	cmp	r2, r3
80023160:	1a000009 	bne	8002318c <iget+0x94>
80023164:	e51b3008 	ldr	r3, [fp, #-8]
80023168:	e5933008 	ldr	r3, [r3, #8]
8002316c:	e2832001 	add	r2, r3, #1
80023170:	e51b3008 	ldr	r3, [fp, #-8]
80023174:	e5832008 	str	r2, [r3, #8]
80023178:	e30c04d4 	movw	r0, #50388	; 0xc4d4
8002317c:	e348000a 	movt	r0, #32778	; 0x800a
80023180:	eb000ba0 	bl	80026008 <release>
80023184:	e51b3008 	ldr	r3, [fp, #-8]
80023188:	ea000027 	b	8002322c <iget+0x134>
8002318c:	e51b300c 	ldr	r3, [fp, #-12]
80023190:	e3530000 	cmp	r3, #0
80023194:	1a000005 	bne	800231b0 <iget+0xb8>
80023198:	e51b3008 	ldr	r3, [fp, #-8]
8002319c:	e5933008 	ldr	r3, [r3, #8]
800231a0:	e3530000 	cmp	r3, #0
800231a4:	1a000001 	bne	800231b0 <iget+0xb8>
800231a8:	e51b3008 	ldr	r3, [fp, #-8]
800231ac:	e50b300c 	str	r3, [fp, #-12]
800231b0:	e51b3008 	ldr	r3, [fp, #-8]
800231b4:	e2833050 	add	r3, r3, #80	; 0x50
800231b8:	e50b3008 	str	r3, [fp, #-8]
800231bc:	e51b2008 	ldr	r2, [fp, #-8]
800231c0:	e59f3074 	ldr	r3, [pc, #116]	; 8002323c <iget+0x144>
800231c4:	e1520003 	cmp	r2, r3
800231c8:	3affffd7 	bcc	8002312c <iget+0x34>
800231cc:	e51b300c 	ldr	r3, [fp, #-12]
800231d0:	e3530000 	cmp	r3, #0
800231d4:	1a000002 	bne	800231e4 <iget+0xec>
800231d8:	e3090500 	movw	r0, #38144	; 0x9500
800231dc:	e3480002 	movt	r0, #32770	; 0x8002
800231e0:	ebfffa63 	bl	80021b74 <panic>
800231e4:	e51b300c 	ldr	r3, [fp, #-12]
800231e8:	e50b3008 	str	r3, [fp, #-8]
800231ec:	e51b3008 	ldr	r3, [fp, #-8]
800231f0:	e51b2010 	ldr	r2, [fp, #-16]
800231f4:	e5832000 	str	r2, [r3]
800231f8:	e51b3008 	ldr	r3, [fp, #-8]
800231fc:	e51b2014 	ldr	r2, [fp, #-20]	; 0xffffffec
80023200:	e5832004 	str	r2, [r3, #4]
80023204:	e51b3008 	ldr	r3, [fp, #-8]
80023208:	e3a02001 	mov	r2, #1
8002320c:	e5832008 	str	r2, [r3, #8]
80023210:	e51b3008 	ldr	r3, [fp, #-8]
80023214:	e3a02000 	mov	r2, #0
80023218:	e583200c 	str	r2, [r3, #12]
8002321c:	e30c04d4 	movw	r0, #50388	; 0xc4d4
80023220:	e348000a 	movt	r0, #32778	; 0x800a
80023224:	eb000b77 	bl	80026008 <release>
80023228:	e51b3008 	ldr	r3, [fp, #-8]
8002322c:	e1a00003 	mov	r0, r3
80023230:	e24bd004 	sub	sp, fp, #4
80023234:	e8bd8800 	pop	{fp, pc}
80023238:	800ac508 	.word	0x800ac508
8002323c:	800ad4a8 	.word	0x800ad4a8

80023240 <idup>:
80023240:	e92d4800 	push	{fp, lr}
80023244:	e28db004 	add	fp, sp, #4
80023248:	e24dd008 	sub	sp, sp, #8
8002324c:	e50b0008 	str	r0, [fp, #-8]
80023250:	e30c04d4 	movw	r0, #50388	; 0xc4d4
80023254:	e348000a 	movt	r0, #32778	; 0x800a
80023258:	eb000b60 	bl	80025fe0 <acquire>
8002325c:	e51b3008 	ldr	r3, [fp, #-8]
80023260:	e5933008 	ldr	r3, [r3, #8]
80023264:	e2832001 	add	r2, r3, #1
80023268:	e51b3008 	ldr	r3, [fp, #-8]
8002326c:	e5832008 	str	r2, [r3, #8]
80023270:	e30c04d4 	movw	r0, #50388	; 0xc4d4
80023274:	e348000a 	movt	r0, #32778	; 0x800a
80023278:	eb000b62 	bl	80026008 <release>
8002327c:	e51b3008 	ldr	r3, [fp, #-8]
80023280:	e1a00003 	mov	r0, r3
80023284:	e24bd004 	sub	sp, fp, #4
80023288:	e8bd8800 	pop	{fp, pc}

8002328c <ilock>:
8002328c:	e92d4800 	push	{fp, lr}
80023290:	e28db004 	add	fp, sp, #4
80023294:	e24dd010 	sub	sp, sp, #16
80023298:	e50b0010 	str	r0, [fp, #-16]
8002329c:	e51b3010 	ldr	r3, [fp, #-16]
800232a0:	e3530000 	cmp	r3, #0
800232a4:	0a000003 	beq	800232b8 <ilock+0x2c>
800232a8:	e51b3010 	ldr	r3, [fp, #-16]
800232ac:	e5933008 	ldr	r3, [r3, #8]
800232b0:	e3530000 	cmp	r3, #0
800232b4:	ca000002 	bgt	800232c4 <ilock+0x38>
800232b8:	e3090510 	movw	r0, #38160	; 0x9510
800232bc:	e3480002 	movt	r0, #32770	; 0x8002
800232c0:	ebfffa2b 	bl	80021b74 <panic>
800232c4:	e30c04d4 	movw	r0, #50388	; 0xc4d4
800232c8:	e348000a 	movt	r0, #32778	; 0x800a
800232cc:	eb000b43 	bl	80025fe0 <acquire>
800232d0:	ea000003 	b	800232e4 <ilock+0x58>
800232d4:	e51b0010 	ldr	r0, [fp, #-16]
800232d8:	e30c14d4 	movw	r1, #50388	; 0xc4d4
800232dc:	e348100a 	movt	r1, #32778	; 0x800a
800232e0:	eb000a53 	bl	80025c34 <sleep>
800232e4:	e51b3010 	ldr	r3, [fp, #-16]
800232e8:	e593300c 	ldr	r3, [r3, #12]
800232ec:	e2033001 	and	r3, r3, #1
800232f0:	e3530000 	cmp	r3, #0
800232f4:	1afffff6 	bne	800232d4 <ilock+0x48>
800232f8:	e51b3010 	ldr	r3, [fp, #-16]
800232fc:	e593300c 	ldr	r3, [r3, #12]
80023300:	e3832001 	orr	r2, r3, #1
80023304:	e51b3010 	ldr	r3, [fp, #-16]
80023308:	e583200c 	str	r2, [r3, #12]
8002330c:	e30c04d4 	movw	r0, #50388	; 0xc4d4
80023310:	e348000a 	movt	r0, #32778	; 0x800a
80023314:	eb000b3b 	bl	80026008 <release>
80023318:	e51b3010 	ldr	r3, [fp, #-16]
8002331c:	e593300c 	ldr	r3, [r3, #12]
80023320:	e2033002 	and	r3, r3, #2
80023324:	e3530000 	cmp	r3, #0
80023328:	1a00003b 	bne	8002341c <ilock+0x190>
8002332c:	e51b3010 	ldr	r3, [fp, #-16]
80023330:	e5932000 	ldr	r2, [r3]
80023334:	e51b3010 	ldr	r3, [fp, #-16]
80023338:	e5933004 	ldr	r3, [r3, #4]
8002333c:	e1a031a3 	lsr	r3, r3, #3
80023340:	e2833002 	add	r3, r3, #2
80023344:	e1a00002 	mov	r0, r2
80023348:	e1a01003 	mov	r1, r3
8002334c:	ebfff5f5 	bl	80020b28 <bread>
80023350:	e50b0008 	str	r0, [fp, #-8]
80023354:	e51b3008 	ldr	r3, [fp, #-8]
80023358:	e2832018 	add	r2, r3, #24
8002335c:	e51b3010 	ldr	r3, [fp, #-16]
80023360:	e5933004 	ldr	r3, [r3, #4]
80023364:	e2033007 	and	r3, r3, #7
80023368:	e1a03303 	lsl	r3, r3, #6
8002336c:	e0823003 	add	r3, r2, r3
80023370:	e50b300c 	str	r3, [fp, #-12]
80023374:	e51b300c 	ldr	r3, [fp, #-12]
80023378:	e1d320b0 	ldrh	r2, [r3]
8002337c:	e51b3010 	ldr	r3, [fp, #-16]
80023380:	e1c321b0 	strh	r2, [r3, #16]
80023384:	e51b300c 	ldr	r3, [fp, #-12]
80023388:	e1d320b2 	ldrh	r2, [r3, #2]
8002338c:	e51b3010 	ldr	r3, [fp, #-16]
80023390:	e1c321b2 	strh	r2, [r3, #18]
80023394:	e51b300c 	ldr	r3, [fp, #-12]
80023398:	e1d320b4 	ldrh	r2, [r3, #4]
8002339c:	e51b3010 	ldr	r3, [fp, #-16]
800233a0:	e1c321b4 	strh	r2, [r3, #20]
800233a4:	e51b300c 	ldr	r3, [fp, #-12]
800233a8:	e1d320b6 	ldrh	r2, [r3, #6]
800233ac:	e51b3010 	ldr	r3, [fp, #-16]
800233b0:	e1c321b6 	strh	r2, [r3, #22]
800233b4:	e51b300c 	ldr	r3, [fp, #-12]
800233b8:	e5932008 	ldr	r2, [r3, #8]
800233bc:	e51b3010 	ldr	r3, [fp, #-16]
800233c0:	e5832018 	str	r2, [r3, #24]
800233c4:	e51b3010 	ldr	r3, [fp, #-16]
800233c8:	e283201c 	add	r2, r3, #28
800233cc:	e51b300c 	ldr	r3, [fp, #-12]
800233d0:	e283300c 	add	r3, r3, #12
800233d4:	e1a00002 	mov	r0, r2
800233d8:	e1a01003 	mov	r1, r3
800233dc:	e3a02034 	mov	r2, #52	; 0x34
800233e0:	ebfff377 	bl	800201c4 <memmove>
800233e4:	e51b0008 	ldr	r0, [fp, #-8]
800233e8:	ebfff5f7 	bl	80020bcc <brelse>
800233ec:	e51b3010 	ldr	r3, [fp, #-16]
800233f0:	e593300c 	ldr	r3, [r3, #12]
800233f4:	e3832002 	orr	r2, r3, #2
800233f8:	e51b3010 	ldr	r3, [fp, #-16]
800233fc:	e583200c 	str	r2, [r3, #12]
80023400:	e51b3010 	ldr	r3, [fp, #-16]
80023404:	e1d331b0 	ldrh	r3, [r3, #16]
80023408:	e3530000 	cmp	r3, #0
8002340c:	1a000002 	bne	8002341c <ilock+0x190>
80023410:	e3090518 	movw	r0, #38168	; 0x9518
80023414:	e3480002 	movt	r0, #32770	; 0x8002
80023418:	ebfff9d5 	bl	80021b74 <panic>
8002341c:	e24bd004 	sub	sp, fp, #4
80023420:	e8bd8800 	pop	{fp, pc}

80023424 <iunlock>:
80023424:	e92d4800 	push	{fp, lr}
80023428:	e28db004 	add	fp, sp, #4
8002342c:	e24dd008 	sub	sp, sp, #8
80023430:	e50b0008 	str	r0, [fp, #-8]
80023434:	e51b3008 	ldr	r3, [fp, #-8]
80023438:	e3530000 	cmp	r3, #0
8002343c:	0a000008 	beq	80023464 <iunlock+0x40>
80023440:	e51b3008 	ldr	r3, [fp, #-8]
80023444:	e593300c 	ldr	r3, [r3, #12]
80023448:	e2033001 	and	r3, r3, #1
8002344c:	e3530000 	cmp	r3, #0
80023450:	0a000003 	beq	80023464 <iunlock+0x40>
80023454:	e51b3008 	ldr	r3, [fp, #-8]
80023458:	e5933008 	ldr	r3, [r3, #8]
8002345c:	e3530000 	cmp	r3, #0
80023460:	ca000002 	bgt	80023470 <iunlock+0x4c>
80023464:	e3090528 	movw	r0, #38184	; 0x9528
80023468:	e3480002 	movt	r0, #32770	; 0x8002
8002346c:	ebfff9c0 	bl	80021b74 <panic>
80023470:	e30c04d4 	movw	r0, #50388	; 0xc4d4
80023474:	e348000a 	movt	r0, #32778	; 0x800a
80023478:	eb000ad8 	bl	80025fe0 <acquire>
8002347c:	e51b3008 	ldr	r3, [fp, #-8]
80023480:	e593300c 	ldr	r3, [r3, #12]
80023484:	e3c32001 	bic	r2, r3, #1
80023488:	e51b3008 	ldr	r3, [fp, #-8]
8002348c:	e583200c 	str	r2, [r3, #12]
80023490:	e51b0008 	ldr	r0, [fp, #-8]
80023494:	eb000a3e 	bl	80025d94 <wakeup>
80023498:	e30c04d4 	movw	r0, #50388	; 0xc4d4
8002349c:	e348000a 	movt	r0, #32778	; 0x800a
800234a0:	eb000ad8 	bl	80026008 <release>
800234a4:	e24bd004 	sub	sp, fp, #4
800234a8:	e8bd8800 	pop	{fp, pc}

800234ac <iput>:
800234ac:	e92d4800 	push	{fp, lr}
800234b0:	e28db004 	add	fp, sp, #4
800234b4:	e24dd008 	sub	sp, sp, #8
800234b8:	e50b0008 	str	r0, [fp, #-8]
800234bc:	e30c04d4 	movw	r0, #50388	; 0xc4d4
800234c0:	e348000a 	movt	r0, #32778	; 0x800a
800234c4:	eb000ac5 	bl	80025fe0 <acquire>
800234c8:	e51b3008 	ldr	r3, [fp, #-8]
800234cc:	e5933008 	ldr	r3, [r3, #8]
800234d0:	e3530001 	cmp	r3, #1
800234d4:	1a000027 	bne	80023578 <iput+0xcc>
800234d8:	e51b3008 	ldr	r3, [fp, #-8]
800234dc:	e593300c 	ldr	r3, [r3, #12]
800234e0:	e2033002 	and	r3, r3, #2
800234e4:	e3530000 	cmp	r3, #0
800234e8:	0a000022 	beq	80023578 <iput+0xcc>
800234ec:	e51b3008 	ldr	r3, [fp, #-8]
800234f0:	e1d331b6 	ldrh	r3, [r3, #22]
800234f4:	e3530000 	cmp	r3, #0
800234f8:	1a00001e 	bne	80023578 <iput+0xcc>
800234fc:	e51b3008 	ldr	r3, [fp, #-8]
80023500:	e593300c 	ldr	r3, [r3, #12]
80023504:	e2033001 	and	r3, r3, #1
80023508:	e3530000 	cmp	r3, #0
8002350c:	0a000002 	beq	8002351c <iput+0x70>
80023510:	e3090530 	movw	r0, #38192	; 0x9530
80023514:	e3480002 	movt	r0, #32770	; 0x8002
80023518:	ebfff995 	bl	80021b74 <panic>
8002351c:	e51b3008 	ldr	r3, [fp, #-8]
80023520:	e593300c 	ldr	r3, [r3, #12]
80023524:	e3832001 	orr	r2, r3, #1
80023528:	e51b3008 	ldr	r3, [fp, #-8]
8002352c:	e583200c 	str	r2, [r3, #12]
80023530:	e30c04d4 	movw	r0, #50388	; 0xc4d4
80023534:	e348000a 	movt	r0, #32778	; 0x800a
80023538:	eb000ab2 	bl	80026008 <release>
8002353c:	e51b0008 	ldr	r0, [fp, #-8]
80023540:	eb000081 	bl	8002374c <itrunc>
80023544:	e51b3008 	ldr	r3, [fp, #-8]
80023548:	e3a02000 	mov	r2, #0
8002354c:	e1c321b0 	strh	r2, [r3, #16]
80023550:	e51b0008 	ldr	r0, [fp, #-8]
80023554:	ebfffeaf 	bl	80023018 <iupdate>
80023558:	e30c04d4 	movw	r0, #50388	; 0xc4d4
8002355c:	e348000a 	movt	r0, #32778	; 0x800a
80023560:	eb000a9e 	bl	80025fe0 <acquire>
80023564:	e51b3008 	ldr	r3, [fp, #-8]
80023568:	e3a02000 	mov	r2, #0
8002356c:	e583200c 	str	r2, [r3, #12]
80023570:	e51b0008 	ldr	r0, [fp, #-8]
80023574:	eb000a06 	bl	80025d94 <wakeup>
80023578:	e51b3008 	ldr	r3, [fp, #-8]
8002357c:	e5933008 	ldr	r3, [r3, #8]
80023580:	e2432001 	sub	r2, r3, #1
80023584:	e51b3008 	ldr	r3, [fp, #-8]
80023588:	e5832008 	str	r2, [r3, #8]
8002358c:	e30c04d4 	movw	r0, #50388	; 0xc4d4
80023590:	e348000a 	movt	r0, #32778	; 0x800a
80023594:	eb000a9b 	bl	80026008 <release>
80023598:	e24bd004 	sub	sp, fp, #4
8002359c:	e8bd8800 	pop	{fp, pc}

800235a0 <iunlockput>:
800235a0:	e92d4800 	push	{fp, lr}
800235a4:	e28db004 	add	fp, sp, #4
800235a8:	e24dd008 	sub	sp, sp, #8
800235ac:	e50b0008 	str	r0, [fp, #-8]
800235b0:	e51b0008 	ldr	r0, [fp, #-8]
800235b4:	ebffff9a 	bl	80023424 <iunlock>
800235b8:	e51b0008 	ldr	r0, [fp, #-8]
800235bc:	ebffffba 	bl	800234ac <iput>
800235c0:	e24bd004 	sub	sp, fp, #4
800235c4:	e8bd8800 	pop	{fp, pc}

800235c8 <bmap>:
800235c8:	e92d4810 	push	{r4, fp, lr}
800235cc:	e28db008 	add	fp, sp, #8
800235d0:	e24dd01c 	sub	sp, sp, #28
800235d4:	e50b0020 	str	r0, [fp, #-32]	; 0xffffffe0
800235d8:	e50b1024 	str	r1, [fp, #-36]	; 0xffffffdc
800235dc:	e51b3024 	ldr	r3, [fp, #-36]	; 0xffffffdc
800235e0:	e353000b 	cmp	r3, #11
800235e4:	8a00001b 	bhi	80023658 <bmap+0x90>
800235e8:	e51b1020 	ldr	r1, [fp, #-32]	; 0xffffffe0
800235ec:	e51b3024 	ldr	r3, [fp, #-36]	; 0xffffffdc
800235f0:	e2832006 	add	r2, r3, #6
800235f4:	e3a03004 	mov	r3, #4
800235f8:	e1a02102 	lsl	r2, r2, #2
800235fc:	e0812002 	add	r2, r1, r2
80023600:	e0823003 	add	r3, r2, r3
80023604:	e5933000 	ldr	r3, [r3]
80023608:	e50b3010 	str	r3, [fp, #-16]
8002360c:	e51b3010 	ldr	r3, [fp, #-16]
80023610:	e3530000 	cmp	r3, #0
80023614:	1a00000d 	bne	80023650 <bmap+0x88>
80023618:	e51b3020 	ldr	r3, [fp, #-32]	; 0xffffffe0
8002361c:	e5933000 	ldr	r3, [r3]
80023620:	e1a00003 	mov	r0, r3
80023624:	ebfffd6a 	bl	80022bd4 <balloc>
80023628:	e50b0010 	str	r0, [fp, #-16]
8002362c:	e51b1020 	ldr	r1, [fp, #-32]	; 0xffffffe0
80023630:	e51b3024 	ldr	r3, [fp, #-36]	; 0xffffffdc
80023634:	e2832006 	add	r2, r3, #6
80023638:	e3a03004 	mov	r3, #4
8002363c:	e1a02102 	lsl	r2, r2, #2
80023640:	e0812002 	add	r2, r1, r2
80023644:	e0823003 	add	r3, r2, r3
80023648:	e51b2010 	ldr	r2, [fp, #-16]
8002364c:	e5832000 	str	r2, [r3]
80023650:	e51b3010 	ldr	r3, [fp, #-16]
80023654:	ea000039 	b	80023740 <bmap+0x178>
80023658:	e51b3024 	ldr	r3, [fp, #-36]	; 0xffffffdc
8002365c:	e243300c 	sub	r3, r3, #12
80023660:	e50b3024 	str	r3, [fp, #-36]	; 0xffffffdc
80023664:	e51b3024 	ldr	r3, [fp, #-36]	; 0xffffffdc
80023668:	e353007f 	cmp	r3, #127	; 0x7f
8002366c:	8a000030 	bhi	80023734 <bmap+0x16c>
80023670:	e51b3020 	ldr	r3, [fp, #-32]	; 0xffffffe0
80023674:	e593304c 	ldr	r3, [r3, #76]	; 0x4c
80023678:	e50b3010 	str	r3, [fp, #-16]
8002367c:	e51b3010 	ldr	r3, [fp, #-16]
80023680:	e3530000 	cmp	r3, #0
80023684:	1a000007 	bne	800236a8 <bmap+0xe0>
80023688:	e51b3020 	ldr	r3, [fp, #-32]	; 0xffffffe0
8002368c:	e5933000 	ldr	r3, [r3]
80023690:	e1a00003 	mov	r0, r3
80023694:	ebfffd4e 	bl	80022bd4 <balloc>
80023698:	e50b0010 	str	r0, [fp, #-16]
8002369c:	e51b3020 	ldr	r3, [fp, #-32]	; 0xffffffe0
800236a0:	e51b2010 	ldr	r2, [fp, #-16]
800236a4:	e583204c 	str	r2, [r3, #76]	; 0x4c
800236a8:	e51b3020 	ldr	r3, [fp, #-32]	; 0xffffffe0
800236ac:	e5933000 	ldr	r3, [r3]
800236b0:	e1a00003 	mov	r0, r3
800236b4:	e51b1010 	ldr	r1, [fp, #-16]
800236b8:	ebfff51a 	bl	80020b28 <bread>
800236bc:	e50b0014 	str	r0, [fp, #-20]	; 0xffffffec
800236c0:	e51b3014 	ldr	r3, [fp, #-20]	; 0xffffffec
800236c4:	e2833018 	add	r3, r3, #24
800236c8:	e50b3018 	str	r3, [fp, #-24]	; 0xffffffe8
800236cc:	e51b3024 	ldr	r3, [fp, #-36]	; 0xffffffdc
800236d0:	e1a03103 	lsl	r3, r3, #2
800236d4:	e51b2018 	ldr	r2, [fp, #-24]	; 0xffffffe8
800236d8:	e0823003 	add	r3, r2, r3
800236dc:	e5933000 	ldr	r3, [r3]
800236e0:	e50b3010 	str	r3, [fp, #-16]
800236e4:	e51b3010 	ldr	r3, [fp, #-16]
800236e8:	e3530000 	cmp	r3, #0
800236ec:	1a00000c 	bne	80023724 <bmap+0x15c>
800236f0:	e51b3024 	ldr	r3, [fp, #-36]	; 0xffffffdc
800236f4:	e1a03103 	lsl	r3, r3, #2
800236f8:	e51b2018 	ldr	r2, [fp, #-24]	; 0xffffffe8
800236fc:	e0824003 	add	r4, r2, r3
80023700:	e51b3020 	ldr	r3, [fp, #-32]	; 0xffffffe0
80023704:	e5933000 	ldr	r3, [r3]
80023708:	e1a00003 	mov	r0, r3
8002370c:	ebfffd30 	bl	80022bd4 <balloc>
80023710:	e50b0010 	str	r0, [fp, #-16]
80023714:	e51b3010 	ldr	r3, [fp, #-16]
80023718:	e5843000 	str	r3, [r4]
8002371c:	e51b0014 	ldr	r0, [fp, #-20]	; 0xffffffec
80023720:	eb0003ea 	bl	800246d0 <log_write>
80023724:	e51b0014 	ldr	r0, [fp, #-20]	; 0xffffffec
80023728:	ebfff527 	bl	80020bcc <brelse>
8002372c:	e51b3010 	ldr	r3, [fp, #-16]
80023730:	ea000002 	b	80023740 <bmap+0x178>
80023734:	e309053c 	movw	r0, #38204	; 0x953c
80023738:	e3480002 	movt	r0, #32770	; 0x8002
8002373c:	ebfff90c 	bl	80021b74 <panic>
80023740:	e1a00003 	mov	r0, r3
80023744:	e24bd008 	sub	sp, fp, #8
80023748:	e8bd8810 	pop	{r4, fp, pc}

8002374c <itrunc>:
8002374c:	e92d4800 	push	{fp, lr}
80023750:	e28db004 	add	fp, sp, #4
80023754:	e24dd018 	sub	sp, sp, #24
80023758:	e50b0018 	str	r0, [fp, #-24]	; 0xffffffe8
8002375c:	e3a03000 	mov	r3, #0
80023760:	e50b3008 	str	r3, [fp, #-8]
80023764:	ea000023 	b	800237f8 <itrunc+0xac>
80023768:	e51b1018 	ldr	r1, [fp, #-24]	; 0xffffffe8
8002376c:	e51b3008 	ldr	r3, [fp, #-8]
80023770:	e2832006 	add	r2, r3, #6
80023774:	e3a03004 	mov	r3, #4
80023778:	e1a02102 	lsl	r2, r2, #2
8002377c:	e0812002 	add	r2, r1, r2
80023780:	e0823003 	add	r3, r2, r3
80023784:	e5933000 	ldr	r3, [r3]
80023788:	e3530000 	cmp	r3, #0
8002378c:	0a000016 	beq	800237ec <itrunc+0xa0>
80023790:	e51b3018 	ldr	r3, [fp, #-24]	; 0xffffffe8
80023794:	e5933000 	ldr	r3, [r3]
80023798:	e1a02003 	mov	r2, r3
8002379c:	e51b0018 	ldr	r0, [fp, #-24]	; 0xffffffe8
800237a0:	e51b3008 	ldr	r3, [fp, #-8]
800237a4:	e2831006 	add	r1, r3, #6
800237a8:	e3a03004 	mov	r3, #4
800237ac:	e1a01101 	lsl	r1, r1, #2
800237b0:	e0801001 	add	r1, r0, r1
800237b4:	e0813003 	add	r3, r1, r3
800237b8:	e5933000 	ldr	r3, [r3]
800237bc:	e1a00002 	mov	r0, r2
800237c0:	e1a01003 	mov	r1, r3
800237c4:	ebfffd7b 	bl	80022db8 <bfree>
800237c8:	e51b1018 	ldr	r1, [fp, #-24]	; 0xffffffe8
800237cc:	e51b3008 	ldr	r3, [fp, #-8]
800237d0:	e2832006 	add	r2, r3, #6
800237d4:	e3a03004 	mov	r3, #4
800237d8:	e1a02102 	lsl	r2, r2, #2
800237dc:	e0812002 	add	r2, r1, r2
800237e0:	e0823003 	add	r3, r2, r3
800237e4:	e3a02000 	mov	r2, #0
800237e8:	e5832000 	str	r2, [r3]
800237ec:	e51b3008 	ldr	r3, [fp, #-8]
800237f0:	e2833001 	add	r3, r3, #1
800237f4:	e50b3008 	str	r3, [fp, #-8]
800237f8:	e51b3008 	ldr	r3, [fp, #-8]
800237fc:	e353000b 	cmp	r3, #11
80023800:	daffffd8 	ble	80023768 <itrunc+0x1c>
80023804:	e51b3018 	ldr	r3, [fp, #-24]	; 0xffffffe8
80023808:	e593304c 	ldr	r3, [r3, #76]	; 0x4c
8002380c:	e3530000 	cmp	r3, #0
80023810:	0a000032 	beq	800238e0 <itrunc+0x194>
80023814:	e51b3018 	ldr	r3, [fp, #-24]	; 0xffffffe8
80023818:	e5932000 	ldr	r2, [r3]
8002381c:	e51b3018 	ldr	r3, [fp, #-24]	; 0xffffffe8
80023820:	e593304c 	ldr	r3, [r3, #76]	; 0x4c
80023824:	e1a00002 	mov	r0, r2
80023828:	e1a01003 	mov	r1, r3
8002382c:	ebfff4bd 	bl	80020b28 <bread>
80023830:	e50b0010 	str	r0, [fp, #-16]
80023834:	e51b3010 	ldr	r3, [fp, #-16]
80023838:	e2833018 	add	r3, r3, #24
8002383c:	e50b3014 	str	r3, [fp, #-20]	; 0xffffffec
80023840:	e3a03000 	mov	r3, #0
80023844:	e50b300c 	str	r3, [fp, #-12]
80023848:	ea000014 	b	800238a0 <itrunc+0x154>
8002384c:	e51b300c 	ldr	r3, [fp, #-12]
80023850:	e1a03103 	lsl	r3, r3, #2
80023854:	e51b2014 	ldr	r2, [fp, #-20]	; 0xffffffec
80023858:	e0823003 	add	r3, r2, r3
8002385c:	e5933000 	ldr	r3, [r3]
80023860:	e3530000 	cmp	r3, #0
80023864:	0a00000a 	beq	80023894 <itrunc+0x148>
80023868:	e51b3018 	ldr	r3, [fp, #-24]	; 0xffffffe8
8002386c:	e5933000 	ldr	r3, [r3]
80023870:	e1a02003 	mov	r2, r3
80023874:	e51b300c 	ldr	r3, [fp, #-12]
80023878:	e1a03103 	lsl	r3, r3, #2
8002387c:	e51b1014 	ldr	r1, [fp, #-20]	; 0xffffffec
80023880:	e0813003 	add	r3, r1, r3
80023884:	e5933000 	ldr	r3, [r3]
80023888:	e1a00002 	mov	r0, r2
8002388c:	e1a01003 	mov	r1, r3
80023890:	ebfffd48 	bl	80022db8 <bfree>
80023894:	e51b300c 	ldr	r3, [fp, #-12]
80023898:	e2833001 	add	r3, r3, #1
8002389c:	e50b300c 	str	r3, [fp, #-12]
800238a0:	e51b300c 	ldr	r3, [fp, #-12]
800238a4:	e353007f 	cmp	r3, #127	; 0x7f
800238a8:	9affffe7 	bls	8002384c <itrunc+0x100>
800238ac:	e51b0010 	ldr	r0, [fp, #-16]
800238b0:	ebfff4c5 	bl	80020bcc <brelse>
800238b4:	e51b3018 	ldr	r3, [fp, #-24]	; 0xffffffe8
800238b8:	e5933000 	ldr	r3, [r3]
800238bc:	e1a02003 	mov	r2, r3
800238c0:	e51b3018 	ldr	r3, [fp, #-24]	; 0xffffffe8
800238c4:	e593304c 	ldr	r3, [r3, #76]	; 0x4c
800238c8:	e1a00002 	mov	r0, r2
800238cc:	e1a01003 	mov	r1, r3
800238d0:	ebfffd38 	bl	80022db8 <bfree>
800238d4:	e51b3018 	ldr	r3, [fp, #-24]	; 0xffffffe8
800238d8:	e3a02000 	mov	r2, #0
800238dc:	e583204c 	str	r2, [r3, #76]	; 0x4c
800238e0:	e51b3018 	ldr	r3, [fp, #-24]	; 0xffffffe8
800238e4:	e3a02000 	mov	r2, #0
800238e8:	e5832018 	str	r2, [r3, #24]
800238ec:	e51b0018 	ldr	r0, [fp, #-24]	; 0xffffffe8
800238f0:	ebfffdc8 	bl	80023018 <iupdate>
800238f4:	e24bd004 	sub	sp, fp, #4
800238f8:	e8bd8800 	pop	{fp, pc}

800238fc <stati>:
800238fc:	e52db004 	push	{fp}		; (str fp, [sp, #-4]!)
80023900:	e28db000 	add	fp, sp, #0
80023904:	e24dd00c 	sub	sp, sp, #12
80023908:	e50b0008 	str	r0, [fp, #-8]
8002390c:	e50b100c 	str	r1, [fp, #-12]
80023910:	e51b3008 	ldr	r3, [fp, #-8]
80023914:	e5933000 	ldr	r3, [r3]
80023918:	e1a02003 	mov	r2, r3
8002391c:	e51b300c 	ldr	r3, [fp, #-12]
80023920:	e5832004 	str	r2, [r3, #4]
80023924:	e51b3008 	ldr	r3, [fp, #-8]
80023928:	e5932004 	ldr	r2, [r3, #4]
8002392c:	e51b300c 	ldr	r3, [fp, #-12]
80023930:	e5832008 	str	r2, [r3, #8]
80023934:	e51b3008 	ldr	r3, [fp, #-8]
80023938:	e1d321b0 	ldrh	r2, [r3, #16]
8002393c:	e51b300c 	ldr	r3, [fp, #-12]
80023940:	e1c320b0 	strh	r2, [r3]
80023944:	e51b3008 	ldr	r3, [fp, #-8]
80023948:	e1d321b6 	ldrh	r2, [r3, #22]
8002394c:	e51b300c 	ldr	r3, [fp, #-12]
80023950:	e1c320bc 	strh	r2, [r3, #12]
80023954:	e51b3008 	ldr	r3, [fp, #-8]
80023958:	e5932018 	ldr	r2, [r3, #24]
8002395c:	e51b300c 	ldr	r3, [fp, #-12]
80023960:	e5832010 	str	r2, [r3, #16]
80023964:	e24bd000 	sub	sp, fp, #0
80023968:	e49db004 	pop	{fp}		; (ldr fp, [sp], #4)
8002396c:	e12fff1e 	bx	lr

80023970 <readi>:
80023970:	e92d4810 	push	{r4, fp, lr}
80023974:	e28db008 	add	fp, sp, #8
80023978:	e24dd024 	sub	sp, sp, #36	; 0x24
8002397c:	e50b0020 	str	r0, [fp, #-32]	; 0xffffffe0
80023980:	e50b1024 	str	r1, [fp, #-36]	; 0xffffffdc
80023984:	e50b2028 	str	r2, [fp, #-40]	; 0xffffffd8
80023988:	e50b302c 	str	r3, [fp, #-44]	; 0xffffffd4
8002398c:	e51b3020 	ldr	r3, [fp, #-32]	; 0xffffffe0
80023990:	e1d331b0 	ldrh	r3, [r3, #16]
80023994:	e6bf3073 	sxth	r3, r3
80023998:	e3530003 	cmp	r3, #3
8002399c:	1a00001f 	bne	80023a20 <readi+0xb0>
800239a0:	e51b3020 	ldr	r3, [fp, #-32]	; 0xffffffe0
800239a4:	e1d331b2 	ldrh	r3, [r3, #18]
800239a8:	e6bf3073 	sxth	r3, r3
800239ac:	e3530000 	cmp	r3, #0
800239b0:	ba00000c 	blt	800239e8 <readi+0x78>
800239b4:	e51b3020 	ldr	r3, [fp, #-32]	; 0xffffffe0
800239b8:	e1d331b2 	ldrh	r3, [r3, #18]
800239bc:	e6bf3073 	sxth	r3, r3
800239c0:	e3530009 	cmp	r3, #9
800239c4:	ca000007 	bgt	800239e8 <readi+0x78>
800239c8:	e51b3020 	ldr	r3, [fp, #-32]	; 0xffffffe0
800239cc:	e1d331b2 	ldrh	r3, [r3, #18]
800239d0:	e6bf2073 	sxth	r2, r3
800239d4:	e30c3484 	movw	r3, #50308	; 0xc484
800239d8:	e348300a 	movt	r3, #32778	; 0x800a
800239dc:	e7933182 	ldr	r3, [r3, r2, lsl #3]
800239e0:	e3530000 	cmp	r3, #0
800239e4:	1a000001 	bne	800239f0 <readi+0x80>
800239e8:	e3e03000 	mvn	r3, #0
800239ec:	ea000058 	b	80023b54 <readi+0x1e4>
800239f0:	e51b3020 	ldr	r3, [fp, #-32]	; 0xffffffe0
800239f4:	e1d331b2 	ldrh	r3, [r3, #18]
800239f8:	e6bf2073 	sxth	r2, r3
800239fc:	e30c3484 	movw	r3, #50308	; 0xc484
80023a00:	e348300a 	movt	r3, #32778	; 0x800a
80023a04:	e7933182 	ldr	r3, [r3, r2, lsl #3]
80023a08:	e51b202c 	ldr	r2, [fp, #-44]	; 0xffffffd4
80023a0c:	e51b0020 	ldr	r0, [fp, #-32]	; 0xffffffe0
80023a10:	e51b1024 	ldr	r1, [fp, #-36]	; 0xffffffdc
80023a14:	e12fff33 	blx	r3
80023a18:	e1a03000 	mov	r3, r0
80023a1c:	ea00004c 	b	80023b54 <readi+0x1e4>
80023a20:	e51b3020 	ldr	r3, [fp, #-32]	; 0xffffffe0
80023a24:	e5932018 	ldr	r2, [r3, #24]
80023a28:	e51b3028 	ldr	r3, [fp, #-40]	; 0xffffffd8
80023a2c:	e1520003 	cmp	r2, r3
80023a30:	3a000005 	bcc	80023a4c <readi+0xdc>
80023a34:	e51b2028 	ldr	r2, [fp, #-40]	; 0xffffffd8
80023a38:	e51b302c 	ldr	r3, [fp, #-44]	; 0xffffffd4
80023a3c:	e0822003 	add	r2, r2, r3
80023a40:	e51b3028 	ldr	r3, [fp, #-40]	; 0xffffffd8
80023a44:	e1520003 	cmp	r2, r3
80023a48:	2a000001 	bcs	80023a54 <readi+0xe4>
80023a4c:	e3e03000 	mvn	r3, #0
80023a50:	ea00003f 	b	80023b54 <readi+0x1e4>
80023a54:	e51b2028 	ldr	r2, [fp, #-40]	; 0xffffffd8
80023a58:	e51b302c 	ldr	r3, [fp, #-44]	; 0xffffffd4
80023a5c:	e0822003 	add	r2, r2, r3
80023a60:	e51b3020 	ldr	r3, [fp, #-32]	; 0xffffffe0
80023a64:	e5933018 	ldr	r3, [r3, #24]
80023a68:	e1520003 	cmp	r2, r3
80023a6c:	9a000004 	bls	80023a84 <readi+0x114>
80023a70:	e51b3020 	ldr	r3, [fp, #-32]	; 0xffffffe0
80023a74:	e5932018 	ldr	r2, [r3, #24]
80023a78:	e51b3028 	ldr	r3, [fp, #-40]	; 0xffffffd8
80023a7c:	e0633002 	rsb	r3, r3, r2
80023a80:	e50b302c 	str	r3, [fp, #-44]	; 0xffffffd4
80023a84:	e3a03000 	mov	r3, #0
80023a88:	e50b3010 	str	r3, [fp, #-16]
80023a8c:	ea00002b 	b	80023b40 <readi+0x1d0>
80023a90:	e51b3020 	ldr	r3, [fp, #-32]	; 0xffffffe0
80023a94:	e5934000 	ldr	r4, [r3]
80023a98:	e51b3028 	ldr	r3, [fp, #-40]	; 0xffffffd8
80023a9c:	e1a034a3 	lsr	r3, r3, #9
80023aa0:	e51b0020 	ldr	r0, [fp, #-32]	; 0xffffffe0
80023aa4:	e1a01003 	mov	r1, r3
80023aa8:	ebfffec6 	bl	800235c8 <bmap>
80023aac:	e1a03000 	mov	r3, r0
80023ab0:	e1a00004 	mov	r0, r4
80023ab4:	e1a01003 	mov	r1, r3
80023ab8:	ebfff41a 	bl	80020b28 <bread>
80023abc:	e50b0014 	str	r0, [fp, #-20]	; 0xffffffec
80023ac0:	e51b3028 	ldr	r3, [fp, #-40]	; 0xffffffd8
80023ac4:	e7e83053 	ubfx	r3, r3, #0, #9
80023ac8:	e2632c02 	rsb	r2, r3, #512	; 0x200
80023acc:	e51b102c 	ldr	r1, [fp, #-44]	; 0xffffffd4
80023ad0:	e51b3010 	ldr	r3, [fp, #-16]
80023ad4:	e0633001 	rsb	r3, r3, r1
80023ad8:	e1520003 	cmp	r2, r3
80023adc:	31a03002 	movcc	r3, r2
80023ae0:	e50b3018 	str	r3, [fp, #-24]	; 0xffffffe8
80023ae4:	e51b3028 	ldr	r3, [fp, #-40]	; 0xffffffd8
80023ae8:	e7e83053 	ubfx	r3, r3, #0, #9
80023aec:	e2833018 	add	r3, r3, #24
80023af0:	e51b2014 	ldr	r2, [fp, #-20]	; 0xffffffec
80023af4:	e0823003 	add	r3, r2, r3
80023af8:	e51b0024 	ldr	r0, [fp, #-36]	; 0xffffffdc
80023afc:	e1a01003 	mov	r1, r3
80023b00:	e51b2018 	ldr	r2, [fp, #-24]	; 0xffffffe8
80023b04:	ebfff1ae 	bl	800201c4 <memmove>
80023b08:	e51b0014 	ldr	r0, [fp, #-20]	; 0xffffffec
80023b0c:	ebfff42e 	bl	80020bcc <brelse>
80023b10:	e51b2010 	ldr	r2, [fp, #-16]
80023b14:	e51b3018 	ldr	r3, [fp, #-24]	; 0xffffffe8
80023b18:	e0823003 	add	r3, r2, r3
80023b1c:	e50b3010 	str	r3, [fp, #-16]
80023b20:	e51b2028 	ldr	r2, [fp, #-40]	; 0xffffffd8
80023b24:	e51b3018 	ldr	r3, [fp, #-24]	; 0xffffffe8
80023b28:	e0823003 	add	r3, r2, r3
80023b2c:	e50b3028 	str	r3, [fp, #-40]	; 0xffffffd8
80023b30:	e51b2024 	ldr	r2, [fp, #-36]	; 0xffffffdc
80023b34:	e51b3018 	ldr	r3, [fp, #-24]	; 0xffffffe8
80023b38:	e0823003 	add	r3, r2, r3
80023b3c:	e50b3024 	str	r3, [fp, #-36]	; 0xffffffdc
80023b40:	e51b2010 	ldr	r2, [fp, #-16]
80023b44:	e51b302c 	ldr	r3, [fp, #-44]	; 0xffffffd4
80023b48:	e1520003 	cmp	r2, r3
80023b4c:	3affffcf 	bcc	80023a90 <readi+0x120>
80023b50:	e51b302c 	ldr	r3, [fp, #-44]	; 0xffffffd4
80023b54:	e1a00003 	mov	r0, r3
80023b58:	e24bd008 	sub	sp, fp, #8
80023b5c:	e8bd8810 	pop	{r4, fp, pc}

80023b60 <writei>:
80023b60:	e92d4810 	push	{r4, fp, lr}
80023b64:	e28db008 	add	fp, sp, #8
80023b68:	e24dd024 	sub	sp, sp, #36	; 0x24
80023b6c:	e50b0020 	str	r0, [fp, #-32]	; 0xffffffe0
80023b70:	e50b1024 	str	r1, [fp, #-36]	; 0xffffffdc
80023b74:	e50b2028 	str	r2, [fp, #-40]	; 0xffffffd8
80023b78:	e50b302c 	str	r3, [fp, #-44]	; 0xffffffd4
80023b7c:	e51b3020 	ldr	r3, [fp, #-32]	; 0xffffffe0
80023b80:	e1d331b0 	ldrh	r3, [r3, #16]
80023b84:	e6bf3073 	sxth	r3, r3
80023b88:	e3530003 	cmp	r3, #3
80023b8c:	1a000027 	bne	80023c30 <writei+0xd0>
80023b90:	e51b3020 	ldr	r3, [fp, #-32]	; 0xffffffe0
80023b94:	e1d331b2 	ldrh	r3, [r3, #18]
80023b98:	e6bf3073 	sxth	r3, r3
80023b9c:	e3530000 	cmp	r3, #0
80023ba0:	ba000010 	blt	80023be8 <writei+0x88>
80023ba4:	e51b3020 	ldr	r3, [fp, #-32]	; 0xffffffe0
80023ba8:	e1d331b2 	ldrh	r3, [r3, #18]
80023bac:	e6bf3073 	sxth	r3, r3
80023bb0:	e3530009 	cmp	r3, #9
80023bb4:	ca00000b 	bgt	80023be8 <writei+0x88>
80023bb8:	e51b3020 	ldr	r3, [fp, #-32]	; 0xffffffe0
80023bbc:	e1d331b2 	ldrh	r3, [r3, #18]
80023bc0:	e6bf1073 	sxth	r1, r3
80023bc4:	e30c3484 	movw	r3, #50308	; 0xc484
80023bc8:	e348300a 	movt	r3, #32778	; 0x800a
80023bcc:	e3a02004 	mov	r2, #4
80023bd0:	e1a01181 	lsl	r1, r1, #3
80023bd4:	e0833001 	add	r3, r3, r1
80023bd8:	e0833002 	add	r3, r3, r2
80023bdc:	e5933000 	ldr	r3, [r3]
80023be0:	e3530000 	cmp	r3, #0
80023be4:	1a000001 	bne	80023bf0 <writei+0x90>
80023be8:	e3e03000 	mvn	r3, #0
80023bec:	ea000066 	b	80023d8c <writei+0x22c>
80023bf0:	e51b3020 	ldr	r3, [fp, #-32]	; 0xffffffe0
80023bf4:	e1d331b2 	ldrh	r3, [r3, #18]
80023bf8:	e6bf1073 	sxth	r1, r3
80023bfc:	e30c3484 	movw	r3, #50308	; 0xc484
80023c00:	e348300a 	movt	r3, #32778	; 0x800a
80023c04:	e3a02004 	mov	r2, #4
80023c08:	e1a01181 	lsl	r1, r1, #3
80023c0c:	e0833001 	add	r3, r3, r1
80023c10:	e0833002 	add	r3, r3, r2
80023c14:	e5933000 	ldr	r3, [r3]
80023c18:	e51b202c 	ldr	r2, [fp, #-44]	; 0xffffffd4
80023c1c:	e51b0020 	ldr	r0, [fp, #-32]	; 0xffffffe0
80023c20:	e51b1024 	ldr	r1, [fp, #-36]	; 0xffffffdc
80023c24:	e12fff33 	blx	r3
80023c28:	e1a03000 	mov	r3, r0
80023c2c:	ea000056 	b	80023d8c <writei+0x22c>
80023c30:	e51b3020 	ldr	r3, [fp, #-32]	; 0xffffffe0
80023c34:	e5932018 	ldr	r2, [r3, #24]
80023c38:	e51b3028 	ldr	r3, [fp, #-40]	; 0xffffffd8
80023c3c:	e1520003 	cmp	r2, r3
80023c40:	3a000005 	bcc	80023c5c <writei+0xfc>
80023c44:	e51b2028 	ldr	r2, [fp, #-40]	; 0xffffffd8
80023c48:	e51b302c 	ldr	r3, [fp, #-44]	; 0xffffffd4
80023c4c:	e0822003 	add	r2, r2, r3
80023c50:	e51b3028 	ldr	r3, [fp, #-40]	; 0xffffffd8
80023c54:	e1520003 	cmp	r2, r3
80023c58:	2a000001 	bcs	80023c64 <writei+0x104>
80023c5c:	e3e03000 	mvn	r3, #0
80023c60:	ea000049 	b	80023d8c <writei+0x22c>
80023c64:	e51b2028 	ldr	r2, [fp, #-40]	; 0xffffffd8
80023c68:	e51b302c 	ldr	r3, [fp, #-44]	; 0xffffffd4
80023c6c:	e0823003 	add	r3, r2, r3
80023c70:	e3530b46 	cmp	r3, #71680	; 0x11800
80023c74:	9a000001 	bls	80023c80 <writei+0x120>
80023c78:	e3e03000 	mvn	r3, #0
80023c7c:	ea000042 	b	80023d8c <writei+0x22c>
80023c80:	e3a03000 	mov	r3, #0
80023c84:	e50b3010 	str	r3, [fp, #-16]
80023c88:	ea00002d 	b	80023d44 <writei+0x1e4>
80023c8c:	e51b3020 	ldr	r3, [fp, #-32]	; 0xffffffe0
80023c90:	e5934000 	ldr	r4, [r3]
80023c94:	e51b3028 	ldr	r3, [fp, #-40]	; 0xffffffd8
80023c98:	e1a034a3 	lsr	r3, r3, #9
80023c9c:	e51b0020 	ldr	r0, [fp, #-32]	; 0xffffffe0
80023ca0:	e1a01003 	mov	r1, r3
80023ca4:	ebfffe47 	bl	800235c8 <bmap>
80023ca8:	e1a03000 	mov	r3, r0
80023cac:	e1a00004 	mov	r0, r4
80023cb0:	e1a01003 	mov	r1, r3
80023cb4:	ebfff39b 	bl	80020b28 <bread>
80023cb8:	e50b0014 	str	r0, [fp, #-20]	; 0xffffffec
80023cbc:	e51b3028 	ldr	r3, [fp, #-40]	; 0xffffffd8
80023cc0:	e7e83053 	ubfx	r3, r3, #0, #9
80023cc4:	e2632c02 	rsb	r2, r3, #512	; 0x200
80023cc8:	e51b102c 	ldr	r1, [fp, #-44]	; 0xffffffd4
80023ccc:	e51b3010 	ldr	r3, [fp, #-16]
80023cd0:	e0633001 	rsb	r3, r3, r1
80023cd4:	e1520003 	cmp	r2, r3
80023cd8:	31a03002 	movcc	r3, r2
80023cdc:	e50b3018 	str	r3, [fp, #-24]	; 0xffffffe8
80023ce0:	e51b3028 	ldr	r3, [fp, #-40]	; 0xffffffd8
80023ce4:	e7e83053 	ubfx	r3, r3, #0, #9
80023ce8:	e2833018 	add	r3, r3, #24
80023cec:	e51b2014 	ldr	r2, [fp, #-20]	; 0xffffffec
80023cf0:	e0823003 	add	r3, r2, r3
80023cf4:	e1a00003 	mov	r0, r3
80023cf8:	e51b1024 	ldr	r1, [fp, #-36]	; 0xffffffdc
80023cfc:	e51b2018 	ldr	r2, [fp, #-24]	; 0xffffffe8
80023d00:	ebfff12f 	bl	800201c4 <memmove>
80023d04:	e51b0014 	ldr	r0, [fp, #-20]	; 0xffffffec
80023d08:	eb000270 	bl	800246d0 <log_write>
80023d0c:	e51b0014 	ldr	r0, [fp, #-20]	; 0xffffffec
80023d10:	ebfff3ad 	bl	80020bcc <brelse>
80023d14:	e51b2010 	ldr	r2, [fp, #-16]
80023d18:	e51b3018 	ldr	r3, [fp, #-24]	; 0xffffffe8
80023d1c:	e0823003 	add	r3, r2, r3
80023d20:	e50b3010 	str	r3, [fp, #-16]
80023d24:	e51b2028 	ldr	r2, [fp, #-40]	; 0xffffffd8
80023d28:	e51b3018 	ldr	r3, [fp, #-24]	; 0xffffffe8
80023d2c:	e0823003 	add	r3, r2, r3
80023d30:	e50b3028 	str	r3, [fp, #-40]	; 0xffffffd8
80023d34:	e51b2024 	ldr	r2, [fp, #-36]	; 0xffffffdc
80023d38:	e51b3018 	ldr	r3, [fp, #-24]	; 0xffffffe8
80023d3c:	e0823003 	add	r3, r2, r3
80023d40:	e50b3024 	str	r3, [fp, #-36]	; 0xffffffdc
80023d44:	e51b2010 	ldr	r2, [fp, #-16]
80023d48:	e51b302c 	ldr	r3, [fp, #-44]	; 0xffffffd4
80023d4c:	e1520003 	cmp	r2, r3
80023d50:	3affffcd 	bcc	80023c8c <writei+0x12c>
80023d54:	e51b302c 	ldr	r3, [fp, #-44]	; 0xffffffd4
80023d58:	e3530000 	cmp	r3, #0
80023d5c:	0a000009 	beq	80023d88 <writei+0x228>
80023d60:	e51b3020 	ldr	r3, [fp, #-32]	; 0xffffffe0
80023d64:	e5932018 	ldr	r2, [r3, #24]
80023d68:	e51b3028 	ldr	r3, [fp, #-40]	; 0xffffffd8
80023d6c:	e1520003 	cmp	r2, r3
80023d70:	2a000004 	bcs	80023d88 <writei+0x228>
80023d74:	e51b3020 	ldr	r3, [fp, #-32]	; 0xffffffe0
80023d78:	e51b2028 	ldr	r2, [fp, #-40]	; 0xffffffd8
80023d7c:	e5832018 	str	r2, [r3, #24]
80023d80:	e51b0020 	ldr	r0, [fp, #-32]	; 0xffffffe0
80023d84:	ebfffca3 	bl	80023018 <iupdate>
80023d88:	e51b302c 	ldr	r3, [fp, #-44]	; 0xffffffd4
80023d8c:	e1a00003 	mov	r0, r3
80023d90:	e24bd008 	sub	sp, fp, #8
80023d94:	e8bd8810 	pop	{r4, fp, pc}

80023d98 <namecmp>:
80023d98:	e92d4800 	push	{fp, lr}
80023d9c:	e28db004 	add	fp, sp, #4
80023da0:	e24dd008 	sub	sp, sp, #8
80023da4:	e50b0008 	str	r0, [fp, #-8]
80023da8:	e50b100c 	str	r1, [fp, #-12]
80023dac:	e51b0008 	ldr	r0, [fp, #-8]
80023db0:	e51b100c 	ldr	r1, [fp, #-12]
80023db4:	e3a0200e 	mov	r2, #14
80023db8:	ebfff14f 	bl	800202fc <strncmp>
80023dbc:	e1a03000 	mov	r3, r0
80023dc0:	e1a00003 	mov	r0, r3
80023dc4:	e24bd004 	sub	sp, fp, #4
80023dc8:	e8bd8800 	pop	{fp, pc}

80023dcc <dirlookup>:
80023dcc:	e92d4800 	push	{fp, lr}
80023dd0:	e28db004 	add	fp, sp, #4
80023dd4:	e24dd028 	sub	sp, sp, #40	; 0x28
80023dd8:	e50b0020 	str	r0, [fp, #-32]	; 0xffffffe0
80023ddc:	e50b1024 	str	r1, [fp, #-36]	; 0xffffffdc
80023de0:	e50b2028 	str	r2, [fp, #-40]	; 0xffffffd8
80023de4:	e51b3020 	ldr	r3, [fp, #-32]	; 0xffffffe0
80023de8:	e1d331b0 	ldrh	r3, [r3, #16]
80023dec:	e6bf3073 	sxth	r3, r3
80023df0:	e3530001 	cmp	r3, #1
80023df4:	0a000002 	beq	80023e04 <dirlookup+0x38>
80023df8:	e3090550 	movw	r0, #38224	; 0x9550
80023dfc:	e3480002 	movt	r0, #32770	; 0x8002
80023e00:	ebfff75b 	bl	80021b74 <panic>
80023e04:	e3a03000 	mov	r3, #0
80023e08:	e50b3008 	str	r3, [fp, #-8]
80023e0c:	ea000029 	b	80023eb8 <dirlookup+0xec>
80023e10:	e24b301c 	sub	r3, fp, #28
80023e14:	e51b0020 	ldr	r0, [fp, #-32]	; 0xffffffe0
80023e18:	e1a01003 	mov	r1, r3
80023e1c:	e51b2008 	ldr	r2, [fp, #-8]
80023e20:	e3a03010 	mov	r3, #16
80023e24:	ebfffed1 	bl	80023970 <readi>
80023e28:	e1a03000 	mov	r3, r0
80023e2c:	e3530010 	cmp	r3, #16
80023e30:	0a000002 	beq	80023e40 <dirlookup+0x74>
80023e34:	e3090564 	movw	r0, #38244	; 0x9564
80023e38:	e3480002 	movt	r0, #32770	; 0x8002
80023e3c:	ebfff74c 	bl	80021b74 <panic>
80023e40:	e15b31bc 	ldrh	r3, [fp, #-28]	; 0xffffffe4
80023e44:	e3530000 	cmp	r3, #0
80023e48:	1a000000 	bne	80023e50 <dirlookup+0x84>
80023e4c:	ea000016 	b	80023eac <dirlookup+0xe0>
80023e50:	e24b301c 	sub	r3, fp, #28
80023e54:	e2833002 	add	r3, r3, #2
80023e58:	e51b0024 	ldr	r0, [fp, #-36]	; 0xffffffdc
80023e5c:	e1a01003 	mov	r1, r3
80023e60:	ebffffcc 	bl	80023d98 <namecmp>
80023e64:	e1a03000 	mov	r3, r0
80023e68:	e3530000 	cmp	r3, #0
80023e6c:	1a00000e 	bne	80023eac <dirlookup+0xe0>
80023e70:	e51b3028 	ldr	r3, [fp, #-40]	; 0xffffffd8
80023e74:	e3530000 	cmp	r3, #0
80023e78:	0a000002 	beq	80023e88 <dirlookup+0xbc>
80023e7c:	e51b3028 	ldr	r3, [fp, #-40]	; 0xffffffd8
80023e80:	e51b2008 	ldr	r2, [fp, #-8]
80023e84:	e5832000 	str	r2, [r3]
80023e88:	e15b31bc 	ldrh	r3, [fp, #-28]	; 0xffffffe4
80023e8c:	e50b300c 	str	r3, [fp, #-12]
80023e90:	e51b3020 	ldr	r3, [fp, #-32]	; 0xffffffe0
80023e94:	e5933000 	ldr	r3, [r3]
80023e98:	e1a00003 	mov	r0, r3
80023e9c:	e51b100c 	ldr	r1, [fp, #-12]
80023ea0:	ebfffc94 	bl	800230f8 <iget>
80023ea4:	e1a03000 	mov	r3, r0
80023ea8:	ea000008 	b	80023ed0 <dirlookup+0x104>
80023eac:	e51b3008 	ldr	r3, [fp, #-8]
80023eb0:	e2833010 	add	r3, r3, #16
80023eb4:	e50b3008 	str	r3, [fp, #-8]
80023eb8:	e51b3020 	ldr	r3, [fp, #-32]	; 0xffffffe0
80023ebc:	e5932018 	ldr	r2, [r3, #24]
80023ec0:	e51b3008 	ldr	r3, [fp, #-8]
80023ec4:	e1520003 	cmp	r2, r3
80023ec8:	8affffd0 	bhi	80023e10 <dirlookup+0x44>
80023ecc:	e3a03000 	mov	r3, #0
80023ed0:	e1a00003 	mov	r0, r3
80023ed4:	e24bd004 	sub	sp, fp, #4
80023ed8:	e8bd8800 	pop	{fp, pc}

80023edc <dirlink>:
80023edc:	e92d4800 	push	{fp, lr}
80023ee0:	e28db004 	add	fp, sp, #4
80023ee4:	e24dd028 	sub	sp, sp, #40	; 0x28
80023ee8:	e50b0020 	str	r0, [fp, #-32]	; 0xffffffe0
80023eec:	e50b1024 	str	r1, [fp, #-36]	; 0xffffffdc
80023ef0:	e50b2028 	str	r2, [fp, #-40]	; 0xffffffd8
80023ef4:	e51b0020 	ldr	r0, [fp, #-32]	; 0xffffffe0
80023ef8:	e51b1024 	ldr	r1, [fp, #-36]	; 0xffffffdc
80023efc:	e3a02000 	mov	r2, #0
80023f00:	ebffffb1 	bl	80023dcc <dirlookup>
80023f04:	e50b000c 	str	r0, [fp, #-12]
80023f08:	e51b300c 	ldr	r3, [fp, #-12]
80023f0c:	e3530000 	cmp	r3, #0
80023f10:	0a000003 	beq	80023f24 <dirlink+0x48>
80023f14:	e51b000c 	ldr	r0, [fp, #-12]
80023f18:	ebfffd63 	bl	800234ac <iput>
80023f1c:	e3e03000 	mvn	r3, #0
80023f20:	ea000032 	b	80023ff0 <dirlink+0x114>
80023f24:	e3a03000 	mov	r3, #0
80023f28:	e50b3008 	str	r3, [fp, #-8]
80023f2c:	ea000013 	b	80023f80 <dirlink+0xa4>
80023f30:	e51b3008 	ldr	r3, [fp, #-8]
80023f34:	e24b201c 	sub	r2, fp, #28
80023f38:	e51b0020 	ldr	r0, [fp, #-32]	; 0xffffffe0
80023f3c:	e1a01002 	mov	r1, r2
80023f40:	e1a02003 	mov	r2, r3
80023f44:	e3a03010 	mov	r3, #16
80023f48:	ebfffe88 	bl	80023970 <readi>
80023f4c:	e1a03000 	mov	r3, r0
80023f50:	e3530010 	cmp	r3, #16
80023f54:	0a000002 	beq	80023f64 <dirlink+0x88>
80023f58:	e3090564 	movw	r0, #38244	; 0x9564
80023f5c:	e3480002 	movt	r0, #32770	; 0x8002
80023f60:	ebfff703 	bl	80021b74 <panic>
80023f64:	e15b31bc 	ldrh	r3, [fp, #-28]	; 0xffffffe4
80023f68:	e3530000 	cmp	r3, #0
80023f6c:	1a000000 	bne	80023f74 <dirlink+0x98>
80023f70:	ea000007 	b	80023f94 <dirlink+0xb8>
80023f74:	e51b3008 	ldr	r3, [fp, #-8]
80023f78:	e2833010 	add	r3, r3, #16
80023f7c:	e50b3008 	str	r3, [fp, #-8]
80023f80:	e51b2008 	ldr	r2, [fp, #-8]
80023f84:	e51b3020 	ldr	r3, [fp, #-32]	; 0xffffffe0
80023f88:	e5933018 	ldr	r3, [r3, #24]
80023f8c:	e1520003 	cmp	r2, r3
80023f90:	3affffe6 	bcc	80023f30 <dirlink+0x54>
80023f94:	e24b301c 	sub	r3, fp, #28
80023f98:	e2833002 	add	r3, r3, #2
80023f9c:	e1a00003 	mov	r0, r3
80023fa0:	e51b1024 	ldr	r1, [fp, #-36]	; 0xffffffdc
80023fa4:	e3a0200e 	mov	r2, #14
80023fa8:	ebfff0ff 	bl	800203ac <strncpy>
80023fac:	e51b3028 	ldr	r3, [fp, #-40]	; 0xffffffd8
80023fb0:	e6ff3073 	uxth	r3, r3
80023fb4:	e14b31bc 	strh	r3, [fp, #-28]	; 0xffffffe4
80023fb8:	e51b3008 	ldr	r3, [fp, #-8]
80023fbc:	e24b201c 	sub	r2, fp, #28
80023fc0:	e51b0020 	ldr	r0, [fp, #-32]	; 0xffffffe0
80023fc4:	e1a01002 	mov	r1, r2
80023fc8:	e1a02003 	mov	r2, r3
80023fcc:	e3a03010 	mov	r3, #16
80023fd0:	ebfffee2 	bl	80023b60 <writei>
80023fd4:	e1a03000 	mov	r3, r0
80023fd8:	e3530010 	cmp	r3, #16
80023fdc:	0a000002 	beq	80023fec <dirlink+0x110>
80023fe0:	e3090574 	movw	r0, #38260	; 0x9574
80023fe4:	e3480002 	movt	r0, #32770	; 0x8002
80023fe8:	ebfff6e1 	bl	80021b74 <panic>
80023fec:	e3a03000 	mov	r3, #0
80023ff0:	e1a00003 	mov	r0, r3
80023ff4:	e24bd004 	sub	sp, fp, #4
80023ff8:	e8bd8800 	pop	{fp, pc}

80023ffc <skipelem>:
80023ffc:	e92d4800 	push	{fp, lr}
80024000:	e28db004 	add	fp, sp, #4
80024004:	e24dd010 	sub	sp, sp, #16
80024008:	e50b0010 	str	r0, [fp, #-16]
8002400c:	e50b1014 	str	r1, [fp, #-20]	; 0xffffffec
80024010:	ea000002 	b	80024020 <skipelem+0x24>
80024014:	e51b3010 	ldr	r3, [fp, #-16]
80024018:	e2833001 	add	r3, r3, #1
8002401c:	e50b3010 	str	r3, [fp, #-16]
80024020:	e51b3010 	ldr	r3, [fp, #-16]
80024024:	e5d33000 	ldrb	r3, [r3]
80024028:	e353002f 	cmp	r3, #47	; 0x2f
8002402c:	0afffff8 	beq	80024014 <skipelem+0x18>
80024030:	e51b3010 	ldr	r3, [fp, #-16]
80024034:	e5d33000 	ldrb	r3, [r3]
80024038:	e3530000 	cmp	r3, #0
8002403c:	1a000001 	bne	80024048 <skipelem+0x4c>
80024040:	e3a03000 	mov	r3, #0
80024044:	ea00002c 	b	800240fc <skipelem+0x100>
80024048:	e51b3010 	ldr	r3, [fp, #-16]
8002404c:	e50b3008 	str	r3, [fp, #-8]
80024050:	ea000002 	b	80024060 <skipelem+0x64>
80024054:	e51b3010 	ldr	r3, [fp, #-16]
80024058:	e2833001 	add	r3, r3, #1
8002405c:	e50b3010 	str	r3, [fp, #-16]
80024060:	e51b3010 	ldr	r3, [fp, #-16]
80024064:	e5d33000 	ldrb	r3, [r3]
80024068:	e353002f 	cmp	r3, #47	; 0x2f
8002406c:	0a000003 	beq	80024080 <skipelem+0x84>
80024070:	e51b3010 	ldr	r3, [fp, #-16]
80024074:	e5d33000 	ldrb	r3, [r3]
80024078:	e3530000 	cmp	r3, #0
8002407c:	1afffff4 	bne	80024054 <skipelem+0x58>
80024080:	e51b2010 	ldr	r2, [fp, #-16]
80024084:	e51b3008 	ldr	r3, [fp, #-8]
80024088:	e0633002 	rsb	r3, r3, r2
8002408c:	e50b300c 	str	r3, [fp, #-12]
80024090:	e51b300c 	ldr	r3, [fp, #-12]
80024094:	e353000d 	cmp	r3, #13
80024098:	da000004 	ble	800240b0 <skipelem+0xb4>
8002409c:	e51b0014 	ldr	r0, [fp, #-20]	; 0xffffffec
800240a0:	e51b1008 	ldr	r1, [fp, #-8]
800240a4:	e3a0200e 	mov	r2, #14
800240a8:	ebfff045 	bl	800201c4 <memmove>
800240ac:	ea00000d 	b	800240e8 <skipelem+0xec>
800240b0:	e51b300c 	ldr	r3, [fp, #-12]
800240b4:	e51b0014 	ldr	r0, [fp, #-20]	; 0xffffffec
800240b8:	e51b1008 	ldr	r1, [fp, #-8]
800240bc:	e1a02003 	mov	r2, r3
800240c0:	ebfff03f 	bl	800201c4 <memmove>
800240c4:	e51b300c 	ldr	r3, [fp, #-12]
800240c8:	e51b2014 	ldr	r2, [fp, #-20]	; 0xffffffec
800240cc:	e0823003 	add	r3, r2, r3
800240d0:	e3a02000 	mov	r2, #0
800240d4:	e5c32000 	strb	r2, [r3]
800240d8:	ea000002 	b	800240e8 <skipelem+0xec>
800240dc:	e51b3010 	ldr	r3, [fp, #-16]
800240e0:	e2833001 	add	r3, r3, #1
800240e4:	e50b3010 	str	r3, [fp, #-16]
800240e8:	e51b3010 	ldr	r3, [fp, #-16]
800240ec:	e5d33000 	ldrb	r3, [r3]
800240f0:	e353002f 	cmp	r3, #47	; 0x2f
800240f4:	0afffff8 	beq	800240dc <skipelem+0xe0>
800240f8:	e51b3010 	ldr	r3, [fp, #-16]
800240fc:	e1a00003 	mov	r0, r3
80024100:	e24bd004 	sub	sp, fp, #4
80024104:	e8bd8800 	pop	{fp, pc}

80024108 <namex>:
80024108:	e92d4800 	push	{fp, lr}
8002410c:	e28db004 	add	fp, sp, #4
80024110:	e24dd018 	sub	sp, sp, #24
80024114:	e50b0010 	str	r0, [fp, #-16]
80024118:	e50b1014 	str	r1, [fp, #-20]	; 0xffffffec
8002411c:	e50b2018 	str	r2, [fp, #-24]	; 0xffffffe8
80024120:	e51b3010 	ldr	r3, [fp, #-16]
80024124:	e5d33000 	ldrb	r3, [r3]
80024128:	e353002f 	cmp	r3, #47	; 0x2f
8002412c:	1a000004 	bne	80024144 <namex+0x3c>
80024130:	e3a00001 	mov	r0, #1
80024134:	e3a01001 	mov	r1, #1
80024138:	ebfffbee 	bl	800230f8 <iget>
8002413c:	e50b0008 	str	r0, [fp, #-8]
80024140:	ea00002d 	b	800241fc <namex+0xf4>
80024144:	e30d3608 	movw	r3, #54792	; 0xd608
80024148:	e348300a 	movt	r3, #32778	; 0x800a
8002414c:	e5933000 	ldr	r3, [r3]
80024150:	e5933068 	ldr	r3, [r3, #104]	; 0x68
80024154:	e1a00003 	mov	r0, r3
80024158:	ebfffc38 	bl	80023240 <idup>
8002415c:	e50b0008 	str	r0, [fp, #-8]
80024160:	ea000025 	b	800241fc <namex+0xf4>
80024164:	e51b0008 	ldr	r0, [fp, #-8]
80024168:	ebfffc47 	bl	8002328c <ilock>
8002416c:	e51b3008 	ldr	r3, [fp, #-8]
80024170:	e1d331b0 	ldrh	r3, [r3, #16]
80024174:	e6bf3073 	sxth	r3, r3
80024178:	e3530001 	cmp	r3, #1
8002417c:	0a000003 	beq	80024190 <namex+0x88>
80024180:	e51b0008 	ldr	r0, [fp, #-8]
80024184:	ebfffd05 	bl	800235a0 <iunlockput>
80024188:	e3a03000 	mov	r3, #0
8002418c:	ea000029 	b	80024238 <namex+0x130>
80024190:	e51b3014 	ldr	r3, [fp, #-20]	; 0xffffffec
80024194:	e3530000 	cmp	r3, #0
80024198:	0a000007 	beq	800241bc <namex+0xb4>
8002419c:	e51b3010 	ldr	r3, [fp, #-16]
800241a0:	e5d33000 	ldrb	r3, [r3]
800241a4:	e3530000 	cmp	r3, #0
800241a8:	1a000003 	bne	800241bc <namex+0xb4>
800241ac:	e51b0008 	ldr	r0, [fp, #-8]
800241b0:	ebfffc9b 	bl	80023424 <iunlock>
800241b4:	e51b3008 	ldr	r3, [fp, #-8]
800241b8:	ea00001e 	b	80024238 <namex+0x130>
800241bc:	e51b0008 	ldr	r0, [fp, #-8]
800241c0:	e51b1018 	ldr	r1, [fp, #-24]	; 0xffffffe8
800241c4:	e3a02000 	mov	r2, #0
800241c8:	ebfffeff 	bl	80023dcc <dirlookup>
800241cc:	e50b000c 	str	r0, [fp, #-12]
800241d0:	e51b300c 	ldr	r3, [fp, #-12]
800241d4:	e3530000 	cmp	r3, #0
800241d8:	1a000003 	bne	800241ec <namex+0xe4>
800241dc:	e51b0008 	ldr	r0, [fp, #-8]
800241e0:	ebfffcee 	bl	800235a0 <iunlockput>
800241e4:	e3a03000 	mov	r3, #0
800241e8:	ea000012 	b	80024238 <namex+0x130>
800241ec:	e51b0008 	ldr	r0, [fp, #-8]
800241f0:	ebfffcea 	bl	800235a0 <iunlockput>
800241f4:	e51b300c 	ldr	r3, [fp, #-12]
800241f8:	e50b3008 	str	r3, [fp, #-8]
800241fc:	e51b0010 	ldr	r0, [fp, #-16]
80024200:	e51b1018 	ldr	r1, [fp, #-24]	; 0xffffffe8
80024204:	ebffff7c 	bl	80023ffc <skipelem>
80024208:	e50b0010 	str	r0, [fp, #-16]
8002420c:	e51b3010 	ldr	r3, [fp, #-16]
80024210:	e3530000 	cmp	r3, #0
80024214:	1affffd2 	bne	80024164 <namex+0x5c>
80024218:	e51b3014 	ldr	r3, [fp, #-20]	; 0xffffffec
8002421c:	e3530000 	cmp	r3, #0
80024220:	0a000003 	beq	80024234 <namex+0x12c>
80024224:	e51b0008 	ldr	r0, [fp, #-8]
80024228:	ebfffc9f 	bl	800234ac <iput>
8002422c:	e3a03000 	mov	r3, #0
80024230:	ea000000 	b	80024238 <namex+0x130>
80024234:	e51b3008 	ldr	r3, [fp, #-8]
80024238:	e1a00003 	mov	r0, r3
8002423c:	e24bd004 	sub	sp, fp, #4
80024240:	e8bd8800 	pop	{fp, pc}

80024244 <namei>:
80024244:	e92d4800 	push	{fp, lr}
80024248:	e28db004 	add	fp, sp, #4
8002424c:	e24dd018 	sub	sp, sp, #24
80024250:	e50b0018 	str	r0, [fp, #-24]	; 0xffffffe8
80024254:	e24b3014 	sub	r3, fp, #20
80024258:	e51b0018 	ldr	r0, [fp, #-24]	; 0xffffffe8
8002425c:	e3a01000 	mov	r1, #0
80024260:	e1a02003 	mov	r2, r3
80024264:	ebffffa7 	bl	80024108 <namex>
80024268:	e1a03000 	mov	r3, r0
8002426c:	e1a00003 	mov	r0, r3
80024270:	e24bd004 	sub	sp, fp, #4
80024274:	e8bd8800 	pop	{fp, pc}

80024278 <nameiparent>:
80024278:	e92d4800 	push	{fp, lr}
8002427c:	e28db004 	add	fp, sp, #4
80024280:	e24dd008 	sub	sp, sp, #8
80024284:	e50b0008 	str	r0, [fp, #-8]
80024288:	e50b100c 	str	r1, [fp, #-12]
8002428c:	e51b0008 	ldr	r0, [fp, #-8]
80024290:	e3a01001 	mov	r1, #1
80024294:	e51b200c 	ldr	r2, [fp, #-12]
80024298:	ebffff9a 	bl	80024108 <namex>
8002429c:	e1a03000 	mov	r3, r0
800242a0:	e1a00003 	mov	r0, r3
800242a4:	e24bd004 	sub	sp, fp, #4
800242a8:	e8bd8800 	pop	{fp, pc}

800242ac <initlog>:
800242ac:	e92d4800 	push	{fp, lr}
800242b0:	e28db004 	add	fp, sp, #4
800242b4:	e24dd010 	sub	sp, sp, #16
800242b8:	e30d04a8 	movw	r0, #54440	; 0xd4a8
800242bc:	e348000a 	movt	r0, #32778	; 0x800a
800242c0:	e309157c 	movw	r1, #38268	; 0x957c
800242c4:	e3481002 	movt	r1, #32770	; 0x8002
800242c8:	eb000733 	bl	80025f9c <initlock>
800242cc:	e24b3014 	sub	r3, fp, #20
800242d0:	e3a00001 	mov	r0, #1
800242d4:	e1a01003 	mov	r1, r3
800242d8:	ebfffa12 	bl	80022b28 <readsb>
800242dc:	e51b2014 	ldr	r2, [fp, #-20]	; 0xffffffec
800242e0:	e51b3008 	ldr	r3, [fp, #-8]
800242e4:	e0633002 	rsb	r3, r3, r2
800242e8:	e1a02003 	mov	r2, r3
800242ec:	e30d34a8 	movw	r3, #54440	; 0xd4a8
800242f0:	e348300a 	movt	r3, #32778	; 0x800a
800242f4:	e5832034 	str	r2, [r3, #52]	; 0x34
800242f8:	e51b3008 	ldr	r3, [fp, #-8]
800242fc:	e1a02003 	mov	r2, r3
80024300:	e30d34a8 	movw	r3, #54440	; 0xd4a8
80024304:	e348300a 	movt	r3, #32778	; 0x800a
80024308:	e5832038 	str	r2, [r3, #56]	; 0x38
8002430c:	e30d34a8 	movw	r3, #54440	; 0xd4a8
80024310:	e348300a 	movt	r3, #32778	; 0x800a
80024314:	e3a02001 	mov	r2, #1
80024318:	e5832040 	str	r2, [r3, #64]	; 0x40
8002431c:	eb0000ad 	bl	800245d8 <recover_from_log>
80024320:	e24bd004 	sub	sp, fp, #4
80024324:	e8bd8800 	pop	{fp, pc}

80024328 <install_trans>:
80024328:	e92d4800 	push	{fp, lr}
8002432c:	e28db004 	add	fp, sp, #4
80024330:	e24dd010 	sub	sp, sp, #16
80024334:	e3a03000 	mov	r3, #0
80024338:	e50b3008 	str	r3, [fp, #-8]
8002433c:	ea00002f 	b	80024400 <install_trans+0xd8>
80024340:	e30d34a8 	movw	r3, #54440	; 0xd4a8
80024344:	e348300a 	movt	r3, #32778	; 0x800a
80024348:	e5933040 	ldr	r3, [r3, #64]	; 0x40
8002434c:	e1a02003 	mov	r2, r3
80024350:	e30d34a8 	movw	r3, #54440	; 0xd4a8
80024354:	e348300a 	movt	r3, #32778	; 0x800a
80024358:	e5931034 	ldr	r1, [r3, #52]	; 0x34
8002435c:	e51b3008 	ldr	r3, [fp, #-8]
80024360:	e0813003 	add	r3, r1, r3
80024364:	e2833001 	add	r3, r3, #1
80024368:	e1a00002 	mov	r0, r2
8002436c:	e1a01003 	mov	r1, r3
80024370:	ebfff1ec 	bl	80020b28 <bread>
80024374:	e50b000c 	str	r0, [fp, #-12]
80024378:	e30d34a8 	movw	r3, #54440	; 0xd4a8
8002437c:	e348300a 	movt	r3, #32778	; 0x800a
80024380:	e5933040 	ldr	r3, [r3, #64]	; 0x40
80024384:	e1a02003 	mov	r2, r3
80024388:	e30d34a8 	movw	r3, #54440	; 0xd4a8
8002438c:	e348300a 	movt	r3, #32778	; 0x800a
80024390:	e51b1008 	ldr	r1, [fp, #-8]
80024394:	e2810010 	add	r0, r1, #16
80024398:	e3a01008 	mov	r1, #8
8002439c:	e1a00100 	lsl	r0, r0, #2
800243a0:	e0833000 	add	r3, r3, r0
800243a4:	e0833001 	add	r3, r3, r1
800243a8:	e5933000 	ldr	r3, [r3]
800243ac:	e1a00002 	mov	r0, r2
800243b0:	e1a01003 	mov	r1, r3
800243b4:	ebfff1db 	bl	80020b28 <bread>
800243b8:	e50b0010 	str	r0, [fp, #-16]
800243bc:	e51b3010 	ldr	r3, [fp, #-16]
800243c0:	e2832018 	add	r2, r3, #24
800243c4:	e51b300c 	ldr	r3, [fp, #-12]
800243c8:	e2833018 	add	r3, r3, #24
800243cc:	e1a00002 	mov	r0, r2
800243d0:	e1a01003 	mov	r1, r3
800243d4:	e3a02c02 	mov	r2, #512	; 0x200
800243d8:	ebffef79 	bl	800201c4 <memmove>
800243dc:	e51b0010 	ldr	r0, [fp, #-16]
800243e0:	ebfff1e4 	bl	80020b78 <bwrite>
800243e4:	e51b000c 	ldr	r0, [fp, #-12]
800243e8:	ebfff1f7 	bl	80020bcc <brelse>
800243ec:	e51b0010 	ldr	r0, [fp, #-16]
800243f0:	ebfff1f5 	bl	80020bcc <brelse>
800243f4:	e51b3008 	ldr	r3, [fp, #-8]
800243f8:	e2833001 	add	r3, r3, #1
800243fc:	e50b3008 	str	r3, [fp, #-8]
80024400:	e30d34a8 	movw	r3, #54440	; 0xd4a8
80024404:	e348300a 	movt	r3, #32778	; 0x800a
80024408:	e5932044 	ldr	r2, [r3, #68]	; 0x44
8002440c:	e51b3008 	ldr	r3, [fp, #-8]
80024410:	e1520003 	cmp	r2, r3
80024414:	caffffc9 	bgt	80024340 <install_trans+0x18>
80024418:	e24bd004 	sub	sp, fp, #4
8002441c:	e8bd8800 	pop	{fp, pc}

80024420 <read_head>:
80024420:	e92d4800 	push	{fp, lr}
80024424:	e28db004 	add	fp, sp, #4
80024428:	e24dd010 	sub	sp, sp, #16
8002442c:	e30d34a8 	movw	r3, #54440	; 0xd4a8
80024430:	e348300a 	movt	r3, #32778	; 0x800a
80024434:	e5933040 	ldr	r3, [r3, #64]	; 0x40
80024438:	e1a02003 	mov	r2, r3
8002443c:	e30d34a8 	movw	r3, #54440	; 0xd4a8
80024440:	e348300a 	movt	r3, #32778	; 0x800a
80024444:	e5933034 	ldr	r3, [r3, #52]	; 0x34
80024448:	e1a00002 	mov	r0, r2
8002444c:	e1a01003 	mov	r1, r3
80024450:	ebfff1b4 	bl	80020b28 <bread>
80024454:	e50b000c 	str	r0, [fp, #-12]
80024458:	e51b300c 	ldr	r3, [fp, #-12]
8002445c:	e2833018 	add	r3, r3, #24
80024460:	e50b3010 	str	r3, [fp, #-16]
80024464:	e51b3010 	ldr	r3, [fp, #-16]
80024468:	e5932000 	ldr	r2, [r3]
8002446c:	e30d34a8 	movw	r3, #54440	; 0xd4a8
80024470:	e348300a 	movt	r3, #32778	; 0x800a
80024474:	e5832044 	str	r2, [r3, #68]	; 0x44
80024478:	e3a03000 	mov	r3, #0
8002447c:	e50b3008 	str	r3, [fp, #-8]
80024480:	ea000012 	b	800244d0 <read_head+0xb0>
80024484:	e51b1010 	ldr	r1, [fp, #-16]
80024488:	e51b2008 	ldr	r2, [fp, #-8]
8002448c:	e3a03004 	mov	r3, #4
80024490:	e1a02102 	lsl	r2, r2, #2
80024494:	e0812002 	add	r2, r1, r2
80024498:	e0823003 	add	r3, r2, r3
8002449c:	e5932000 	ldr	r2, [r3]
800244a0:	e30d34a8 	movw	r3, #54440	; 0xd4a8
800244a4:	e348300a 	movt	r3, #32778	; 0x800a
800244a8:	e51b1008 	ldr	r1, [fp, #-8]
800244ac:	e2810010 	add	r0, r1, #16
800244b0:	e3a01008 	mov	r1, #8
800244b4:	e1a00100 	lsl	r0, r0, #2
800244b8:	e0833000 	add	r3, r3, r0
800244bc:	e0833001 	add	r3, r3, r1
800244c0:	e5832000 	str	r2, [r3]
800244c4:	e51b3008 	ldr	r3, [fp, #-8]
800244c8:	e2833001 	add	r3, r3, #1
800244cc:	e50b3008 	str	r3, [fp, #-8]
800244d0:	e30d34a8 	movw	r3, #54440	; 0xd4a8
800244d4:	e348300a 	movt	r3, #32778	; 0x800a
800244d8:	e5932044 	ldr	r2, [r3, #68]	; 0x44
800244dc:	e51b3008 	ldr	r3, [fp, #-8]
800244e0:	e1520003 	cmp	r2, r3
800244e4:	caffffe6 	bgt	80024484 <read_head+0x64>
800244e8:	e51b000c 	ldr	r0, [fp, #-12]
800244ec:	ebfff1b6 	bl	80020bcc <brelse>
800244f0:	e24bd004 	sub	sp, fp, #4
800244f4:	e8bd8800 	pop	{fp, pc}

800244f8 <write_head>:
800244f8:	e92d4800 	push	{fp, lr}
800244fc:	e28db004 	add	fp, sp, #4
80024500:	e24dd010 	sub	sp, sp, #16
80024504:	e30d34a8 	movw	r3, #54440	; 0xd4a8
80024508:	e348300a 	movt	r3, #32778	; 0x800a
8002450c:	e5933040 	ldr	r3, [r3, #64]	; 0x40
80024510:	e1a02003 	mov	r2, r3
80024514:	e30d34a8 	movw	r3, #54440	; 0xd4a8
80024518:	e348300a 	movt	r3, #32778	; 0x800a
8002451c:	e5933034 	ldr	r3, [r3, #52]	; 0x34
80024520:	e1a00002 	mov	r0, r2
80024524:	e1a01003 	mov	r1, r3
80024528:	ebfff17e 	bl	80020b28 <bread>
8002452c:	e50b000c 	str	r0, [fp, #-12]
80024530:	e51b300c 	ldr	r3, [fp, #-12]
80024534:	e2833018 	add	r3, r3, #24
80024538:	e50b3010 	str	r3, [fp, #-16]
8002453c:	e30d34a8 	movw	r3, #54440	; 0xd4a8
80024540:	e348300a 	movt	r3, #32778	; 0x800a
80024544:	e5932044 	ldr	r2, [r3, #68]	; 0x44
80024548:	e51b3010 	ldr	r3, [fp, #-16]
8002454c:	e5832000 	str	r2, [r3]
80024550:	e3a03000 	mov	r3, #0
80024554:	e50b3008 	str	r3, [fp, #-8]
80024558:	ea000012 	b	800245a8 <write_head+0xb0>
8002455c:	e30d34a8 	movw	r3, #54440	; 0xd4a8
80024560:	e348300a 	movt	r3, #32778	; 0x800a
80024564:	e51b2008 	ldr	r2, [fp, #-8]
80024568:	e2821010 	add	r1, r2, #16
8002456c:	e3a02008 	mov	r2, #8
80024570:	e1a01101 	lsl	r1, r1, #2
80024574:	e0833001 	add	r3, r3, r1
80024578:	e0833002 	add	r3, r3, r2
8002457c:	e5932000 	ldr	r2, [r3]
80024580:	e51b0010 	ldr	r0, [fp, #-16]
80024584:	e51b1008 	ldr	r1, [fp, #-8]
80024588:	e3a03004 	mov	r3, #4
8002458c:	e1a01101 	lsl	r1, r1, #2
80024590:	e0801001 	add	r1, r0, r1
80024594:	e0813003 	add	r3, r1, r3
80024598:	e5832000 	str	r2, [r3]
8002459c:	e51b3008 	ldr	r3, [fp, #-8]
800245a0:	e2833001 	add	r3, r3, #1
800245a4:	e50b3008 	str	r3, [fp, #-8]
800245a8:	e30d34a8 	movw	r3, #54440	; 0xd4a8
800245ac:	e348300a 	movt	r3, #32778	; 0x800a
800245b0:	e5932044 	ldr	r2, [r3, #68]	; 0x44
800245b4:	e51b3008 	ldr	r3, [fp, #-8]
800245b8:	e1520003 	cmp	r2, r3
800245bc:	caffffe6 	bgt	8002455c <write_head+0x64>
800245c0:	e51b000c 	ldr	r0, [fp, #-12]
800245c4:	ebfff16b 	bl	80020b78 <bwrite>
800245c8:	e51b000c 	ldr	r0, [fp, #-12]
800245cc:	ebfff17e 	bl	80020bcc <brelse>
800245d0:	e24bd004 	sub	sp, fp, #4
800245d4:	e8bd8800 	pop	{fp, pc}

800245d8 <recover_from_log>:
800245d8:	e92d4800 	push	{fp, lr}
800245dc:	e28db004 	add	fp, sp, #4
800245e0:	ebffff8e 	bl	80024420 <read_head>
800245e4:	ebffff4f 	bl	80024328 <install_trans>
800245e8:	e30d34a8 	movw	r3, #54440	; 0xd4a8
800245ec:	e348300a 	movt	r3, #32778	; 0x800a
800245f0:	e3a02000 	mov	r2, #0
800245f4:	e5832044 	str	r2, [r3, #68]	; 0x44
800245f8:	ebffffbe 	bl	800244f8 <write_head>
800245fc:	e8bd8800 	pop	{fp, pc}

80024600 <begin_trans>:
80024600:	e92d4800 	push	{fp, lr}
80024604:	e28db004 	add	fp, sp, #4
80024608:	e30d04a8 	movw	r0, #54440	; 0xd4a8
8002460c:	e348000a 	movt	r0, #32778	; 0x800a
80024610:	eb000672 	bl	80025fe0 <acquire>
80024614:	ea000004 	b	8002462c <begin_trans+0x2c>
80024618:	e30d04a8 	movw	r0, #54440	; 0xd4a8
8002461c:	e348000a 	movt	r0, #32778	; 0x800a
80024620:	e30d14a8 	movw	r1, #54440	; 0xd4a8
80024624:	e348100a 	movt	r1, #32778	; 0x800a
80024628:	eb000581 	bl	80025c34 <sleep>
8002462c:	e30d34a8 	movw	r3, #54440	; 0xd4a8
80024630:	e348300a 	movt	r3, #32778	; 0x800a
80024634:	e593303c 	ldr	r3, [r3, #60]	; 0x3c
80024638:	e3530000 	cmp	r3, #0
8002463c:	1afffff5 	bne	80024618 <begin_trans+0x18>
80024640:	e30d34a8 	movw	r3, #54440	; 0xd4a8
80024644:	e348300a 	movt	r3, #32778	; 0x800a
80024648:	e3a02001 	mov	r2, #1
8002464c:	e583203c 	str	r2, [r3, #60]	; 0x3c
80024650:	e30d04a8 	movw	r0, #54440	; 0xd4a8
80024654:	e348000a 	movt	r0, #32778	; 0x800a
80024658:	eb00066a 	bl	80026008 <release>
8002465c:	e8bd8800 	pop	{fp, pc}

80024660 <commit_trans>:
80024660:	e92d4800 	push	{fp, lr}
80024664:	e28db004 	add	fp, sp, #4
80024668:	e30d34a8 	movw	r3, #54440	; 0xd4a8
8002466c:	e348300a 	movt	r3, #32778	; 0x800a
80024670:	e5933044 	ldr	r3, [r3, #68]	; 0x44
80024674:	e3530000 	cmp	r3, #0
80024678:	da000006 	ble	80024698 <commit_trans+0x38>
8002467c:	ebffff9d 	bl	800244f8 <write_head>
80024680:	ebffff28 	bl	80024328 <install_trans>
80024684:	e30d34a8 	movw	r3, #54440	; 0xd4a8
80024688:	e348300a 	movt	r3, #32778	; 0x800a
8002468c:	e3a02000 	mov	r2, #0
80024690:	e5832044 	str	r2, [r3, #68]	; 0x44
80024694:	ebffff97 	bl	800244f8 <write_head>
80024698:	e30d04a8 	movw	r0, #54440	; 0xd4a8
8002469c:	e348000a 	movt	r0, #32778	; 0x800a
800246a0:	eb00064e 	bl	80025fe0 <acquire>
800246a4:	e30d34a8 	movw	r3, #54440	; 0xd4a8
800246a8:	e348300a 	movt	r3, #32778	; 0x800a
800246ac:	e3a02000 	mov	r2, #0
800246b0:	e583203c 	str	r2, [r3, #60]	; 0x3c
800246b4:	e30d04a8 	movw	r0, #54440	; 0xd4a8
800246b8:	e348000a 	movt	r0, #32778	; 0x800a
800246bc:	eb0005b4 	bl	80025d94 <wakeup>
800246c0:	e30d04a8 	movw	r0, #54440	; 0xd4a8
800246c4:	e348000a 	movt	r0, #32778	; 0x800a
800246c8:	eb00064e 	bl	80026008 <release>
800246cc:	e8bd8800 	pop	{fp, pc}

800246d0 <log_write>:
800246d0:	e92d4800 	push	{fp, lr}
800246d4:	e28db004 	add	fp, sp, #4
800246d8:	e24dd010 	sub	sp, sp, #16
800246dc:	e50b0010 	str	r0, [fp, #-16]
800246e0:	e30d34a8 	movw	r3, #54440	; 0xd4a8
800246e4:	e348300a 	movt	r3, #32778	; 0x800a
800246e8:	e5933044 	ldr	r3, [r3, #68]	; 0x44
800246ec:	e3530009 	cmp	r3, #9
800246f0:	ca000008 	bgt	80024718 <log_write+0x48>
800246f4:	e30d34a8 	movw	r3, #54440	; 0xd4a8
800246f8:	e348300a 	movt	r3, #32778	; 0x800a
800246fc:	e5932044 	ldr	r2, [r3, #68]	; 0x44
80024700:	e30d34a8 	movw	r3, #54440	; 0xd4a8
80024704:	e348300a 	movt	r3, #32778	; 0x800a
80024708:	e5933038 	ldr	r3, [r3, #56]	; 0x38
8002470c:	e2433001 	sub	r3, r3, #1
80024710:	e1520003 	cmp	r2, r3
80024714:	ba000002 	blt	80024724 <log_write+0x54>
80024718:	e3090580 	movw	r0, #38272	; 0x9580
8002471c:	e3480002 	movt	r0, #32770	; 0x8002
80024720:	ebfff513 	bl	80021b74 <panic>
80024724:	e30d34a8 	movw	r3, #54440	; 0xd4a8
80024728:	e348300a 	movt	r3, #32778	; 0x800a
8002472c:	e593303c 	ldr	r3, [r3, #60]	; 0x3c
80024730:	e3530000 	cmp	r3, #0
80024734:	1a000002 	bne	80024744 <log_write+0x74>
80024738:	e3090598 	movw	r0, #38296	; 0x9598
8002473c:	e3480002 	movt	r0, #32770	; 0x8002
80024740:	ebfff50b 	bl	80021b74 <panic>
80024744:	e3a03000 	mov	r3, #0
80024748:	e50b3008 	str	r3, [fp, #-8]
8002474c:	ea000011 	b	80024798 <log_write+0xc8>
80024750:	e30d34a8 	movw	r3, #54440	; 0xd4a8
80024754:	e348300a 	movt	r3, #32778	; 0x800a
80024758:	e51b2008 	ldr	r2, [fp, #-8]
8002475c:	e2821010 	add	r1, r2, #16
80024760:	e3a02008 	mov	r2, #8
80024764:	e1a01101 	lsl	r1, r1, #2
80024768:	e0833001 	add	r3, r3, r1
8002476c:	e0833002 	add	r3, r3, r2
80024770:	e5933000 	ldr	r3, [r3]
80024774:	e1a02003 	mov	r2, r3
80024778:	e51b3010 	ldr	r3, [fp, #-16]
8002477c:	e5933008 	ldr	r3, [r3, #8]
80024780:	e1520003 	cmp	r2, r3
80024784:	1a000000 	bne	8002478c <log_write+0xbc>
80024788:	ea000008 	b	800247b0 <log_write+0xe0>
8002478c:	e51b3008 	ldr	r3, [fp, #-8]
80024790:	e2833001 	add	r3, r3, #1
80024794:	e50b3008 	str	r3, [fp, #-8]
80024798:	e30d34a8 	movw	r3, #54440	; 0xd4a8
8002479c:	e348300a 	movt	r3, #32778	; 0x800a
800247a0:	e5932044 	ldr	r2, [r3, #68]	; 0x44
800247a4:	e51b3008 	ldr	r3, [fp, #-8]
800247a8:	e1520003 	cmp	r2, r3
800247ac:	caffffe7 	bgt	80024750 <log_write+0x80>
800247b0:	e51b3010 	ldr	r3, [fp, #-16]
800247b4:	e5933008 	ldr	r3, [r3, #8]
800247b8:	e1a02003 	mov	r2, r3
800247bc:	e30d34a8 	movw	r3, #54440	; 0xd4a8
800247c0:	e348300a 	movt	r3, #32778	; 0x800a
800247c4:	e51b1008 	ldr	r1, [fp, #-8]
800247c8:	e2810010 	add	r0, r1, #16
800247cc:	e3a01008 	mov	r1, #8
800247d0:	e1a00100 	lsl	r0, r0, #2
800247d4:	e0833000 	add	r3, r3, r0
800247d8:	e0833001 	add	r3, r3, r1
800247dc:	e5832000 	str	r2, [r3]
800247e0:	e51b3010 	ldr	r3, [fp, #-16]
800247e4:	e5932004 	ldr	r2, [r3, #4]
800247e8:	e30d34a8 	movw	r3, #54440	; 0xd4a8
800247ec:	e348300a 	movt	r3, #32778	; 0x800a
800247f0:	e5931034 	ldr	r1, [r3, #52]	; 0x34
800247f4:	e51b3008 	ldr	r3, [fp, #-8]
800247f8:	e0813003 	add	r3, r1, r3
800247fc:	e2833001 	add	r3, r3, #1
80024800:	e1a00002 	mov	r0, r2
80024804:	e1a01003 	mov	r1, r3
80024808:	ebfff0c6 	bl	80020b28 <bread>
8002480c:	e50b000c 	str	r0, [fp, #-12]
80024810:	e51b300c 	ldr	r3, [fp, #-12]
80024814:	e2832018 	add	r2, r3, #24
80024818:	e51b3010 	ldr	r3, [fp, #-16]
8002481c:	e2833018 	add	r3, r3, #24
80024820:	e1a00002 	mov	r0, r2
80024824:	e1a01003 	mov	r1, r3
80024828:	e3a02c02 	mov	r2, #512	; 0x200
8002482c:	ebffee64 	bl	800201c4 <memmove>
80024830:	e51b000c 	ldr	r0, [fp, #-12]
80024834:	ebfff0cf 	bl	80020b78 <bwrite>
80024838:	e51b000c 	ldr	r0, [fp, #-12]
8002483c:	ebfff0e2 	bl	80020bcc <brelse>
80024840:	e30d34a8 	movw	r3, #54440	; 0xd4a8
80024844:	e348300a 	movt	r3, #32778	; 0x800a
80024848:	e5932044 	ldr	r2, [r3, #68]	; 0x44
8002484c:	e51b3008 	ldr	r3, [fp, #-8]
80024850:	e1520003 	cmp	r2, r3
80024854:	1a000006 	bne	80024874 <log_write+0x1a4>
80024858:	e30d34a8 	movw	r3, #54440	; 0xd4a8
8002485c:	e348300a 	movt	r3, #32778	; 0x800a
80024860:	e5933044 	ldr	r3, [r3, #68]	; 0x44
80024864:	e2832001 	add	r2, r3, #1
80024868:	e30d34a8 	movw	r3, #54440	; 0xd4a8
8002486c:	e348300a 	movt	r3, #32778	; 0x800a
80024870:	e5832044 	str	r2, [r3, #68]	; 0x44
80024874:	e51b3010 	ldr	r3, [fp, #-16]
80024878:	e5933000 	ldr	r3, [r3]
8002487c:	e3832004 	orr	r2, r3, #4
80024880:	e51b3010 	ldr	r3, [fp, #-16]
80024884:	e5832000 	str	r2, [r3]
80024888:	e24bd004 	sub	sp, fp, #4
8002488c:	e8bd8800 	pop	{fp, pc}

80024890 <kmain>:
80024890:	e92d4800 	push	{fp, lr}
80024894:	e28db004 	add	fp, sp, #4
80024898:	e24dd008 	sub	sp, sp, #8
8002489c:	e30d3518 	movw	r3, #54552	; 0xd518
800248a0:	e348300a 	movt	r3, #32778	; 0x800a
800248a4:	e30d251c 	movw	r2, #54556	; 0xd51c
800248a8:	e348200a 	movt	r2, #32778	; 0x800a
800248ac:	e5832000 	str	r2, [r3]
800248b0:	e30905b0 	movw	r0, #38320	; 0x95b0
800248b4:	e3480002 	movt	r0, #32770	; 0x8002
800248b8:	eb001292 	bl	80029308 <___puts_veneer>
800248bc:	e3a03000 	mov	r3, #0
800248c0:	e348300f 	movt	r3, #32783	; 0x800f
800248c4:	e50b3008 	str	r3, [fp, #-8]
800248c8:	eb000d72 	bl	80027e98 <init_vmm>
800248cc:	e30905c0 	movw	r0, #38336	; 0x95c0
800248d0:	e3480002 	movt	r0, #32770	; 0x8002
800248d4:	eb00128b 	bl	80029308 <___puts_veneer>
800248d8:	e3003000 	movw	r3, #0
800248dc:	e348300b 	movt	r3, #32779	; 0x800b
800248e0:	e2833fff 	add	r3, r3, #1020	; 0x3fc
800248e4:	e2833003 	add	r3, r3, #3
800248e8:	e3c33fff 	bic	r3, r3, #1020	; 0x3fc
800248ec:	e3c33003 	bic	r3, r3, #3
800248f0:	e1a00003 	mov	r0, r3
800248f4:	e51b1008 	ldr	r1, [fp, #-8]
800248f8:	eb000d9b 	bl	80027f6c <kpt_freerange>
800248fc:	e30905d4 	movw	r0, #38356	; 0x95d4
80024900:	e3480002 	movt	r0, #32770	; 0x8002
80024904:	eb00127f 	bl	80029308 <___puts_veneer>
80024908:	e51b3008 	ldr	r3, [fp, #-8]
8002490c:	e2833b01 	add	r3, r3, #1024	; 0x400
80024910:	e1a00003 	mov	r0, r3
80024914:	e3a01000 	mov	r1, #0
80024918:	e3481010 	movt	r1, #32784	; 0x8010
8002491c:	eb000d92 	bl	80027f6c <kpt_freerange>
80024920:	e30905d4 	movw	r0, #38356	; 0x95d4
80024924:	e3480002 	movt	r0, #32770	; 0x8002
80024928:	eb001276 	bl	80029308 <___puts_veneer>
8002492c:	e3a00601 	mov	r0, #1048576	; 0x100000
80024930:	e3a01302 	mov	r1, #134217728	; 0x8000000
80024934:	eb00104f 	bl	80028a78 <paging_init>
80024938:	e30905ec 	movw	r0, #38380	; 0x95ec
8002493c:	e3480002 	movt	r0, #32770	; 0x8002
80024940:	eb001270 	bl	80029308 <___puts_veneer>
80024944:	ebfff124 	bl	80020ddc <kmem_init>
80024948:	e3090600 	movw	r0, #38400	; 0x9600
8002494c:	e3480002 	movt	r0, #32770	; 0x8002
80024950:	eb00126c 	bl	80029308 <___puts_veneer>
80024954:	e3a00000 	mov	r0, #0
80024958:	e3480010 	movt	r0, #32784	; 0x8010
8002495c:	e3a01322 	mov	r1, #-2013265920	; 0x88000000
80024960:	ebfff125 	bl	80020dfc <kmem_init2>
80024964:	e3090614 	movw	r0, #38420	; 0x9614
80024968:	e3480002 	movt	r0, #32770	; 0x8002
8002496c:	eb001265 	bl	80029308 <___puts_veneer>
80024970:	eb000c4e 	bl	80027ab0 <trap_init>
80024974:	e30905b0 	movw	r0, #38320	; 0x95b0
80024978:	e3480002 	movt	r0, #32770	; 0x8002
8002497c:	eb001261 	bl	80029308 <___puts_veneer>
80024980:	e3a00cb2 	mov	r0, #45568	; 0xb200
80024984:	e34b0f00 	movt	r0, #48896	; 0xbf00
80024988:	eb001175 	bl	80028f64 <gic_init>
8002498c:	e3090628 	movw	r0, #38440	; 0x9628
80024990:	e3480002 	movt	r0, #32770	; 0x8002
80024994:	eb00125b 	bl	80029308 <___puts_veneer>
80024998:	eb00114d 	bl	80028ed4 <uart_enable_rx>
8002499c:	e309063c 	movw	r0, #38460	; 0x963c
800249a0:	e3480002 	movt	r0, #32770	; 0x8002
800249a4:	eb001257 	bl	80029308 <___puts_veneer>
800249a8:	ebfff5c3 	bl	800220bc <consoleinit>
800249ac:	e3090654 	movw	r0, #38484	; 0x9654
800249b0:	e3480002 	movt	r0, #32770	; 0x8002
800249b4:	eb001253 	bl	80029308 <___puts_veneer>
800249b8:	eb0001c1 	bl	800250c4 <pinit>
800249bc:	e3090668 	movw	r0, #38504	; 0x9668
800249c0:	e3480002 	movt	r0, #32770	; 0x8002
800249c4:	eb00124f 	bl	80029308 <___puts_veneer>
800249c8:	ebffefc0 	bl	800208d0 <binit>
800249cc:	e30905b0 	movw	r0, #38320	; 0x95b0
800249d0:	e3480002 	movt	r0, #32770	; 0x8002
800249d4:	eb00124b 	bl	80029308 <___puts_veneer>
800249d8:	ebfff70a 	bl	80022608 <fileinit>
800249dc:	e3090678 	movw	r0, #38520	; 0x9678
800249e0:	e3480002 	movt	r0, #32770	; 0x8002
800249e4:	eb001247 	bl	80029308 <___puts_veneer>
800249e8:	ebfff942 	bl	80022ef8 <iinit>
800249ec:	e309068c 	movw	r0, #38540	; 0x968c
800249f0:	e3480002 	movt	r0, #32770	; 0x8002
800249f4:	eb001243 	bl	80029308 <___puts_veneer>
800249f8:	eb00000f 	bl	80024a3c <ideinit>
800249fc:	e309069c 	movw	r0, #38556	; 0x969c
80024a00:	e3480002 	movt	r0, #32770	; 0x8002
80024a04:	eb00123f 	bl	80029308 <___puts_veneer>
80024a08:	eb00103d 	bl	80028b04 <timer_init>
80024a0c:	e30906ac 	movw	r0, #38572	; 0x96ac
80024a10:	e3480002 	movt	r0, #32770	; 0x8002
80024a14:	eb00123b 	bl	80029308 <___puts_veneer>
80024a18:	ebffeed4 	bl	80020570 <sti>
80024a1c:	e30906c0 	movw	r0, #38592	; 0x96c0
80024a20:	e3480002 	movt	r0, #32770	; 0x8002
80024a24:	eb001237 	bl	80029308 <___puts_veneer>
80024a28:	eb00021b 	bl	8002529c <userinit>
80024a2c:	e30906cc 	movw	r0, #38604	; 0x96cc
80024a30:	e3480002 	movt	r0, #32770	; 0x8002
80024a34:	eb001233 	bl	80029308 <___puts_veneer>
80024a38:	eb0003ee 	bl	800259f8 <scheduler>

80024a3c <ideinit>:
80024a3c:	e52db004 	push	{fp}		; (str fp, [sp, #-4]!)
80024a40:	e28db000 	add	fp, sp, #0
80024a44:	e30d3600 	movw	r3, #54784	; 0xd600
80024a48:	e348300a 	movt	r3, #32778	; 0x800a
80024a4c:	e30a20c0 	movw	r2, #41152	; 0xa0c0
80024a50:	e3482002 	movt	r2, #32770	; 0x8002
80024a54:	e5832000 	str	r2, [r3]
80024a58:	e3003000 	movw	r3, #0
80024a5c:	e3403008 	movt	r3, #8
80024a60:	e1a034a3 	lsr	r3, r3, #9
80024a64:	e1a02003 	mov	r2, r3
80024a68:	e30d35fc 	movw	r3, #54780	; 0xd5fc
80024a6c:	e348300a 	movt	r3, #32778	; 0x800a
80024a70:	e5832000 	str	r2, [r3]
80024a74:	e24bd000 	sub	sp, fp, #0
80024a78:	e49db004 	pop	{fp}		; (ldr fp, [sp], #4)
80024a7c:	e12fff1e 	bx	lr

80024a80 <ideintr>:
80024a80:	e52db004 	push	{fp}		; (str fp, [sp, #-4]!)
80024a84:	e28db000 	add	fp, sp, #0
80024a88:	e24bd000 	sub	sp, fp, #0
80024a8c:	e49db004 	pop	{fp}		; (ldr fp, [sp], #4)
80024a90:	e12fff1e 	bx	lr

80024a94 <iderw>:
80024a94:	e92d4800 	push	{fp, lr}
80024a98:	e28db004 	add	fp, sp, #4
80024a9c:	e24dd010 	sub	sp, sp, #16
80024aa0:	e50b0010 	str	r0, [fp, #-16]
80024aa4:	e51b3010 	ldr	r3, [fp, #-16]
80024aa8:	e5933000 	ldr	r3, [r3]
80024aac:	e2033001 	and	r3, r3, #1
80024ab0:	e3530000 	cmp	r3, #0
80024ab4:	1a000002 	bne	80024ac4 <iderw+0x30>
80024ab8:	e30906e0 	movw	r0, #38624	; 0x96e0
80024abc:	e3480002 	movt	r0, #32770	; 0x8002
80024ac0:	ebfff42b 	bl	80021b74 <panic>
80024ac4:	e51b3010 	ldr	r3, [fp, #-16]
80024ac8:	e5933000 	ldr	r3, [r3]
80024acc:	e2033006 	and	r3, r3, #6
80024ad0:	e3530002 	cmp	r3, #2
80024ad4:	1a000002 	bne	80024ae4 <iderw+0x50>
80024ad8:	e30906f4 	movw	r0, #38644	; 0x96f4
80024adc:	e3480002 	movt	r0, #32770	; 0x8002
80024ae0:	ebfff423 	bl	80021b74 <panic>
80024ae4:	e51b3010 	ldr	r3, [fp, #-16]
80024ae8:	e5933004 	ldr	r3, [r3, #4]
80024aec:	e3530001 	cmp	r3, #1
80024af0:	0a000002 	beq	80024b00 <iderw+0x6c>
80024af4:	e309070c 	movw	r0, #38668	; 0x970c
80024af8:	e3480002 	movt	r0, #32770	; 0x8002
80024afc:	ebfff41c 	bl	80021b74 <panic>
80024b00:	e51b3010 	ldr	r3, [fp, #-16]
80024b04:	e5932008 	ldr	r2, [r3, #8]
80024b08:	e30d35fc 	movw	r3, #54780	; 0xd5fc
80024b0c:	e348300a 	movt	r3, #32778	; 0x800a
80024b10:	e5933000 	ldr	r3, [r3]
80024b14:	e1520003 	cmp	r2, r3
80024b18:	3a000002 	bcc	80024b28 <iderw+0x94>
80024b1c:	e309072c 	movw	r0, #38700	; 0x972c
80024b20:	e3480002 	movt	r0, #32770	; 0x8002
80024b24:	ebfff412 	bl	80021b74 <panic>
80024b28:	e30d3600 	movw	r3, #54784	; 0xd600
80024b2c:	e348300a 	movt	r3, #32778	; 0x800a
80024b30:	e5932000 	ldr	r2, [r3]
80024b34:	e51b3010 	ldr	r3, [fp, #-16]
80024b38:	e5933008 	ldr	r3, [r3, #8]
80024b3c:	e1a03483 	lsl	r3, r3, #9
80024b40:	e0823003 	add	r3, r2, r3
80024b44:	e50b3008 	str	r3, [fp, #-8]
80024b48:	e51b3010 	ldr	r3, [fp, #-16]
80024b4c:	e5933000 	ldr	r3, [r3]
80024b50:	e2033004 	and	r3, r3, #4
80024b54:	e3530000 	cmp	r3, #0
80024b58:	0a00000b 	beq	80024b8c <iderw+0xf8>
80024b5c:	e51b3010 	ldr	r3, [fp, #-16]
80024b60:	e5933000 	ldr	r3, [r3]
80024b64:	e3c32004 	bic	r2, r3, #4
80024b68:	e51b3010 	ldr	r3, [fp, #-16]
80024b6c:	e5832000 	str	r2, [r3]
80024b70:	e51b3010 	ldr	r3, [fp, #-16]
80024b74:	e2833018 	add	r3, r3, #24
80024b78:	e51b0008 	ldr	r0, [fp, #-8]
80024b7c:	e1a01003 	mov	r1, r3
80024b80:	e3a02c02 	mov	r2, #512	; 0x200
80024b84:	ebffed8e 	bl	800201c4 <memmove>
80024b88:	ea000005 	b	80024ba4 <iderw+0x110>
80024b8c:	e51b3010 	ldr	r3, [fp, #-16]
80024b90:	e2833018 	add	r3, r3, #24
80024b94:	e1a00003 	mov	r0, r3
80024b98:	e51b1008 	ldr	r1, [fp, #-8]
80024b9c:	e3a02c02 	mov	r2, #512	; 0x200
80024ba0:	ebffed87 	bl	800201c4 <memmove>
80024ba4:	e51b3010 	ldr	r3, [fp, #-16]
80024ba8:	e5933000 	ldr	r3, [r3]
80024bac:	e3832002 	orr	r2, r3, #2
80024bb0:	e51b3010 	ldr	r3, [fp, #-16]
80024bb4:	e5832000 	str	r2, [r3]
80024bb8:	e24bd004 	sub	sp, fp, #4
80024bbc:	e8bd8800 	pop	{fp, pc}

80024bc0 <pipealloc>:
80024bc0:	e92d4800 	push	{fp, lr}
80024bc4:	e28db004 	add	fp, sp, #4
80024bc8:	e24dd010 	sub	sp, sp, #16
80024bcc:	e50b0010 	str	r0, [fp, #-16]
80024bd0:	e50b1014 	str	r1, [fp, #-20]	; 0xffffffec
80024bd4:	e3a03000 	mov	r3, #0
80024bd8:	e50b3008 	str	r3, [fp, #-8]
80024bdc:	e51b3014 	ldr	r3, [fp, #-20]	; 0xffffffec
80024be0:	e3a02000 	mov	r2, #0
80024be4:	e5832000 	str	r2, [r3]
80024be8:	e51b3014 	ldr	r3, [fp, #-20]	; 0xffffffec
80024bec:	e5932000 	ldr	r2, [r3]
80024bf0:	e51b3010 	ldr	r3, [fp, #-16]
80024bf4:	e5832000 	str	r2, [r3]
80024bf8:	ebfff68a 	bl	80022628 <filealloc>
80024bfc:	e1a02000 	mov	r2, r0
80024c00:	e51b3010 	ldr	r3, [fp, #-16]
80024c04:	e5832000 	str	r2, [r3]
80024c08:	e51b3010 	ldr	r3, [fp, #-16]
80024c0c:	e5933000 	ldr	r3, [r3]
80024c10:	e3530000 	cmp	r3, #0
80024c14:	0a000044 	beq	80024d2c <pipealloc+0x16c>
80024c18:	ebfff682 	bl	80022628 <filealloc>
80024c1c:	e1a02000 	mov	r2, r0
80024c20:	e51b3014 	ldr	r3, [fp, #-20]	; 0xffffffec
80024c24:	e5832000 	str	r2, [r3]
80024c28:	e51b3014 	ldr	r3, [fp, #-20]	; 0xffffffec
80024c2c:	e5933000 	ldr	r3, [r3]
80024c30:	e3530000 	cmp	r3, #0
80024c34:	0a00003c 	beq	80024d2c <pipealloc+0x16c>
80024c38:	e3a00f91 	mov	r0, #580	; 0x244
80024c3c:	ebfff289 	bl	80021668 <get_order>
80024c40:	e1a03000 	mov	r3, r0
80024c44:	e1a00003 	mov	r0, r3
80024c48:	ebfff1fe 	bl	80021448 <kmalloc>
80024c4c:	e50b0008 	str	r0, [fp, #-8]
80024c50:	e51b3008 	ldr	r3, [fp, #-8]
80024c54:	e3530000 	cmp	r3, #0
80024c58:	1a000000 	bne	80024c60 <pipealloc+0xa0>
80024c5c:	ea000032 	b	80024d2c <pipealloc+0x16c>
80024c60:	e51b3008 	ldr	r3, [fp, #-8]
80024c64:	e3a02001 	mov	r2, #1
80024c68:	e583223c 	str	r2, [r3, #572]	; 0x23c
80024c6c:	e51b3008 	ldr	r3, [fp, #-8]
80024c70:	e3a02001 	mov	r2, #1
80024c74:	e5832240 	str	r2, [r3, #576]	; 0x240
80024c78:	e51b3008 	ldr	r3, [fp, #-8]
80024c7c:	e3a02000 	mov	r2, #0
80024c80:	e5832238 	str	r2, [r3, #568]	; 0x238
80024c84:	e51b3008 	ldr	r3, [fp, #-8]
80024c88:	e3a02000 	mov	r2, #0
80024c8c:	e5832234 	str	r2, [r3, #564]	; 0x234
80024c90:	e51b3008 	ldr	r3, [fp, #-8]
80024c94:	e1a00003 	mov	r0, r3
80024c98:	e3091748 	movw	r1, #38728	; 0x9748
80024c9c:	e3481002 	movt	r1, #32770	; 0x8002
80024ca0:	eb0004bd 	bl	80025f9c <initlock>
80024ca4:	e51b3010 	ldr	r3, [fp, #-16]
80024ca8:	e5933000 	ldr	r3, [r3]
80024cac:	e3a02001 	mov	r2, #1
80024cb0:	e5c32000 	strb	r2, [r3]
80024cb4:	e51b3010 	ldr	r3, [fp, #-16]
80024cb8:	e5933000 	ldr	r3, [r3]
80024cbc:	e3a02001 	mov	r2, #1
80024cc0:	e5c32008 	strb	r2, [r3, #8]
80024cc4:	e51b3010 	ldr	r3, [fp, #-16]
80024cc8:	e5933000 	ldr	r3, [r3]
80024ccc:	e3a02000 	mov	r2, #0
80024cd0:	e5c32009 	strb	r2, [r3, #9]
80024cd4:	e51b3010 	ldr	r3, [fp, #-16]
80024cd8:	e5933000 	ldr	r3, [r3]
80024cdc:	e51b2008 	ldr	r2, [fp, #-8]
80024ce0:	e583200c 	str	r2, [r3, #12]
80024ce4:	e51b3014 	ldr	r3, [fp, #-20]	; 0xffffffec
80024ce8:	e5933000 	ldr	r3, [r3]
80024cec:	e3a02001 	mov	r2, #1
80024cf0:	e5c32000 	strb	r2, [r3]
80024cf4:	e51b3014 	ldr	r3, [fp, #-20]	; 0xffffffec
80024cf8:	e5933000 	ldr	r3, [r3]
80024cfc:	e3a02000 	mov	r2, #0
80024d00:	e5c32008 	strb	r2, [r3, #8]
80024d04:	e51b3014 	ldr	r3, [fp, #-20]	; 0xffffffec
80024d08:	e5933000 	ldr	r3, [r3]
80024d0c:	e3a02001 	mov	r2, #1
80024d10:	e5c32009 	strb	r2, [r3, #9]
80024d14:	e51b3014 	ldr	r3, [fp, #-20]	; 0xffffffec
80024d18:	e5933000 	ldr	r3, [r3]
80024d1c:	e51b2008 	ldr	r2, [fp, #-8]
80024d20:	e583200c 	str	r2, [r3, #12]
80024d24:	e3a03000 	mov	r3, #0
80024d28:	ea000019 	b	80024d94 <pipealloc+0x1d4>
80024d2c:	e51b3008 	ldr	r3, [fp, #-8]
80024d30:	e3530000 	cmp	r3, #0
80024d34:	0a000005 	beq	80024d50 <pipealloc+0x190>
80024d38:	e3a00f91 	mov	r0, #580	; 0x244
80024d3c:	ebfff249 	bl	80021668 <get_order>
80024d40:	e1a03000 	mov	r3, r0
80024d44:	e51b0008 	ldr	r0, [fp, #-8]
80024d48:	e1a01003 	mov	r1, r3
80024d4c:	ebfff213 	bl	800215a0 <kfree>
80024d50:	e51b3010 	ldr	r3, [fp, #-16]
80024d54:	e5933000 	ldr	r3, [r3]
80024d58:	e3530000 	cmp	r3, #0
80024d5c:	0a000003 	beq	80024d70 <pipealloc+0x1b0>
80024d60:	e51b3010 	ldr	r3, [fp, #-16]
80024d64:	e5933000 	ldr	r3, [r3]
80024d68:	e1a00003 	mov	r0, r3
80024d6c:	ebfff66c 	bl	80022724 <fileclose>
80024d70:	e51b3014 	ldr	r3, [fp, #-20]	; 0xffffffec
80024d74:	e5933000 	ldr	r3, [r3]
80024d78:	e3530000 	cmp	r3, #0
80024d7c:	0a000003 	beq	80024d90 <pipealloc+0x1d0>
80024d80:	e51b3014 	ldr	r3, [fp, #-20]	; 0xffffffec
80024d84:	e5933000 	ldr	r3, [r3]
80024d88:	e1a00003 	mov	r0, r3
80024d8c:	ebfff664 	bl	80022724 <fileclose>
80024d90:	e3e03000 	mvn	r3, #0
80024d94:	e1a00003 	mov	r0, r3
80024d98:	e24bd004 	sub	sp, fp, #4
80024d9c:	e8bd8800 	pop	{fp, pc}

80024da0 <pipeclose>:
80024da0:	e92d4800 	push	{fp, lr}
80024da4:	e28db004 	add	fp, sp, #4
80024da8:	e24dd008 	sub	sp, sp, #8
80024dac:	e50b0008 	str	r0, [fp, #-8]
80024db0:	e50b100c 	str	r1, [fp, #-12]
80024db4:	e51b3008 	ldr	r3, [fp, #-8]
80024db8:	e1a00003 	mov	r0, r3
80024dbc:	eb000487 	bl	80025fe0 <acquire>
80024dc0:	e51b300c 	ldr	r3, [fp, #-12]
80024dc4:	e3530000 	cmp	r3, #0
80024dc8:	0a000007 	beq	80024dec <pipeclose+0x4c>
80024dcc:	e51b3008 	ldr	r3, [fp, #-8]
80024dd0:	e3a02000 	mov	r2, #0
80024dd4:	e5832240 	str	r2, [r3, #576]	; 0x240
80024dd8:	e51b3008 	ldr	r3, [fp, #-8]
80024ddc:	e2833f8d 	add	r3, r3, #564	; 0x234
80024de0:	e1a00003 	mov	r0, r3
80024de4:	eb0003ea 	bl	80025d94 <wakeup>
80024de8:	ea000006 	b	80024e08 <pipeclose+0x68>
80024dec:	e51b3008 	ldr	r3, [fp, #-8]
80024df0:	e3a02000 	mov	r2, #0
80024df4:	e583223c 	str	r2, [r3, #572]	; 0x23c
80024df8:	e51b3008 	ldr	r3, [fp, #-8]
80024dfc:	e2833f8e 	add	r3, r3, #568	; 0x238
80024e00:	e1a00003 	mov	r0, r3
80024e04:	eb0003e2 	bl	80025d94 <wakeup>
80024e08:	e51b3008 	ldr	r3, [fp, #-8]
80024e0c:	e593323c 	ldr	r3, [r3, #572]	; 0x23c
80024e10:	e3530000 	cmp	r3, #0
80024e14:	1a00000d 	bne	80024e50 <pipeclose+0xb0>
80024e18:	e51b3008 	ldr	r3, [fp, #-8]
80024e1c:	e5933240 	ldr	r3, [r3, #576]	; 0x240
80024e20:	e3530000 	cmp	r3, #0
80024e24:	1a000009 	bne	80024e50 <pipeclose+0xb0>
80024e28:	e51b3008 	ldr	r3, [fp, #-8]
80024e2c:	e1a00003 	mov	r0, r3
80024e30:	eb000474 	bl	80026008 <release>
80024e34:	e3a00f91 	mov	r0, #580	; 0x244
80024e38:	ebfff20a 	bl	80021668 <get_order>
80024e3c:	e1a03000 	mov	r3, r0
80024e40:	e51b0008 	ldr	r0, [fp, #-8]
80024e44:	e1a01003 	mov	r1, r3
80024e48:	ebfff1d4 	bl	800215a0 <kfree>
80024e4c:	ea000002 	b	80024e5c <pipeclose+0xbc>
80024e50:	e51b3008 	ldr	r3, [fp, #-8]
80024e54:	e1a00003 	mov	r0, r3
80024e58:	eb00046a 	bl	80026008 <release>
80024e5c:	e24bd004 	sub	sp, fp, #4
80024e60:	e8bd8800 	pop	{fp, pc}

80024e64 <pipewrite>:
80024e64:	e92d4800 	push	{fp, lr}
80024e68:	e28db004 	add	fp, sp, #4
80024e6c:	e24dd018 	sub	sp, sp, #24
80024e70:	e50b0010 	str	r0, [fp, #-16]
80024e74:	e50b1014 	str	r1, [fp, #-20]	; 0xffffffec
80024e78:	e50b2018 	str	r2, [fp, #-24]	; 0xffffffe8
80024e7c:	e51b3010 	ldr	r3, [fp, #-16]
80024e80:	e1a00003 	mov	r0, r3
80024e84:	eb000455 	bl	80025fe0 <acquire>
80024e88:	e3a03000 	mov	r3, #0
80024e8c:	e50b3008 	str	r3, [fp, #-8]
80024e90:	ea00002c 	b	80024f48 <pipewrite+0xe4>
80024e94:	ea000012 	b	80024ee4 <pipewrite+0x80>
80024e98:	e51b3010 	ldr	r3, [fp, #-16]
80024e9c:	e593323c 	ldr	r3, [r3, #572]	; 0x23c
80024ea0:	e3530000 	cmp	r3, #0
80024ea4:	1a000004 	bne	80024ebc <pipewrite+0x58>
80024ea8:	e51b3010 	ldr	r3, [fp, #-16]
80024eac:	e1a00003 	mov	r0, r3
80024eb0:	eb000454 	bl	80026008 <release>
80024eb4:	e3e03000 	mvn	r3, #0
80024eb8:	ea00002e 	b	80024f78 <pipewrite+0x114>
80024ebc:	e51b3010 	ldr	r3, [fp, #-16]
80024ec0:	e2833f8d 	add	r3, r3, #564	; 0x234
80024ec4:	e1a00003 	mov	r0, r3
80024ec8:	eb0003b1 	bl	80025d94 <wakeup>
80024ecc:	e51b3010 	ldr	r3, [fp, #-16]
80024ed0:	e2832f8e 	add	r2, r3, #568	; 0x238
80024ed4:	e51b3010 	ldr	r3, [fp, #-16]
80024ed8:	e1a00002 	mov	r0, r2
80024edc:	e1a01003 	mov	r1, r3
80024ee0:	eb000353 	bl	80025c34 <sleep>
80024ee4:	e51b3010 	ldr	r3, [fp, #-16]
80024ee8:	e5932238 	ldr	r2, [r3, #568]	; 0x238
80024eec:	e51b3010 	ldr	r3, [fp, #-16]
80024ef0:	e5933234 	ldr	r3, [r3, #564]	; 0x234
80024ef4:	e2833c02 	add	r3, r3, #512	; 0x200
80024ef8:	e1520003 	cmp	r2, r3
80024efc:	0affffe5 	beq	80024e98 <pipewrite+0x34>
80024f00:	e51b3010 	ldr	r3, [fp, #-16]
80024f04:	e5933238 	ldr	r3, [r3, #568]	; 0x238
80024f08:	e2831001 	add	r1, r3, #1
80024f0c:	e51b2010 	ldr	r2, [fp, #-16]
80024f10:	e5821238 	str	r1, [r2, #568]	; 0x238
80024f14:	e7e81053 	ubfx	r1, r3, #0, #9
80024f18:	e51b3008 	ldr	r3, [fp, #-8]
80024f1c:	e51b2014 	ldr	r2, [fp, #-20]	; 0xffffffec
80024f20:	e0823003 	add	r3, r2, r3
80024f24:	e5d32000 	ldrb	r2, [r3]
80024f28:	e51b0010 	ldr	r0, [fp, #-16]
80024f2c:	e3a03030 	mov	r3, #48	; 0x30
80024f30:	e0801001 	add	r1, r0, r1
80024f34:	e0813003 	add	r3, r1, r3
80024f38:	e5c32004 	strb	r2, [r3, #4]
80024f3c:	e51b3008 	ldr	r3, [fp, #-8]
80024f40:	e2833001 	add	r3, r3, #1
80024f44:	e50b3008 	str	r3, [fp, #-8]
80024f48:	e51b2008 	ldr	r2, [fp, #-8]
80024f4c:	e51b3018 	ldr	r3, [fp, #-24]	; 0xffffffe8
80024f50:	e1520003 	cmp	r2, r3
80024f54:	baffffce 	blt	80024e94 <pipewrite+0x30>
80024f58:	e51b3010 	ldr	r3, [fp, #-16]
80024f5c:	e2833f8d 	add	r3, r3, #564	; 0x234
80024f60:	e1a00003 	mov	r0, r3
80024f64:	eb00038a 	bl	80025d94 <wakeup>
80024f68:	e51b3010 	ldr	r3, [fp, #-16]
80024f6c:	e1a00003 	mov	r0, r3
80024f70:	eb000424 	bl	80026008 <release>
80024f74:	e51b3018 	ldr	r3, [fp, #-24]	; 0xffffffe8
80024f78:	e1a00003 	mov	r0, r3
80024f7c:	e24bd004 	sub	sp, fp, #4
80024f80:	e8bd8800 	pop	{fp, pc}

80024f84 <piperead>:
80024f84:	e92d4800 	push	{fp, lr}
80024f88:	e28db004 	add	fp, sp, #4
80024f8c:	e24dd018 	sub	sp, sp, #24
80024f90:	e50b0010 	str	r0, [fp, #-16]
80024f94:	e50b1014 	str	r1, [fp, #-20]	; 0xffffffec
80024f98:	e50b2018 	str	r2, [fp, #-24]	; 0xffffffe8
80024f9c:	e51b3010 	ldr	r3, [fp, #-16]
80024fa0:	e1a00003 	mov	r0, r3
80024fa4:	eb00040d 	bl	80025fe0 <acquire>
80024fa8:	ea000010 	b	80024ff0 <piperead+0x6c>
80024fac:	e30d3608 	movw	r3, #54792	; 0xd608
80024fb0:	e348300a 	movt	r3, #32778	; 0x800a
80024fb4:	e5933000 	ldr	r3, [r3]
80024fb8:	e5933024 	ldr	r3, [r3, #36]	; 0x24
80024fbc:	e3530000 	cmp	r3, #0
80024fc0:	0a000004 	beq	80024fd8 <piperead+0x54>
80024fc4:	e51b3010 	ldr	r3, [fp, #-16]
80024fc8:	e1a00003 	mov	r0, r3
80024fcc:	eb00040d 	bl	80026008 <release>
80024fd0:	e3e03000 	mvn	r3, #0
80024fd4:	ea000037 	b	800250b8 <piperead+0x134>
80024fd8:	e51b3010 	ldr	r3, [fp, #-16]
80024fdc:	e2832f8d 	add	r2, r3, #564	; 0x234
80024fe0:	e51b3010 	ldr	r3, [fp, #-16]
80024fe4:	e1a00002 	mov	r0, r2
80024fe8:	e1a01003 	mov	r1, r3
80024fec:	eb000310 	bl	80025c34 <sleep>
80024ff0:	e51b3010 	ldr	r3, [fp, #-16]
80024ff4:	e5932234 	ldr	r2, [r3, #564]	; 0x234
80024ff8:	e51b3010 	ldr	r3, [fp, #-16]
80024ffc:	e5933238 	ldr	r3, [r3, #568]	; 0x238
80025000:	e1520003 	cmp	r2, r3
80025004:	1a000003 	bne	80025018 <piperead+0x94>
80025008:	e51b3010 	ldr	r3, [fp, #-16]
8002500c:	e5933240 	ldr	r3, [r3, #576]	; 0x240
80025010:	e3530000 	cmp	r3, #0
80025014:	1affffe4 	bne	80024fac <piperead+0x28>
80025018:	e3a03000 	mov	r3, #0
8002501c:	e50b3008 	str	r3, [fp, #-8]
80025020:	ea000018 	b	80025088 <piperead+0x104>
80025024:	e51b3010 	ldr	r3, [fp, #-16]
80025028:	e5932234 	ldr	r2, [r3, #564]	; 0x234
8002502c:	e51b3010 	ldr	r3, [fp, #-16]
80025030:	e5933238 	ldr	r3, [r3, #568]	; 0x238
80025034:	e1520003 	cmp	r2, r3
80025038:	1a000000 	bne	80025040 <piperead+0xbc>
8002503c:	ea000015 	b	80025098 <piperead+0x114>
80025040:	e51b3008 	ldr	r3, [fp, #-8]
80025044:	e51b2014 	ldr	r2, [fp, #-20]	; 0xffffffec
80025048:	e0822003 	add	r2, r2, r3
8002504c:	e51b3010 	ldr	r3, [fp, #-16]
80025050:	e5933234 	ldr	r3, [r3, #564]	; 0x234
80025054:	e2830001 	add	r0, r3, #1
80025058:	e51b1010 	ldr	r1, [fp, #-16]
8002505c:	e5810234 	str	r0, [r1, #564]	; 0x234
80025060:	e7e81053 	ubfx	r1, r3, #0, #9
80025064:	e51b0010 	ldr	r0, [fp, #-16]
80025068:	e3a03030 	mov	r3, #48	; 0x30
8002506c:	e0801001 	add	r1, r0, r1
80025070:	e0813003 	add	r3, r1, r3
80025074:	e5d33004 	ldrb	r3, [r3, #4]
80025078:	e5c23000 	strb	r3, [r2]
8002507c:	e51b3008 	ldr	r3, [fp, #-8]
80025080:	e2833001 	add	r3, r3, #1
80025084:	e50b3008 	str	r3, [fp, #-8]
80025088:	e51b2008 	ldr	r2, [fp, #-8]
8002508c:	e51b3018 	ldr	r3, [fp, #-24]	; 0xffffffe8
80025090:	e1520003 	cmp	r2, r3
80025094:	baffffe2 	blt	80025024 <piperead+0xa0>
80025098:	e51b3010 	ldr	r3, [fp, #-16]
8002509c:	e2833f8e 	add	r3, r3, #568	; 0x238
800250a0:	e1a00003 	mov	r0, r3
800250a4:	eb00033a 	bl	80025d94 <wakeup>
800250a8:	e51b3010 	ldr	r3, [fp, #-16]
800250ac:	e1a00003 	mov	r0, r3
800250b0:	eb0003d4 	bl	80026008 <release>
800250b4:	e51b3008 	ldr	r3, [fp, #-8]
800250b8:	e1a00003 	mov	r0, r3
800250bc:	e24bd004 	sub	sp, fp, #4
800250c0:	e8bd8800 	pop	{fp, pc}

800250c4 <pinit>:
800250c4:	e92d4800 	push	{fp, lr}
800250c8:	e28db004 	add	fp, sp, #4
800250cc:	e30d060c 	movw	r0, #54796	; 0xd60c
800250d0:	e348000a 	movt	r0, #32778	; 0x800a
800250d4:	e3091750 	movw	r1, #38736	; 0x9750
800250d8:	e3481002 	movt	r1, #32770	; 0x8002
800250dc:	eb0003ae 	bl	80025f9c <initlock>
800250e0:	e8bd8800 	pop	{fp, pc}

800250e4 <allocproc>:
800250e4:	e92d4800 	push	{fp, lr}
800250e8:	e28db004 	add	fp, sp, #4
800250ec:	e24dd008 	sub	sp, sp, #8
800250f0:	e30d060c 	movw	r0, #54796	; 0xd60c
800250f4:	e348000a 	movt	r0, #32778	; 0x800a
800250f8:	eb0003b8 	bl	80025fe0 <acquire>
800250fc:	e59f317c 	ldr	r3, [pc, #380]	; 80025280 <allocproc+0x19c>
80025100:	e50b3008 	str	r3, [fp, #-8]
80025104:	ea000020 	b	8002518c <allocproc+0xa8>
80025108:	e51b3008 	ldr	r3, [fp, #-8]
8002510c:	e5d3300c 	ldrb	r3, [r3, #12]
80025110:	e3530000 	cmp	r3, #0
80025114:	1a000019 	bne	80025180 <allocproc+0x9c>
80025118:	e1a00000 	nop			; (mov r0, r0)
8002511c:	e51b3008 	ldr	r3, [fp, #-8]
80025120:	e3a02001 	mov	r2, #1
80025124:	e5c3200c 	strb	r2, [r3, #12]
80025128:	e30a3014 	movw	r3, #40980	; 0xa014
8002512c:	e3483002 	movt	r3, #32770	; 0x8002
80025130:	e5933000 	ldr	r3, [r3]
80025134:	e1a02003 	mov	r2, r3
80025138:	e2821001 	add	r1, r2, #1
8002513c:	e30a3014 	movw	r3, #40980	; 0xa014
80025140:	e3483002 	movt	r3, #32770	; 0x8002
80025144:	e5831000 	str	r1, [r3]
80025148:	e51b3008 	ldr	r3, [fp, #-8]
8002514c:	e5832010 	str	r2, [r3, #16]
80025150:	e30d060c 	movw	r0, #54796	; 0xd60c
80025154:	e348000a 	movt	r0, #32778	; 0x800a
80025158:	eb0003aa 	bl	80026008 <release>
8002515c:	ebfff13a 	bl	8002164c <alloc_page>
80025160:	e1a02000 	mov	r2, r0
80025164:	e51b3008 	ldr	r3, [fp, #-8]
80025168:	e5832008 	str	r2, [r3, #8]
8002516c:	e51b3008 	ldr	r3, [fp, #-8]
80025170:	e5933008 	ldr	r3, [r3, #8]
80025174:	e3530000 	cmp	r3, #0
80025178:	1a000011 	bne	800251c4 <allocproc+0xe0>
8002517c:	ea00000b 	b	800251b0 <allocproc+0xcc>
80025180:	e51b3008 	ldr	r3, [fp, #-8]
80025184:	e283307c 	add	r3, r3, #124	; 0x7c
80025188:	e50b3008 	str	r3, [fp, #-8]
8002518c:	e51b2008 	ldr	r2, [fp, #-8]
80025190:	e59f30ec 	ldr	r3, [pc, #236]	; 80025284 <allocproc+0x1a0>
80025194:	e1520003 	cmp	r2, r3
80025198:	3affffda 	bcc	80025108 <allocproc+0x24>
8002519c:	e30d060c 	movw	r0, #54796	; 0xd60c
800251a0:	e348000a 	movt	r0, #32778	; 0x800a
800251a4:	eb000397 	bl	80026008 <release>
800251a8:	e3a03000 	mov	r3, #0
800251ac:	ea000030 	b	80025274 <allocproc+0x190>
800251b0:	e51b3008 	ldr	r3, [fp, #-8]
800251b4:	e3a02000 	mov	r2, #0
800251b8:	e5c3200c 	strb	r2, [r3, #12]
800251bc:	e3a03000 	mov	r3, #0
800251c0:	ea00002b 	b	80025274 <allocproc+0x190>
800251c4:	e51b3008 	ldr	r3, [fp, #-8]
800251c8:	e5933008 	ldr	r3, [r3, #8]
800251cc:	e2833a01 	add	r3, r3, #4096	; 0x1000
800251d0:	e50b300c 	str	r3, [fp, #-12]
800251d4:	e51b300c 	ldr	r3, [fp, #-12]
800251d8:	e2433048 	sub	r3, r3, #72	; 0x48
800251dc:	e50b300c 	str	r3, [fp, #-12]
800251e0:	e51b3008 	ldr	r3, [fp, #-8]
800251e4:	e51b200c 	ldr	r2, [fp, #-12]
800251e8:	e5832018 	str	r2, [r3, #24]
800251ec:	e51b300c 	ldr	r3, [fp, #-12]
800251f0:	e2433004 	sub	r3, r3, #4
800251f4:	e50b300c 	str	r3, [fp, #-12]
800251f8:	e30736d4 	movw	r3, #30420	; 0x76d4
800251fc:	e3483002 	movt	r3, #32770	; 0x8002
80025200:	e51b200c 	ldr	r2, [fp, #-12]
80025204:	e5823000 	str	r3, [r2]
80025208:	e51b300c 	ldr	r3, [fp, #-12]
8002520c:	e2433004 	sub	r3, r3, #4
80025210:	e50b300c 	str	r3, [fp, #-12]
80025214:	e51b3008 	ldr	r3, [fp, #-8]
80025218:	e5933008 	ldr	r3, [r3, #8]
8002521c:	e2832a01 	add	r2, r3, #4096	; 0x1000
80025220:	e51b300c 	ldr	r3, [fp, #-12]
80025224:	e5832000 	str	r2, [r3]
80025228:	e51b300c 	ldr	r3, [fp, #-12]
8002522c:	e2433028 	sub	r3, r3, #40	; 0x28
80025230:	e50b300c 	str	r3, [fp, #-12]
80025234:	e51b3008 	ldr	r3, [fp, #-8]
80025238:	e51b200c 	ldr	r2, [fp, #-12]
8002523c:	e583201c 	str	r2, [r3, #28]
80025240:	e51b3008 	ldr	r3, [fp, #-8]
80025244:	e593301c 	ldr	r3, [r3, #28]
80025248:	e1a00003 	mov	r0, r3
8002524c:	e3a01000 	mov	r1, #0
80025250:	e3a02028 	mov	r2, #40	; 0x28
80025254:	ebffeb69 	bl	80020000 <memset>
80025258:	e51b3008 	ldr	r3, [fp, #-8]
8002525c:	e593201c 	ldr	r2, [r3, #28]
80025260:	e3053bf4 	movw	r3, #23540	; 0x5bf4
80025264:	e3483002 	movt	r3, #32770	; 0x8002
80025268:	e2833004 	add	r3, r3, #4
8002526c:	e5823024 	str	r3, [r2, #36]	; 0x24
80025270:	e51b3008 	ldr	r3, [fp, #-8]
80025274:	e1a00003 	mov	r0, r3
80025278:	e24bd004 	sub	sp, fp, #4
8002527c:	e8bd8800 	pop	{fp, pc}
80025280:	800ad640 	.word	0x800ad640
80025284:	800af540 	.word	0x800af540

80025288 <error_init>:
80025288:	e92d4800 	push	{fp, lr}
8002528c:	e28db004 	add	fp, sp, #4
80025290:	e3090758 	movw	r0, #38744	; 0x9758
80025294:	e3480002 	movt	r0, #32770	; 0x8002
80025298:	ebfff235 	bl	80021b74 <panic>

8002529c <userinit>:
8002529c:	e92d4810 	push	{r4, fp, lr}
800252a0:	e28db008 	add	fp, sp, #8
800252a4:	e24dd00c 	sub	sp, sp, #12
800252a8:	ebffff8d 	bl	800250e4 <allocproc>
800252ac:	e50b0010 	str	r0, [fp, #-16]
800252b0:	e30d3604 	movw	r3, #54788	; 0xd604
800252b4:	e348300a 	movt	r3, #32778	; 0x800a
800252b8:	e51b2010 	ldr	r2, [fp, #-16]
800252bc:	e5832000 	str	r2, [r3]
800252c0:	eb000b3b 	bl	80027fb4 <kpt_alloc>
800252c4:	e1a02000 	mov	r2, r0
800252c8:	e51b3010 	ldr	r3, [fp, #-16]
800252cc:	e5832004 	str	r2, [r3, #4]
800252d0:	e51b3010 	ldr	r3, [fp, #-16]
800252d4:	e5933004 	ldr	r3, [r3, #4]
800252d8:	e3530000 	cmp	r3, #0
800252dc:	1a000002 	bne	800252ec <userinit+0x50>
800252e0:	e3090778 	movw	r0, #38776	; 0x9778
800252e4:	e3480002 	movt	r0, #32770	; 0x8002
800252e8:	ebfff221 	bl	80021b74 <panic>
800252ec:	e51b3010 	ldr	r3, [fp, #-16]
800252f0:	e5932004 	ldr	r2, [r3, #4]
800252f4:	e3003034 	movw	r3, #52	; 0x34
800252f8:	e3403000 	movt	r3, #0
800252fc:	e1a00002 	mov	r0, r2
80025300:	e30a108c 	movw	r1, #41100	; 0xa08c
80025304:	e3481002 	movt	r1, #32770	; 0x8002
80025308:	e1a02003 	mov	r2, r3
8002530c:	eb000be7 	bl	800282b0 <inituvm>
80025310:	e51b3010 	ldr	r3, [fp, #-16]
80025314:	e3a02a01 	mov	r2, #4096	; 0x1000
80025318:	e5832000 	str	r2, [r3]
8002531c:	e51b3010 	ldr	r3, [fp, #-16]
80025320:	e5933018 	ldr	r3, [r3, #24]
80025324:	e1a00003 	mov	r0, r3
80025328:	e3a01000 	mov	r1, #0
8002532c:	e3a02048 	mov	r2, #72	; 0x48
80025330:	ebffeb32 	bl	80020000 <memset>
80025334:	e51b3010 	ldr	r3, [fp, #-16]
80025338:	e5932018 	ldr	r2, [r3, #24]
8002533c:	e3053288 	movw	r3, #21128	; 0x5288
80025340:	e3483002 	movt	r3, #32770	; 0x8002
80025344:	e5823008 	str	r3, [r2, #8]
80025348:	e51b3010 	ldr	r3, [fp, #-16]
8002534c:	e5934018 	ldr	r4, [r3, #24]
80025350:	ebffec93 	bl	800205a4 <spsr_usr>
80025354:	e1a03000 	mov	r3, r0
80025358:	e584300c 	str	r3, [r4, #12]
8002535c:	e51b3010 	ldr	r3, [fp, #-16]
80025360:	e5933018 	ldr	r3, [r3, #24]
80025364:	e3a02a01 	mov	r2, #4096	; 0x1000
80025368:	e5832000 	str	r2, [r3]
8002536c:	e51b3010 	ldr	r3, [fp, #-16]
80025370:	e5933018 	ldr	r3, [r3, #24]
80025374:	e3a02000 	mov	r2, #0
80025378:	e5832004 	str	r2, [r3, #4]
8002537c:	e51b3010 	ldr	r3, [fp, #-16]
80025380:	e5933018 	ldr	r3, [r3, #24]
80025384:	e3a02000 	mov	r2, #0
80025388:	e5832044 	str	r2, [r3, #68]	; 0x44
8002538c:	e51b3010 	ldr	r3, [fp, #-16]
80025390:	e283306c 	add	r3, r3, #108	; 0x6c
80025394:	e1a00003 	mov	r0, r3
80025398:	e3091794 	movw	r1, #38804	; 0x9794
8002539c:	e3481002 	movt	r1, #32770	; 0x8002
800253a0:	e3a02010 	mov	r2, #16
800253a4:	ebffec29 	bl	80020450 <safestrcpy>
800253a8:	e30907a0 	movw	r0, #38816	; 0x97a0
800253ac:	e3480002 	movt	r0, #32770	; 0x8002
800253b0:	ebfffba3 	bl	80024244 <namei>
800253b4:	e1a02000 	mov	r2, r0
800253b8:	e51b3010 	ldr	r3, [fp, #-16]
800253bc:	e5832068 	str	r2, [r3, #104]	; 0x68
800253c0:	e51b3010 	ldr	r3, [fp, #-16]
800253c4:	e3a02003 	mov	r2, #3
800253c8:	e5c3200c 	strb	r2, [r3, #12]
800253cc:	e24bd008 	sub	sp, fp, #8
800253d0:	e8bd8810 	pop	{r4, fp, pc}

800253d4 <growproc>:
800253d4:	e92d4800 	push	{fp, lr}
800253d8:	e28db004 	add	fp, sp, #4
800253dc:	e24dd010 	sub	sp, sp, #16
800253e0:	e50b0010 	str	r0, [fp, #-16]
800253e4:	e30d3608 	movw	r3, #54792	; 0xd608
800253e8:	e348300a 	movt	r3, #32778	; 0x800a
800253ec:	e5933000 	ldr	r3, [r3]
800253f0:	e5933000 	ldr	r3, [r3]
800253f4:	e50b3008 	str	r3, [fp, #-8]
800253f8:	e51b3010 	ldr	r3, [fp, #-16]
800253fc:	e3530000 	cmp	r3, #0
80025400:	da000011 	ble	8002544c <growproc+0x78>
80025404:	e30d3608 	movw	r3, #54792	; 0xd608
80025408:	e348300a 	movt	r3, #32778	; 0x800a
8002540c:	e5933000 	ldr	r3, [r3]
80025410:	e5932004 	ldr	r2, [r3, #4]
80025414:	e51b1010 	ldr	r1, [fp, #-16]
80025418:	e51b3008 	ldr	r3, [fp, #-8]
8002541c:	e0813003 	add	r3, r1, r3
80025420:	e1a00002 	mov	r0, r2
80025424:	e51b1008 	ldr	r1, [fp, #-8]
80025428:	e1a02003 	mov	r2, r3
8002542c:	eb000c0d 	bl	80028468 <allocuvm>
80025430:	e1a03000 	mov	r3, r0
80025434:	e50b3008 	str	r3, [fp, #-8]
80025438:	e51b3008 	ldr	r3, [fp, #-8]
8002543c:	e3530000 	cmp	r3, #0
80025440:	1a000016 	bne	800254a0 <growproc+0xcc>
80025444:	e3e03000 	mvn	r3, #0
80025448:	ea00001f 	b	800254cc <growproc+0xf8>
8002544c:	e51b3010 	ldr	r3, [fp, #-16]
80025450:	e3530000 	cmp	r3, #0
80025454:	aa000011 	bge	800254a0 <growproc+0xcc>
80025458:	e30d3608 	movw	r3, #54792	; 0xd608
8002545c:	e348300a 	movt	r3, #32778	; 0x800a
80025460:	e5933000 	ldr	r3, [r3]
80025464:	e5932004 	ldr	r2, [r3, #4]
80025468:	e51b1010 	ldr	r1, [fp, #-16]
8002546c:	e51b3008 	ldr	r3, [fp, #-8]
80025470:	e0813003 	add	r3, r1, r3
80025474:	e1a00002 	mov	r0, r2
80025478:	e51b1008 	ldr	r1, [fp, #-8]
8002547c:	e1a02003 	mov	r2, r3
80025480:	eb000c37 	bl	80028564 <deallocuvm>
80025484:	e1a03000 	mov	r3, r0
80025488:	e50b3008 	str	r3, [fp, #-8]
8002548c:	e51b3008 	ldr	r3, [fp, #-8]
80025490:	e3530000 	cmp	r3, #0
80025494:	1a000001 	bne	800254a0 <growproc+0xcc>
80025498:	e3e03000 	mvn	r3, #0
8002549c:	ea00000a 	b	800254cc <growproc+0xf8>
800254a0:	e30d3608 	movw	r3, #54792	; 0xd608
800254a4:	e348300a 	movt	r3, #32778	; 0x800a
800254a8:	e5933000 	ldr	r3, [r3]
800254ac:	e51b2008 	ldr	r2, [fp, #-8]
800254b0:	e5832000 	str	r2, [r3]
800254b4:	e30d3608 	movw	r3, #54792	; 0xd608
800254b8:	e348300a 	movt	r3, #32778	; 0x800a
800254bc:	e5933000 	ldr	r3, [r3]
800254c0:	e1a00003 	mov	r0, r3
800254c4:	eb000b63 	bl	80028258 <switchuvm>
800254c8:	e3a03000 	mov	r3, #0
800254cc:	e1a00003 	mov	r0, r3
800254d0:	e24bd004 	sub	sp, fp, #4
800254d4:	e8bd8800 	pop	{fp, pc}

800254d8 <fork>:
800254d8:	e92d4800 	push	{fp, lr}
800254dc:	e28db004 	add	fp, sp, #4
800254e0:	e24dd010 	sub	sp, sp, #16
800254e4:	ebfffefe 	bl	800250e4 <allocproc>
800254e8:	e50b000c 	str	r0, [fp, #-12]
800254ec:	e51b300c 	ldr	r3, [fp, #-12]
800254f0:	e3530000 	cmp	r3, #0
800254f4:	1a000001 	bne	80025500 <fork+0x28>
800254f8:	e3e03000 	mvn	r3, #0
800254fc:	ea000071 	b	800256c8 <fork+0x1f0>
80025500:	e30d3608 	movw	r3, #54792	; 0xd608
80025504:	e348300a 	movt	r3, #32778	; 0x800a
80025508:	e5933000 	ldr	r3, [r3]
8002550c:	e5932004 	ldr	r2, [r3, #4]
80025510:	e30d3608 	movw	r3, #54792	; 0xd608
80025514:	e348300a 	movt	r3, #32778	; 0x800a
80025518:	e5933000 	ldr	r3, [r3]
8002551c:	e5933000 	ldr	r3, [r3]
80025520:	e1a00002 	mov	r0, r2
80025524:	e1a01003 	mov	r1, r3
80025528:	eb000c9a 	bl	80028798 <copyuvm>
8002552c:	e1a02000 	mov	r2, r0
80025530:	e51b300c 	ldr	r3, [fp, #-12]
80025534:	e5832004 	str	r2, [r3, #4]
80025538:	e51b300c 	ldr	r3, [fp, #-12]
8002553c:	e5933004 	ldr	r3, [r3, #4]
80025540:	e3530000 	cmp	r3, #0
80025544:	1a00000b 	bne	80025578 <fork+0xa0>
80025548:	e51b300c 	ldr	r3, [fp, #-12]
8002554c:	e5933008 	ldr	r3, [r3, #8]
80025550:	e1a00003 	mov	r0, r3
80025554:	ebfff033 	bl	80021628 <free_page>
80025558:	e51b300c 	ldr	r3, [fp, #-12]
8002555c:	e3a02000 	mov	r2, #0
80025560:	e5832008 	str	r2, [r3, #8]
80025564:	e51b300c 	ldr	r3, [fp, #-12]
80025568:	e3a02000 	mov	r2, #0
8002556c:	e5c3200c 	strb	r2, [r3, #12]
80025570:	e3e03000 	mvn	r3, #0
80025574:	ea000053 	b	800256c8 <fork+0x1f0>
80025578:	e30d3608 	movw	r3, #54792	; 0xd608
8002557c:	e348300a 	movt	r3, #32778	; 0x800a
80025580:	e5933000 	ldr	r3, [r3]
80025584:	e5932000 	ldr	r2, [r3]
80025588:	e51b300c 	ldr	r3, [fp, #-12]
8002558c:	e5832000 	str	r2, [r3]
80025590:	e30d3608 	movw	r3, #54792	; 0xd608
80025594:	e348300a 	movt	r3, #32778	; 0x800a
80025598:	e5932000 	ldr	r2, [r3]
8002559c:	e51b300c 	ldr	r3, [fp, #-12]
800255a0:	e5832014 	str	r2, [r3, #20]
800255a4:	e51b300c 	ldr	r3, [fp, #-12]
800255a8:	e5932018 	ldr	r2, [r3, #24]
800255ac:	e30d3608 	movw	r3, #54792	; 0xd608
800255b0:	e348300a 	movt	r3, #32778	; 0x800a
800255b4:	e5933000 	ldr	r3, [r3]
800255b8:	e5933018 	ldr	r3, [r3, #24]
800255bc:	e1a01002 	mov	r1, r2
800255c0:	e1a02003 	mov	r2, r3
800255c4:	e3a03048 	mov	r3, #72	; 0x48
800255c8:	e1a00001 	mov	r0, r1
800255cc:	e1a01002 	mov	r1, r2
800255d0:	e1a02003 	mov	r2, r3
800255d4:	ebffeb3a 	bl	800202c4 <memcpy>
800255d8:	e51b300c 	ldr	r3, [fp, #-12]
800255dc:	e5933018 	ldr	r3, [r3, #24]
800255e0:	e3a02000 	mov	r2, #0
800255e4:	e5832010 	str	r2, [r3, #16]
800255e8:	e3a03000 	mov	r3, #0
800255ec:	e50b3008 	str	r3, [fp, #-8]
800255f0:	ea000017 	b	80025654 <fork+0x17c>
800255f4:	e30d3608 	movw	r3, #54792	; 0xd608
800255f8:	e348300a 	movt	r3, #32778	; 0x800a
800255fc:	e5933000 	ldr	r3, [r3]
80025600:	e51b2008 	ldr	r2, [fp, #-8]
80025604:	e282200a 	add	r2, r2, #10
80025608:	e7933102 	ldr	r3, [r3, r2, lsl #2]
8002560c:	e3530000 	cmp	r3, #0
80025610:	0a00000c 	beq	80025648 <fork+0x170>
80025614:	e30d3608 	movw	r3, #54792	; 0xd608
80025618:	e348300a 	movt	r3, #32778	; 0x800a
8002561c:	e5933000 	ldr	r3, [r3]
80025620:	e51b2008 	ldr	r2, [fp, #-8]
80025624:	e282200a 	add	r2, r2, #10
80025628:	e7933102 	ldr	r3, [r3, r2, lsl #2]
8002562c:	e1a00003 	mov	r0, r3
80025630:	ebfff421 	bl	800226bc <filedup>
80025634:	e1a01000 	mov	r1, r0
80025638:	e51b300c 	ldr	r3, [fp, #-12]
8002563c:	e51b2008 	ldr	r2, [fp, #-8]
80025640:	e282200a 	add	r2, r2, #10
80025644:	e7831102 	str	r1, [r3, r2, lsl #2]
80025648:	e51b3008 	ldr	r3, [fp, #-8]
8002564c:	e2833001 	add	r3, r3, #1
80025650:	e50b3008 	str	r3, [fp, #-8]
80025654:	e51b3008 	ldr	r3, [fp, #-8]
80025658:	e353000f 	cmp	r3, #15
8002565c:	daffffe4 	ble	800255f4 <fork+0x11c>
80025660:	e30d3608 	movw	r3, #54792	; 0xd608
80025664:	e348300a 	movt	r3, #32778	; 0x800a
80025668:	e5933000 	ldr	r3, [r3]
8002566c:	e5933068 	ldr	r3, [r3, #104]	; 0x68
80025670:	e1a00003 	mov	r0, r3
80025674:	ebfff6f1 	bl	80023240 <idup>
80025678:	e1a02000 	mov	r2, r0
8002567c:	e51b300c 	ldr	r3, [fp, #-12]
80025680:	e5832068 	str	r2, [r3, #104]	; 0x68
80025684:	e51b300c 	ldr	r3, [fp, #-12]
80025688:	e5933010 	ldr	r3, [r3, #16]
8002568c:	e50b3010 	str	r3, [fp, #-16]
80025690:	e51b300c 	ldr	r3, [fp, #-12]
80025694:	e3a02003 	mov	r2, #3
80025698:	e5c3200c 	strb	r2, [r3, #12]
8002569c:	e51b300c 	ldr	r3, [fp, #-12]
800256a0:	e283206c 	add	r2, r3, #108	; 0x6c
800256a4:	e30d3608 	movw	r3, #54792	; 0xd608
800256a8:	e348300a 	movt	r3, #32778	; 0x800a
800256ac:	e5933000 	ldr	r3, [r3]
800256b0:	e283306c 	add	r3, r3, #108	; 0x6c
800256b4:	e1a00002 	mov	r0, r2
800256b8:	e1a01003 	mov	r1, r3
800256bc:	e3a02010 	mov	r2, #16
800256c0:	ebffeb62 	bl	80020450 <safestrcpy>
800256c4:	e51b3010 	ldr	r3, [fp, #-16]
800256c8:	e1a00003 	mov	r0, r3
800256cc:	e24bd004 	sub	sp, fp, #4
800256d0:	e8bd8800 	pop	{fp, pc}

800256d4 <exit>:
800256d4:	e92d4800 	push	{fp, lr}
800256d8:	e28db004 	add	fp, sp, #4
800256dc:	e24dd008 	sub	sp, sp, #8
800256e0:	e30d3608 	movw	r3, #54792	; 0xd608
800256e4:	e348300a 	movt	r3, #32778	; 0x800a
800256e8:	e5932000 	ldr	r2, [r3]
800256ec:	e30d3604 	movw	r3, #54788	; 0xd604
800256f0:	e348300a 	movt	r3, #32778	; 0x800a
800256f4:	e5933000 	ldr	r3, [r3]
800256f8:	e1520003 	cmp	r2, r3
800256fc:	1a000002 	bne	8002570c <exit+0x38>
80025700:	e30907a4 	movw	r0, #38820	; 0x97a4
80025704:	e3480002 	movt	r0, #32770	; 0x8002
80025708:	ebfff119 	bl	80021b74 <panic>
8002570c:	e3a03000 	mov	r3, #0
80025710:	e50b300c 	str	r3, [fp, #-12]
80025714:	ea000019 	b	80025780 <exit+0xac>
80025718:	e30d3608 	movw	r3, #54792	; 0xd608
8002571c:	e348300a 	movt	r3, #32778	; 0x800a
80025720:	e5933000 	ldr	r3, [r3]
80025724:	e51b200c 	ldr	r2, [fp, #-12]
80025728:	e282200a 	add	r2, r2, #10
8002572c:	e7933102 	ldr	r3, [r3, r2, lsl #2]
80025730:	e3530000 	cmp	r3, #0
80025734:	0a00000e 	beq	80025774 <exit+0xa0>
80025738:	e30d3608 	movw	r3, #54792	; 0xd608
8002573c:	e348300a 	movt	r3, #32778	; 0x800a
80025740:	e5933000 	ldr	r3, [r3]
80025744:	e51b200c 	ldr	r2, [fp, #-12]
80025748:	e282200a 	add	r2, r2, #10
8002574c:	e7933102 	ldr	r3, [r3, r2, lsl #2]
80025750:	e1a00003 	mov	r0, r3
80025754:	ebfff3f2 	bl	80022724 <fileclose>
80025758:	e30d3608 	movw	r3, #54792	; 0xd608
8002575c:	e348300a 	movt	r3, #32778	; 0x800a
80025760:	e5933000 	ldr	r3, [r3]
80025764:	e51b200c 	ldr	r2, [fp, #-12]
80025768:	e282200a 	add	r2, r2, #10
8002576c:	e3a01000 	mov	r1, #0
80025770:	e7831102 	str	r1, [r3, r2, lsl #2]
80025774:	e51b300c 	ldr	r3, [fp, #-12]
80025778:	e2833001 	add	r3, r3, #1
8002577c:	e50b300c 	str	r3, [fp, #-12]
80025780:	e51b300c 	ldr	r3, [fp, #-12]
80025784:	e353000f 	cmp	r3, #15
80025788:	daffffe2 	ble	80025718 <exit+0x44>
8002578c:	e30d3608 	movw	r3, #54792	; 0xd608
80025790:	e348300a 	movt	r3, #32778	; 0x800a
80025794:	e5933000 	ldr	r3, [r3]
80025798:	e5933068 	ldr	r3, [r3, #104]	; 0x68
8002579c:	e1a00003 	mov	r0, r3
800257a0:	ebfff741 	bl	800234ac <iput>
800257a4:	e30d3608 	movw	r3, #54792	; 0xd608
800257a8:	e348300a 	movt	r3, #32778	; 0x800a
800257ac:	e5933000 	ldr	r3, [r3]
800257b0:	e3a02000 	mov	r2, #0
800257b4:	e5832068 	str	r2, [r3, #104]	; 0x68
800257b8:	e30d060c 	movw	r0, #54796	; 0xd60c
800257bc:	e348000a 	movt	r0, #32778	; 0x800a
800257c0:	eb000206 	bl	80025fe0 <acquire>
800257c4:	e30d3608 	movw	r3, #54792	; 0xd608
800257c8:	e348300a 	movt	r3, #32778	; 0x800a
800257cc:	e5933000 	ldr	r3, [r3]
800257d0:	e5933014 	ldr	r3, [r3, #20]
800257d4:	e1a00003 	mov	r0, r3
800257d8:	eb00014e 	bl	80025d18 <wakeup1>
800257dc:	e59f3098 	ldr	r3, [pc, #152]	; 8002587c <exit+0x1a8>
800257e0:	e50b3008 	str	r3, [fp, #-8]
800257e4:	ea000017 	b	80025848 <exit+0x174>
800257e8:	e51b3008 	ldr	r3, [fp, #-8]
800257ec:	e5932014 	ldr	r2, [r3, #20]
800257f0:	e30d3608 	movw	r3, #54792	; 0xd608
800257f4:	e348300a 	movt	r3, #32778	; 0x800a
800257f8:	e5933000 	ldr	r3, [r3]
800257fc:	e1520003 	cmp	r2, r3
80025800:	1a00000d 	bne	8002583c <exit+0x168>
80025804:	e30d3604 	movw	r3, #54788	; 0xd604
80025808:	e348300a 	movt	r3, #32778	; 0x800a
8002580c:	e5932000 	ldr	r2, [r3]
80025810:	e51b3008 	ldr	r3, [fp, #-8]
80025814:	e5832014 	str	r2, [r3, #20]
80025818:	e51b3008 	ldr	r3, [fp, #-8]
8002581c:	e5d3300c 	ldrb	r3, [r3, #12]
80025820:	e3530005 	cmp	r3, #5
80025824:	1a000004 	bne	8002583c <exit+0x168>
80025828:	e30d3604 	movw	r3, #54788	; 0xd604
8002582c:	e348300a 	movt	r3, #32778	; 0x800a
80025830:	e5933000 	ldr	r3, [r3]
80025834:	e1a00003 	mov	r0, r3
80025838:	eb000136 	bl	80025d18 <wakeup1>
8002583c:	e51b3008 	ldr	r3, [fp, #-8]
80025840:	e283307c 	add	r3, r3, #124	; 0x7c
80025844:	e50b3008 	str	r3, [fp, #-8]
80025848:	e51b2008 	ldr	r2, [fp, #-8]
8002584c:	e59f302c 	ldr	r3, [pc, #44]	; 80025880 <exit+0x1ac>
80025850:	e1520003 	cmp	r2, r3
80025854:	3affffe3 	bcc	800257e8 <exit+0x114>
80025858:	e30d3608 	movw	r3, #54792	; 0xd608
8002585c:	e348300a 	movt	r3, #32778	; 0x800a
80025860:	e5933000 	ldr	r3, [r3]
80025864:	e3a02005 	mov	r2, #5
80025868:	e5c3200c 	strb	r2, [r3, #12]
8002586c:	eb000095 	bl	80025ac8 <sched>
80025870:	e30907b4 	movw	r0, #38836	; 0x97b4
80025874:	e3480002 	movt	r0, #32770	; 0x8002
80025878:	ebfff0bd 	bl	80021b74 <panic>
8002587c:	800ad640 	.word	0x800ad640
80025880:	800af540 	.word	0x800af540

80025884 <wait>:
80025884:	e92d4800 	push	{fp, lr}
80025888:	e28db004 	add	fp, sp, #4
8002588c:	e24dd010 	sub	sp, sp, #16
80025890:	e30d060c 	movw	r0, #54796	; 0xd60c
80025894:	e348000a 	movt	r0, #32778	; 0x800a
80025898:	eb0001d0 	bl	80025fe0 <acquire>
8002589c:	e3a03000 	mov	r3, #0
800258a0:	e50b300c 	str	r3, [fp, #-12]
800258a4:	e59f3144 	ldr	r3, [pc, #324]	; 800259f0 <wait+0x16c>
800258a8:	e50b3008 	str	r3, [fp, #-8]
800258ac:	ea000032 	b	8002597c <wait+0xf8>
800258b0:	e51b3008 	ldr	r3, [fp, #-8]
800258b4:	e5932014 	ldr	r2, [r3, #20]
800258b8:	e30d3608 	movw	r3, #54792	; 0xd608
800258bc:	e348300a 	movt	r3, #32778	; 0x800a
800258c0:	e5933000 	ldr	r3, [r3]
800258c4:	e1520003 	cmp	r2, r3
800258c8:	0a000000 	beq	800258d0 <wait+0x4c>
800258cc:	ea000027 	b	80025970 <wait+0xec>
800258d0:	e3a03001 	mov	r3, #1
800258d4:	e50b300c 	str	r3, [fp, #-12]
800258d8:	e51b3008 	ldr	r3, [fp, #-8]
800258dc:	e5d3300c 	ldrb	r3, [r3, #12]
800258e0:	e3530005 	cmp	r3, #5
800258e4:	1a000021 	bne	80025970 <wait+0xec>
800258e8:	e51b3008 	ldr	r3, [fp, #-8]
800258ec:	e5933010 	ldr	r3, [r3, #16]
800258f0:	e50b3010 	str	r3, [fp, #-16]
800258f4:	e51b3008 	ldr	r3, [fp, #-8]
800258f8:	e5933008 	ldr	r3, [r3, #8]
800258fc:	e1a00003 	mov	r0, r3
80025900:	ebffef48 	bl	80021628 <free_page>
80025904:	e51b3008 	ldr	r3, [fp, #-8]
80025908:	e3a02000 	mov	r2, #0
8002590c:	e5832008 	str	r2, [r3, #8]
80025910:	e51b3008 	ldr	r3, [fp, #-8]
80025914:	e5933004 	ldr	r3, [r3, #4]
80025918:	e1a00003 	mov	r0, r3
8002591c:	eb000b56 	bl	8002867c <freevm>
80025920:	e51b3008 	ldr	r3, [fp, #-8]
80025924:	e3a02000 	mov	r2, #0
80025928:	e5c3200c 	strb	r2, [r3, #12]
8002592c:	e51b3008 	ldr	r3, [fp, #-8]
80025930:	e3a02000 	mov	r2, #0
80025934:	e5832010 	str	r2, [r3, #16]
80025938:	e51b3008 	ldr	r3, [fp, #-8]
8002593c:	e3a02000 	mov	r2, #0
80025940:	e5832014 	str	r2, [r3, #20]
80025944:	e51b3008 	ldr	r3, [fp, #-8]
80025948:	e3a02000 	mov	r2, #0
8002594c:	e5c3206c 	strb	r2, [r3, #108]	; 0x6c
80025950:	e51b3008 	ldr	r3, [fp, #-8]
80025954:	e3a02000 	mov	r2, #0
80025958:	e5832024 	str	r2, [r3, #36]	; 0x24
8002595c:	e30d060c 	movw	r0, #54796	; 0xd60c
80025960:	e348000a 	movt	r0, #32778	; 0x800a
80025964:	eb0001a7 	bl	80026008 <release>
80025968:	e51b3010 	ldr	r3, [fp, #-16]
8002596c:	ea00001c 	b	800259e4 <wait+0x160>
80025970:	e51b3008 	ldr	r3, [fp, #-8]
80025974:	e283307c 	add	r3, r3, #124	; 0x7c
80025978:	e50b3008 	str	r3, [fp, #-8]
8002597c:	e51b2008 	ldr	r2, [fp, #-8]
80025980:	e59f306c 	ldr	r3, [pc, #108]	; 800259f4 <wait+0x170>
80025984:	e1520003 	cmp	r2, r3
80025988:	3affffc8 	bcc	800258b0 <wait+0x2c>
8002598c:	e51b300c 	ldr	r3, [fp, #-12]
80025990:	e3530000 	cmp	r3, #0
80025994:	0a000005 	beq	800259b0 <wait+0x12c>
80025998:	e30d3608 	movw	r3, #54792	; 0xd608
8002599c:	e348300a 	movt	r3, #32778	; 0x800a
800259a0:	e5933000 	ldr	r3, [r3]
800259a4:	e5933024 	ldr	r3, [r3, #36]	; 0x24
800259a8:	e3530000 	cmp	r3, #0
800259ac:	0a000004 	beq	800259c4 <wait+0x140>
800259b0:	e30d060c 	movw	r0, #54796	; 0xd60c
800259b4:	e348000a 	movt	r0, #32778	; 0x800a
800259b8:	eb000192 	bl	80026008 <release>
800259bc:	e3e03000 	mvn	r3, #0
800259c0:	ea000007 	b	800259e4 <wait+0x160>
800259c4:	e30d3608 	movw	r3, #54792	; 0xd608
800259c8:	e348300a 	movt	r3, #32778	; 0x800a
800259cc:	e5933000 	ldr	r3, [r3]
800259d0:	e1a00003 	mov	r0, r3
800259d4:	e30d160c 	movw	r1, #54796	; 0xd60c
800259d8:	e348100a 	movt	r1, #32778	; 0x800a
800259dc:	eb000094 	bl	80025c34 <sleep>
800259e0:	eaffffad 	b	8002589c <wait+0x18>
800259e4:	e1a00003 	mov	r0, r3
800259e8:	e24bd004 	sub	sp, fp, #4
800259ec:	e8bd8800 	pop	{fp, pc}
800259f0:	800ad640 	.word	0x800ad640
800259f4:	800af540 	.word	0x800af540

800259f8 <scheduler>:
800259f8:	e92d4800 	push	{fp, lr}
800259fc:	e28db004 	add	fp, sp, #4
80025a00:	e24dd008 	sub	sp, sp, #8
80025a04:	ebffead9 	bl	80020570 <sti>
80025a08:	e30d060c 	movw	r0, #54796	; 0xd60c
80025a0c:	e348000a 	movt	r0, #32778	; 0x800a
80025a10:	eb000172 	bl	80025fe0 <acquire>
80025a14:	e59f30a4 	ldr	r3, [pc, #164]	; 80025ac0 <scheduler+0xc8>
80025a18:	e50b3008 	str	r3, [fp, #-8]
80025a1c:	ea00001f 	b	80025aa0 <scheduler+0xa8>
80025a20:	e51b3008 	ldr	r3, [fp, #-8]
80025a24:	e5d3300c 	ldrb	r3, [r3, #12]
80025a28:	e3530003 	cmp	r3, #3
80025a2c:	0a000000 	beq	80025a34 <scheduler+0x3c>
80025a30:	ea000017 	b	80025a94 <scheduler+0x9c>
80025a34:	e30d3608 	movw	r3, #54792	; 0xd608
80025a38:	e348300a 	movt	r3, #32778	; 0x800a
80025a3c:	e51b2008 	ldr	r2, [fp, #-8]
80025a40:	e5832000 	str	r2, [r3]
80025a44:	e51b0008 	ldr	r0, [fp, #-8]
80025a48:	eb000a02 	bl	80028258 <switchuvm>
80025a4c:	e51b3008 	ldr	r3, [fp, #-8]
80025a50:	e3a02004 	mov	r2, #4
80025a54:	e5c3200c 	strb	r2, [r3, #12]
80025a58:	e30d3518 	movw	r3, #54552	; 0xd518
80025a5c:	e348300a 	movt	r3, #32778	; 0x800a
80025a60:	e5933000 	ldr	r3, [r3]
80025a64:	e2832004 	add	r2, r3, #4
80025a68:	e30d3608 	movw	r3, #54792	; 0xd608
80025a6c:	e348300a 	movt	r3, #32778	; 0x800a
80025a70:	e5933000 	ldr	r3, [r3]
80025a74:	e593301c 	ldr	r3, [r3, #28]
80025a78:	e1a00002 	mov	r0, r2
80025a7c:	e1a01003 	mov	r1, r3
80025a80:	eb000174 	bl	80026058 <swtch>
80025a84:	e30d3608 	movw	r3, #54792	; 0xd608
80025a88:	e348300a 	movt	r3, #32778	; 0x800a
80025a8c:	e3a02000 	mov	r2, #0
80025a90:	e5832000 	str	r2, [r3]
80025a94:	e51b3008 	ldr	r3, [fp, #-8]
80025a98:	e283307c 	add	r3, r3, #124	; 0x7c
80025a9c:	e50b3008 	str	r3, [fp, #-8]
80025aa0:	e51b2008 	ldr	r2, [fp, #-8]
80025aa4:	e59f3018 	ldr	r3, [pc, #24]	; 80025ac4 <scheduler+0xcc>
80025aa8:	e1520003 	cmp	r2, r3
80025aac:	3affffdb 	bcc	80025a20 <scheduler+0x28>
80025ab0:	e30d060c 	movw	r0, #54796	; 0xd60c
80025ab4:	e348000a 	movt	r0, #32778	; 0x800a
80025ab8:	eb000152 	bl	80026008 <release>
80025abc:	eaffffd0 	b	80025a04 <scheduler+0xc>
80025ac0:	800ad640 	.word	0x800ad640
80025ac4:	800af540 	.word	0x800af540

80025ac8 <sched>:
80025ac8:	e92d4800 	push	{fp, lr}
80025acc:	e28db004 	add	fp, sp, #4
80025ad0:	e24dd008 	sub	sp, sp, #8
80025ad4:	e30d060c 	movw	r0, #54796	; 0xd60c
80025ad8:	e348000a 	movt	r0, #32778	; 0x800a
80025adc:	eb000153 	bl	80026030 <holding>
80025ae0:	e1a03000 	mov	r3, r0
80025ae4:	e3530000 	cmp	r3, #0
80025ae8:	1a000002 	bne	80025af8 <sched+0x30>
80025aec:	e30907c0 	movw	r0, #38848	; 0x97c0
80025af0:	e3480002 	movt	r0, #32770	; 0x8002
80025af4:	ebfff01e 	bl	80021b74 <panic>
80025af8:	e30d3518 	movw	r3, #54552	; 0xd518
80025afc:	e348300a 	movt	r3, #32778	; 0x800a
80025b00:	e5933000 	ldr	r3, [r3]
80025b04:	e593300c 	ldr	r3, [r3, #12]
80025b08:	e3530001 	cmp	r3, #1
80025b0c:	0a000002 	beq	80025b1c <sched+0x54>
80025b10:	e30907d4 	movw	r0, #38868	; 0x97d4
80025b14:	e3480002 	movt	r0, #32770	; 0x8002
80025b18:	ebfff015 	bl	80021b74 <panic>
80025b1c:	e30d3608 	movw	r3, #54792	; 0xd608
80025b20:	e348300a 	movt	r3, #32778	; 0x800a
80025b24:	e5933000 	ldr	r3, [r3]
80025b28:	e5d3300c 	ldrb	r3, [r3, #12]
80025b2c:	e3530004 	cmp	r3, #4
80025b30:	1a000002 	bne	80025b40 <sched+0x78>
80025b34:	e30907e0 	movw	r0, #38880	; 0x97e0
80025b38:	e3480002 	movt	r0, #32770	; 0x8002
80025b3c:	ebfff00c 	bl	80021b74 <panic>
80025b40:	ebffeaa7 	bl	800205e4 <int_enabled>
80025b44:	e1a03000 	mov	r3, r0
80025b48:	e3530000 	cmp	r3, #0
80025b4c:	0a000002 	beq	80025b5c <sched+0x94>
80025b50:	e30907f0 	movw	r0, #38896	; 0x97f0
80025b54:	e3480002 	movt	r0, #32770	; 0x8002
80025b58:	ebfff005 	bl	80021b74 <panic>
80025b5c:	e30d3518 	movw	r3, #54552	; 0xd518
80025b60:	e348300a 	movt	r3, #32778	; 0x800a
80025b64:	e5933000 	ldr	r3, [r3]
80025b68:	e5933010 	ldr	r3, [r3, #16]
80025b6c:	e50b3008 	str	r3, [fp, #-8]
80025b70:	e30d3608 	movw	r3, #54792	; 0xd608
80025b74:	e348300a 	movt	r3, #32778	; 0x800a
80025b78:	e5933000 	ldr	r3, [r3]
80025b7c:	e283201c 	add	r2, r3, #28
80025b80:	e30d3518 	movw	r3, #54552	; 0xd518
80025b84:	e348300a 	movt	r3, #32778	; 0x800a
80025b88:	e5933000 	ldr	r3, [r3]
80025b8c:	e5933004 	ldr	r3, [r3, #4]
80025b90:	e1a00002 	mov	r0, r2
80025b94:	e1a01003 	mov	r1, r3
80025b98:	eb00012e 	bl	80026058 <swtch>
80025b9c:	e30d3518 	movw	r3, #54552	; 0xd518
80025ba0:	e348300a 	movt	r3, #32778	; 0x800a
80025ba4:	e5933000 	ldr	r3, [r3]
80025ba8:	e51b2008 	ldr	r2, [fp, #-8]
80025bac:	e5832010 	str	r2, [r3, #16]
80025bb0:	e24bd004 	sub	sp, fp, #4
80025bb4:	e8bd8800 	pop	{fp, pc}

80025bb8 <yield>:
80025bb8:	e92d4800 	push	{fp, lr}
80025bbc:	e28db004 	add	fp, sp, #4
80025bc0:	e30d060c 	movw	r0, #54796	; 0xd60c
80025bc4:	e348000a 	movt	r0, #32778	; 0x800a
80025bc8:	eb000104 	bl	80025fe0 <acquire>
80025bcc:	e30d3608 	movw	r3, #54792	; 0xd608
80025bd0:	e348300a 	movt	r3, #32778	; 0x800a
80025bd4:	e5933000 	ldr	r3, [r3]
80025bd8:	e3a02003 	mov	r2, #3
80025bdc:	e5c3200c 	strb	r2, [r3, #12]
80025be0:	ebffffb8 	bl	80025ac8 <sched>
80025be4:	e30d060c 	movw	r0, #54796	; 0xd60c
80025be8:	e348000a 	movt	r0, #32778	; 0x800a
80025bec:	eb000105 	bl	80026008 <release>
80025bf0:	e8bd8800 	pop	{fp, pc}

80025bf4 <forkret>:
80025bf4:	e92d4800 	push	{fp, lr}
80025bf8:	e28db004 	add	fp, sp, #4
80025bfc:	e30d060c 	movw	r0, #54796	; 0xd60c
80025c00:	e348000a 	movt	r0, #32778	; 0x800a
80025c04:	eb0000ff 	bl	80026008 <release>
80025c08:	e30a3018 	movw	r3, #40984	; 0xa018
80025c0c:	e3483002 	movt	r3, #32770	; 0x8002
80025c10:	e5933000 	ldr	r3, [r3]
80025c14:	e3530000 	cmp	r3, #0
80025c18:	0a000004 	beq	80025c30 <forkret+0x3c>
80025c1c:	e30a3018 	movw	r3, #40984	; 0xa018
80025c20:	e3483002 	movt	r3, #32770	; 0x8002
80025c24:	e3a02000 	mov	r2, #0
80025c28:	e5832000 	str	r2, [r3]
80025c2c:	ebfff99e 	bl	800242ac <initlog>
80025c30:	e8bd8800 	pop	{fp, pc}

80025c34 <sleep>:
80025c34:	e92d4800 	push	{fp, lr}
80025c38:	e28db004 	add	fp, sp, #4
80025c3c:	e24dd008 	sub	sp, sp, #8
80025c40:	e50b0008 	str	r0, [fp, #-8]
80025c44:	e50b100c 	str	r1, [fp, #-12]
80025c48:	e30d3608 	movw	r3, #54792	; 0xd608
80025c4c:	e348300a 	movt	r3, #32778	; 0x800a
80025c50:	e5933000 	ldr	r3, [r3]
80025c54:	e3530000 	cmp	r3, #0
80025c58:	1a000002 	bne	80025c68 <sleep+0x34>
80025c5c:	e3090804 	movw	r0, #38916	; 0x9804
80025c60:	e3480002 	movt	r0, #32770	; 0x8002
80025c64:	ebffefc2 	bl	80021b74 <panic>
80025c68:	e51b300c 	ldr	r3, [fp, #-12]
80025c6c:	e3530000 	cmp	r3, #0
80025c70:	1a000002 	bne	80025c80 <sleep+0x4c>
80025c74:	e309080c 	movw	r0, #38924	; 0x980c
80025c78:	e3480002 	movt	r0, #32770	; 0x8002
80025c7c:	ebffefbc 	bl	80021b74 <panic>
80025c80:	e51b200c 	ldr	r2, [fp, #-12]
80025c84:	e30d360c 	movw	r3, #54796	; 0xd60c
80025c88:	e348300a 	movt	r3, #32778	; 0x800a
80025c8c:	e1520003 	cmp	r2, r3
80025c90:	0a000004 	beq	80025ca8 <sleep+0x74>
80025c94:	e30d060c 	movw	r0, #54796	; 0xd60c
80025c98:	e348000a 	movt	r0, #32778	; 0x800a
80025c9c:	eb0000cf 	bl	80025fe0 <acquire>
80025ca0:	e51b000c 	ldr	r0, [fp, #-12]
80025ca4:	eb0000d7 	bl	80026008 <release>
80025ca8:	e30d3608 	movw	r3, #54792	; 0xd608
80025cac:	e348300a 	movt	r3, #32778	; 0x800a
80025cb0:	e5933000 	ldr	r3, [r3]
80025cb4:	e51b2008 	ldr	r2, [fp, #-8]
80025cb8:	e5832020 	str	r2, [r3, #32]
80025cbc:	e30d3608 	movw	r3, #54792	; 0xd608
80025cc0:	e348300a 	movt	r3, #32778	; 0x800a
80025cc4:	e5933000 	ldr	r3, [r3]
80025cc8:	e3a02002 	mov	r2, #2
80025ccc:	e5c3200c 	strb	r2, [r3, #12]
80025cd0:	ebffff7c 	bl	80025ac8 <sched>
80025cd4:	e30d3608 	movw	r3, #54792	; 0xd608
80025cd8:	e348300a 	movt	r3, #32778	; 0x800a
80025cdc:	e5933000 	ldr	r3, [r3]
80025ce0:	e3a02000 	mov	r2, #0
80025ce4:	e5832020 	str	r2, [r3, #32]
80025ce8:	e51b200c 	ldr	r2, [fp, #-12]
80025cec:	e30d360c 	movw	r3, #54796	; 0xd60c
80025cf0:	e348300a 	movt	r3, #32778	; 0x800a
80025cf4:	e1520003 	cmp	r2, r3
80025cf8:	0a000004 	beq	80025d10 <sleep+0xdc>
80025cfc:	e30d060c 	movw	r0, #54796	; 0xd60c
80025d00:	e348000a 	movt	r0, #32778	; 0x800a
80025d04:	eb0000bf 	bl	80026008 <release>
80025d08:	e51b000c 	ldr	r0, [fp, #-12]
80025d0c:	eb0000b3 	bl	80025fe0 <acquire>
80025d10:	e24bd004 	sub	sp, fp, #4
80025d14:	e8bd8800 	pop	{fp, pc}

80025d18 <wakeup1>:
80025d18:	e52db004 	push	{fp}		; (str fp, [sp, #-4]!)
80025d1c:	e28db000 	add	fp, sp, #0
80025d20:	e24dd014 	sub	sp, sp, #20
80025d24:	e50b0010 	str	r0, [fp, #-16]
80025d28:	e59f305c 	ldr	r3, [pc, #92]	; 80025d8c <wakeup1+0x74>
80025d2c:	e50b3008 	str	r3, [fp, #-8]
80025d30:	ea00000e 	b	80025d70 <wakeup1+0x58>
80025d34:	e51b3008 	ldr	r3, [fp, #-8]
80025d38:	e5d3300c 	ldrb	r3, [r3, #12]
80025d3c:	e3530002 	cmp	r3, #2
80025d40:	1a000007 	bne	80025d64 <wakeup1+0x4c>
80025d44:	e51b3008 	ldr	r3, [fp, #-8]
80025d48:	e5932020 	ldr	r2, [r3, #32]
80025d4c:	e51b3010 	ldr	r3, [fp, #-16]
80025d50:	e1520003 	cmp	r2, r3
80025d54:	1a000002 	bne	80025d64 <wakeup1+0x4c>
80025d58:	e51b3008 	ldr	r3, [fp, #-8]
80025d5c:	e3a02003 	mov	r2, #3
80025d60:	e5c3200c 	strb	r2, [r3, #12]
80025d64:	e51b3008 	ldr	r3, [fp, #-8]
80025d68:	e283307c 	add	r3, r3, #124	; 0x7c
80025d6c:	e50b3008 	str	r3, [fp, #-8]
80025d70:	e51b2008 	ldr	r2, [fp, #-8]
80025d74:	e59f3014 	ldr	r3, [pc, #20]	; 80025d90 <wakeup1+0x78>
80025d78:	e1520003 	cmp	r2, r3
80025d7c:	3affffec 	bcc	80025d34 <wakeup1+0x1c>
80025d80:	e24bd000 	sub	sp, fp, #0
80025d84:	e49db004 	pop	{fp}		; (ldr fp, [sp], #4)
80025d88:	e12fff1e 	bx	lr
80025d8c:	800ad640 	.word	0x800ad640
80025d90:	800af540 	.word	0x800af540

80025d94 <wakeup>:
80025d94:	e92d4800 	push	{fp, lr}
80025d98:	e28db004 	add	fp, sp, #4
80025d9c:	e24dd008 	sub	sp, sp, #8
80025da0:	e50b0008 	str	r0, [fp, #-8]
80025da4:	e30d060c 	movw	r0, #54796	; 0xd60c
80025da8:	e348000a 	movt	r0, #32778	; 0x800a
80025dac:	eb00008b 	bl	80025fe0 <acquire>
80025db0:	e51b0008 	ldr	r0, [fp, #-8]
80025db4:	ebffffd7 	bl	80025d18 <wakeup1>
80025db8:	e30d060c 	movw	r0, #54796	; 0xd60c
80025dbc:	e348000a 	movt	r0, #32778	; 0x800a
80025dc0:	eb000090 	bl	80026008 <release>
80025dc4:	e24bd004 	sub	sp, fp, #4
80025dc8:	e8bd8800 	pop	{fp, pc}

80025dcc <kill>:
80025dcc:	e92d4800 	push	{fp, lr}
80025dd0:	e28db004 	add	fp, sp, #4
80025dd4:	e24dd010 	sub	sp, sp, #16
80025dd8:	e50b0010 	str	r0, [fp, #-16]
80025ddc:	e30d060c 	movw	r0, #54796	; 0xd60c
80025de0:	e348000a 	movt	r0, #32778	; 0x800a
80025de4:	eb00007d 	bl	80025fe0 <acquire>
80025de8:	e59f308c 	ldr	r3, [pc, #140]	; 80025e7c <kill+0xb0>
80025dec:	e50b3008 	str	r3, [fp, #-8]
80025df0:	ea000016 	b	80025e50 <kill+0x84>
80025df4:	e51b3008 	ldr	r3, [fp, #-8]
80025df8:	e5932010 	ldr	r2, [r3, #16]
80025dfc:	e51b3010 	ldr	r3, [fp, #-16]
80025e00:	e1520003 	cmp	r2, r3
80025e04:	1a00000e 	bne	80025e44 <kill+0x78>
80025e08:	e51b3008 	ldr	r3, [fp, #-8]
80025e0c:	e3a02001 	mov	r2, #1
80025e10:	e5832024 	str	r2, [r3, #36]	; 0x24
80025e14:	e51b3008 	ldr	r3, [fp, #-8]
80025e18:	e5d3300c 	ldrb	r3, [r3, #12]
80025e1c:	e3530002 	cmp	r3, #2
80025e20:	1a000002 	bne	80025e30 <kill+0x64>
80025e24:	e51b3008 	ldr	r3, [fp, #-8]
80025e28:	e3a02003 	mov	r2, #3
80025e2c:	e5c3200c 	strb	r2, [r3, #12]
80025e30:	e30d060c 	movw	r0, #54796	; 0xd60c
80025e34:	e348000a 	movt	r0, #32778	; 0x800a
80025e38:	eb000072 	bl	80026008 <release>
80025e3c:	e3a03000 	mov	r3, #0
80025e40:	ea00000a 	b	80025e70 <kill+0xa4>
80025e44:	e51b3008 	ldr	r3, [fp, #-8]
80025e48:	e283307c 	add	r3, r3, #124	; 0x7c
80025e4c:	e50b3008 	str	r3, [fp, #-8]
80025e50:	e51b2008 	ldr	r2, [fp, #-8]
80025e54:	e59f3024 	ldr	r3, [pc, #36]	; 80025e80 <kill+0xb4>
80025e58:	e1520003 	cmp	r2, r3
80025e5c:	3affffe4 	bcc	80025df4 <kill+0x28>
80025e60:	e30d060c 	movw	r0, #54796	; 0xd60c
80025e64:	e348000a 	movt	r0, #32778	; 0x800a
80025e68:	eb000066 	bl	80026008 <release>
80025e6c:	e3e03000 	mvn	r3, #0
80025e70:	e1a00003 	mov	r0, r3
80025e74:	e24bd004 	sub	sp, fp, #4
80025e78:	e8bd8800 	pop	{fp, pc}
80025e7c:	800ad640 	.word	0x800ad640
80025e80:	800af540 	.word	0x800af540

80025e84 <procdump>:
80025e84:	e92d4800 	push	{fp, lr}
80025e88:	e28db004 	add	fp, sp, #4
80025e8c:	e24dd008 	sub	sp, sp, #8
80025e90:	e59f30c8 	ldr	r3, [pc, #200]	; 80025f60 <procdump+0xdc>
80025e94:	e50b3008 	str	r3, [fp, #-8]
80025e98:	ea000027 	b	80025f3c <procdump+0xb8>
80025e9c:	e51b3008 	ldr	r3, [fp, #-8]
80025ea0:	e5d3300c 	ldrb	r3, [r3, #12]
80025ea4:	e3530000 	cmp	r3, #0
80025ea8:	1a000000 	bne	80025eb0 <procdump+0x2c>
80025eac:	ea00001f 	b	80025f30 <procdump+0xac>
80025eb0:	e51b3008 	ldr	r3, [fp, #-8]
80025eb4:	e5d3300c 	ldrb	r3, [r3, #12]
80025eb8:	e3530005 	cmp	r3, #5
80025ebc:	8a00000f 	bhi	80025f00 <procdump+0x7c>
80025ec0:	e51b3008 	ldr	r3, [fp, #-8]
80025ec4:	e5d3300c 	ldrb	r3, [r3, #12]
80025ec8:	e1a02003 	mov	r2, r3
80025ecc:	e30a301c 	movw	r3, #40988	; 0xa01c
80025ed0:	e3483002 	movt	r3, #32770	; 0x8002
80025ed4:	e7933102 	ldr	r3, [r3, r2, lsl #2]
80025ed8:	e3530000 	cmp	r3, #0
80025edc:	0a000007 	beq	80025f00 <procdump+0x7c>
80025ee0:	e51b3008 	ldr	r3, [fp, #-8]
80025ee4:	e5d3300c 	ldrb	r3, [r3, #12]
80025ee8:	e1a02003 	mov	r2, r3
80025eec:	e30a301c 	movw	r3, #40988	; 0xa01c
80025ef0:	e3483002 	movt	r3, #32770	; 0x8002
80025ef4:	e7933102 	ldr	r3, [r3, r2, lsl #2]
80025ef8:	e50b300c 	str	r3, [fp, #-12]
80025efc:	ea000002 	b	80025f0c <procdump+0x88>
80025f00:	e3093820 	movw	r3, #38944	; 0x9820
80025f04:	e3483002 	movt	r3, #32770	; 0x8002
80025f08:	e50b300c 	str	r3, [fp, #-12]
80025f0c:	e51b3008 	ldr	r3, [fp, #-8]
80025f10:	e5932010 	ldr	r2, [r3, #16]
80025f14:	e51b3008 	ldr	r3, [fp, #-8]
80025f18:	e283306c 	add	r3, r3, #108	; 0x6c
80025f1c:	e3090824 	movw	r0, #38948	; 0x9824
80025f20:	e3480002 	movt	r0, #32770	; 0x8002
80025f24:	e1a01002 	mov	r1, r2
80025f28:	e51b200c 	ldr	r2, [fp, #-12]
80025f2c:	ebffee8e 	bl	8002196c <cprintf>
80025f30:	e51b3008 	ldr	r3, [fp, #-8]
80025f34:	e283307c 	add	r3, r3, #124	; 0x7c
80025f38:	e50b3008 	str	r3, [fp, #-8]
80025f3c:	e51b2008 	ldr	r2, [fp, #-8]
80025f40:	e59f301c 	ldr	r3, [pc, #28]	; 80025f64 <procdump+0xe0>
80025f44:	e1520003 	cmp	r2, r3
80025f48:	3affffd3 	bcc	80025e9c <procdump+0x18>
80025f4c:	e3090830 	movw	r0, #38960	; 0x9830
80025f50:	e3480002 	movt	r0, #32770	; 0x8002
80025f54:	ebffea2b 	bl	80020808 <show_callstk>
80025f58:	e24bd004 	sub	sp, fp, #4
80025f5c:	e8bd8800 	pop	{fp, pc}
80025f60:	800ad640 	.word	0x800ad640
80025f64:	800af540 	.word	0x800af540

80025f68 <sleepwrap>:
80025f68:	e92d4800 	push	{fp, lr}
80025f6c:	e28db004 	add	fp, sp, #4
80025f70:	e24dd008 	sub	sp, sp, #8
80025f74:	e50b0008 	str	r0, [fp, #-8]
80025f78:	e30d060c 	movw	r0, #54796	; 0xd60c
80025f7c:	e348000a 	movt	r0, #32778	; 0x800a
80025f80:	eb000016 	bl	80025fe0 <acquire>
80025f84:	e51b0008 	ldr	r0, [fp, #-8]
80025f88:	e30d160c 	movw	r1, #54796	; 0xd60c
80025f8c:	e348100a 	movt	r1, #32778	; 0x800a
80025f90:	ebffff27 	bl	80025c34 <sleep>
80025f94:	e24bd004 	sub	sp, fp, #4
80025f98:	e8bd8800 	pop	{fp, pc}

80025f9c <initlock>:
80025f9c:	e52db004 	push	{fp}		; (str fp, [sp, #-4]!)
80025fa0:	e28db000 	add	fp, sp, #0
80025fa4:	e24dd00c 	sub	sp, sp, #12
80025fa8:	e50b0008 	str	r0, [fp, #-8]
80025fac:	e50b100c 	str	r1, [fp, #-12]
80025fb0:	e51b3008 	ldr	r3, [fp, #-8]
80025fb4:	e51b200c 	ldr	r2, [fp, #-12]
80025fb8:	e5832004 	str	r2, [r3, #4]
80025fbc:	e51b3008 	ldr	r3, [fp, #-8]
80025fc0:	e3a02000 	mov	r2, #0
80025fc4:	e5832000 	str	r2, [r3]
80025fc8:	e51b3008 	ldr	r3, [fp, #-8]
80025fcc:	e3a02000 	mov	r2, #0
80025fd0:	e5832008 	str	r2, [r3, #8]
80025fd4:	e24bd000 	sub	sp, fp, #0
80025fd8:	e49db004 	pop	{fp}		; (ldr fp, [sp], #4)
80025fdc:	e12fff1e 	bx	lr

80025fe0 <acquire>:
80025fe0:	e92d4800 	push	{fp, lr}
80025fe4:	e28db004 	add	fp, sp, #4
80025fe8:	e24dd008 	sub	sp, sp, #8
80025fec:	e50b0008 	str	r0, [fp, #-8]
80025ff0:	ebffe98a 	bl	80020620 <pushcli>
80025ff4:	e51b3008 	ldr	r3, [fp, #-8]
80025ff8:	e3a02001 	mov	r2, #1
80025ffc:	e5832000 	str	r2, [r3]
80026000:	e24bd004 	sub	sp, fp, #4
80026004:	e8bd8800 	pop	{fp, pc}

80026008 <release>:
80026008:	e92d4800 	push	{fp, lr}
8002600c:	e28db004 	add	fp, sp, #4
80026010:	e24dd008 	sub	sp, sp, #8
80026014:	e50b0008 	str	r0, [fp, #-8]
80026018:	e51b3008 	ldr	r3, [fp, #-8]
8002601c:	e3a02000 	mov	r2, #0
80026020:	e5832000 	str	r2, [r3]
80026024:	ebffe992 	bl	80020674 <popcli>
80026028:	e24bd004 	sub	sp, fp, #4
8002602c:	e8bd8800 	pop	{fp, pc}

80026030 <holding>:
80026030:	e52db004 	push	{fp}		; (str fp, [sp, #-4]!)
80026034:	e28db000 	add	fp, sp, #0
80026038:	e24dd00c 	sub	sp, sp, #12
8002603c:	e50b0008 	str	r0, [fp, #-8]
80026040:	e51b3008 	ldr	r3, [fp, #-8]
80026044:	e5933000 	ldr	r3, [r3]
80026048:	e1a00003 	mov	r0, r3
8002604c:	e24bd000 	sub	sp, fp, #0
80026050:	e49db004 	pop	{fp}		; (ldr fp, [sp], #4)
80026054:	e12fff1e 	bx	lr

80026058 <swtch>:
80026058:	e92d5ff0 	push	{r4, r5, r6, r7, r8, r9, sl, fp, ip, lr}
8002605c:	e580d000 	str	sp, [r0]
80026060:	e1a0d001 	mov	sp, r1
80026064:	e8bd5ff0 	pop	{r4, r5, r6, r7, r8, r9, sl, fp, ip, lr}
80026068:	e12fff1e 	bx	lr

8002606c <fetchint>:
8002606c:	e52db004 	push	{fp}		; (str fp, [sp, #-4]!)
80026070:	e28db000 	add	fp, sp, #0
80026074:	e24dd00c 	sub	sp, sp, #12
80026078:	e50b0008 	str	r0, [fp, #-8]
8002607c:	e50b100c 	str	r1, [fp, #-12]
80026080:	e30d3608 	movw	r3, #54792	; 0xd608
80026084:	e348300a 	movt	r3, #32778	; 0x800a
80026088:	e5933000 	ldr	r3, [r3]
8002608c:	e5932000 	ldr	r2, [r3]
80026090:	e51b3008 	ldr	r3, [fp, #-8]
80026094:	e1520003 	cmp	r2, r3
80026098:	9a000007 	bls	800260bc <fetchint+0x50>
8002609c:	e51b3008 	ldr	r3, [fp, #-8]
800260a0:	e2832004 	add	r2, r3, #4
800260a4:	e30d3608 	movw	r3, #54792	; 0xd608
800260a8:	e348300a 	movt	r3, #32778	; 0x800a
800260ac:	e5933000 	ldr	r3, [r3]
800260b0:	e5933000 	ldr	r3, [r3]
800260b4:	e1520003 	cmp	r2, r3
800260b8:	9a000001 	bls	800260c4 <fetchint+0x58>
800260bc:	e3e03000 	mvn	r3, #0
800260c0:	ea000004 	b	800260d8 <fetchint+0x6c>
800260c4:	e51b3008 	ldr	r3, [fp, #-8]
800260c8:	e5932000 	ldr	r2, [r3]
800260cc:	e51b300c 	ldr	r3, [fp, #-12]
800260d0:	e5832000 	str	r2, [r3]
800260d4:	e3a03000 	mov	r3, #0
800260d8:	e1a00003 	mov	r0, r3
800260dc:	e24bd000 	sub	sp, fp, #0
800260e0:	e49db004 	pop	{fp}		; (ldr fp, [sp], #4)
800260e4:	e12fff1e 	bx	lr

800260e8 <fetchstr>:
800260e8:	e52db004 	push	{fp}		; (str fp, [sp, #-4]!)
800260ec:	e28db000 	add	fp, sp, #0
800260f0:	e24dd014 	sub	sp, sp, #20
800260f4:	e50b0010 	str	r0, [fp, #-16]
800260f8:	e50b1014 	str	r1, [fp, #-20]	; 0xffffffec
800260fc:	e30d3608 	movw	r3, #54792	; 0xd608
80026100:	e348300a 	movt	r3, #32778	; 0x800a
80026104:	e5933000 	ldr	r3, [r3]
80026108:	e5932000 	ldr	r2, [r3]
8002610c:	e51b3010 	ldr	r3, [fp, #-16]
80026110:	e1520003 	cmp	r2, r3
80026114:	8a000001 	bhi	80026120 <fetchstr+0x38>
80026118:	e3e03000 	mvn	r3, #0
8002611c:	ea00001c 	b	80026194 <fetchstr+0xac>
80026120:	e51b2010 	ldr	r2, [fp, #-16]
80026124:	e51b3014 	ldr	r3, [fp, #-20]	; 0xffffffec
80026128:	e5832000 	str	r2, [r3]
8002612c:	e30d3608 	movw	r3, #54792	; 0xd608
80026130:	e348300a 	movt	r3, #32778	; 0x800a
80026134:	e5933000 	ldr	r3, [r3]
80026138:	e5933000 	ldr	r3, [r3]
8002613c:	e50b300c 	str	r3, [fp, #-12]
80026140:	e51b3014 	ldr	r3, [fp, #-20]	; 0xffffffec
80026144:	e5933000 	ldr	r3, [r3]
80026148:	e50b3008 	str	r3, [fp, #-8]
8002614c:	ea00000b 	b	80026180 <fetchstr+0x98>
80026150:	e51b3008 	ldr	r3, [fp, #-8]
80026154:	e5d33000 	ldrb	r3, [r3]
80026158:	e3530000 	cmp	r3, #0
8002615c:	1a000004 	bne	80026174 <fetchstr+0x8c>
80026160:	e51b2008 	ldr	r2, [fp, #-8]
80026164:	e51b3014 	ldr	r3, [fp, #-20]	; 0xffffffec
80026168:	e5933000 	ldr	r3, [r3]
8002616c:	e0633002 	rsb	r3, r3, r2
80026170:	ea000007 	b	80026194 <fetchstr+0xac>
80026174:	e51b3008 	ldr	r3, [fp, #-8]
80026178:	e2833001 	add	r3, r3, #1
8002617c:	e50b3008 	str	r3, [fp, #-8]
80026180:	e51b2008 	ldr	r2, [fp, #-8]
80026184:	e51b300c 	ldr	r3, [fp, #-12]
80026188:	e1520003 	cmp	r2, r3
8002618c:	3affffef 	bcc	80026150 <fetchstr+0x68>
80026190:	e3e03000 	mvn	r3, #0
80026194:	e1a00003 	mov	r0, r3
80026198:	e24bd000 	sub	sp, fp, #0
8002619c:	e49db004 	pop	{fp}		; (ldr fp, [sp], #4)
800261a0:	e12fff1e 	bx	lr

800261a4 <argint>:
800261a4:	e92d4800 	push	{fp, lr}
800261a8:	e28db004 	add	fp, sp, #4
800261ac:	e24dd008 	sub	sp, sp, #8
800261b0:	e50b0008 	str	r0, [fp, #-8]
800261b4:	e50b100c 	str	r1, [fp, #-12]
800261b8:	e51b3008 	ldr	r3, [fp, #-8]
800261bc:	e3530003 	cmp	r3, #3
800261c0:	da000002 	ble	800261d0 <argint+0x2c>
800261c4:	e309086c 	movw	r0, #39020	; 0x986c
800261c8:	e3480002 	movt	r0, #32770	; 0x8002
800261cc:	ebffee68 	bl	80021b74 <panic>
800261d0:	e30d3608 	movw	r3, #54792	; 0xd608
800261d4:	e348300a 	movt	r3, #32778	; 0x800a
800261d8:	e5933000 	ldr	r3, [r3]
800261dc:	e5933018 	ldr	r3, [r3, #24]
800261e0:	e2832014 	add	r2, r3, #20
800261e4:	e51b3008 	ldr	r3, [fp, #-8]
800261e8:	e1a03103 	lsl	r3, r3, #2
800261ec:	e0823003 	add	r3, r2, r3
800261f0:	e5933000 	ldr	r3, [r3]
800261f4:	e1a02003 	mov	r2, r3
800261f8:	e51b300c 	ldr	r3, [fp, #-12]
800261fc:	e5832000 	str	r2, [r3]
80026200:	e3a03000 	mov	r3, #0
80026204:	e1a00003 	mov	r0, r3
80026208:	e24bd004 	sub	sp, fp, #4
8002620c:	e8bd8800 	pop	{fp, pc}

80026210 <argptr>:
80026210:	e92d4800 	push	{fp, lr}
80026214:	e28db004 	add	fp, sp, #4
80026218:	e24dd018 	sub	sp, sp, #24
8002621c:	e50b0010 	str	r0, [fp, #-16]
80026220:	e50b1014 	str	r1, [fp, #-20]	; 0xffffffec
80026224:	e50b2018 	str	r2, [fp, #-24]	; 0xffffffe8
80026228:	e24b3008 	sub	r3, fp, #8
8002622c:	e51b0010 	ldr	r0, [fp, #-16]
80026230:	e1a01003 	mov	r1, r3
80026234:	ebffffda 	bl	800261a4 <argint>
80026238:	e1a03000 	mov	r3, r0
8002623c:	e3530000 	cmp	r3, #0
80026240:	aa000001 	bge	8002624c <argptr+0x3c>
80026244:	e3e03000 	mvn	r3, #0
80026248:	ea000018 	b	800262b0 <argptr+0xa0>
8002624c:	e51b3008 	ldr	r3, [fp, #-8]
80026250:	e1a02003 	mov	r2, r3
80026254:	e30d3608 	movw	r3, #54792	; 0xd608
80026258:	e348300a 	movt	r3, #32778	; 0x800a
8002625c:	e5933000 	ldr	r3, [r3]
80026260:	e5933000 	ldr	r3, [r3]
80026264:	e1520003 	cmp	r2, r3
80026268:	2a000009 	bcs	80026294 <argptr+0x84>
8002626c:	e51b3008 	ldr	r3, [fp, #-8]
80026270:	e1a02003 	mov	r2, r3
80026274:	e51b3018 	ldr	r3, [fp, #-24]	; 0xffffffe8
80026278:	e0822003 	add	r2, r2, r3
8002627c:	e30d3608 	movw	r3, #54792	; 0xd608
80026280:	e348300a 	movt	r3, #32778	; 0x800a
80026284:	e5933000 	ldr	r3, [r3]
80026288:	e5933000 	ldr	r3, [r3]
8002628c:	e1520003 	cmp	r2, r3
80026290:	9a000001 	bls	8002629c <argptr+0x8c>
80026294:	e3e03000 	mvn	r3, #0
80026298:	ea000004 	b	800262b0 <argptr+0xa0>
8002629c:	e51b3008 	ldr	r3, [fp, #-8]
800262a0:	e1a02003 	mov	r2, r3
800262a4:	e51b3014 	ldr	r3, [fp, #-20]	; 0xffffffec
800262a8:	e5832000 	str	r2, [r3]
800262ac:	e3a03000 	mov	r3, #0
800262b0:	e1a00003 	mov	r0, r3
800262b4:	e24bd004 	sub	sp, fp, #4
800262b8:	e8bd8800 	pop	{fp, pc}

800262bc <argstr>:
800262bc:	e92d4800 	push	{fp, lr}
800262c0:	e28db004 	add	fp, sp, #4
800262c4:	e24dd010 	sub	sp, sp, #16
800262c8:	e50b0010 	str	r0, [fp, #-16]
800262cc:	e50b1014 	str	r1, [fp, #-20]	; 0xffffffec
800262d0:	e24b3008 	sub	r3, fp, #8
800262d4:	e51b0010 	ldr	r0, [fp, #-16]
800262d8:	e1a01003 	mov	r1, r3
800262dc:	ebffffb0 	bl	800261a4 <argint>
800262e0:	e1a03000 	mov	r3, r0
800262e4:	e3530000 	cmp	r3, #0
800262e8:	aa000001 	bge	800262f4 <argstr+0x38>
800262ec:	e3e03000 	mvn	r3, #0
800262f0:	ea000004 	b	80026308 <argstr+0x4c>
800262f4:	e51b3008 	ldr	r3, [fp, #-8]
800262f8:	e1a00003 	mov	r0, r3
800262fc:	e51b1014 	ldr	r1, [fp, #-20]	; 0xffffffec
80026300:	ebffff78 	bl	800260e8 <fetchstr>
80026304:	e1a03000 	mov	r3, r0
80026308:	e1a00003 	mov	r0, r3
8002630c:	e24bd004 	sub	sp, fp, #4
80026310:	e8bd8800 	pop	{fp, pc}

80026314 <syscall>:
80026314:	e92d4800 	push	{fp, lr}
80026318:	e28db004 	add	fp, sp, #4
8002631c:	e24dd008 	sub	sp, sp, #8
80026320:	e30d3608 	movw	r3, #54792	; 0xd608
80026324:	e348300a 	movt	r3, #32778	; 0x800a
80026328:	e5933000 	ldr	r3, [r3]
8002632c:	e5933018 	ldr	r3, [r3, #24]
80026330:	e5933010 	ldr	r3, [r3, #16]
80026334:	e50b3008 	str	r3, [fp, #-8]
80026338:	e51b3008 	ldr	r3, [fp, #-8]
8002633c:	e3530000 	cmp	r3, #0
80026340:	da000019 	ble	800263ac <syscall+0x98>
80026344:	e51b3008 	ldr	r3, [fp, #-8]
80026348:	e3530016 	cmp	r3, #22
8002634c:	8a000016 	bhi	800263ac <syscall+0x98>
80026350:	e30a3034 	movw	r3, #41012	; 0xa034
80026354:	e3483002 	movt	r3, #32770	; 0x8002
80026358:	e51b2008 	ldr	r2, [fp, #-8]
8002635c:	e7933102 	ldr	r3, [r3, r2, lsl #2]
80026360:	e3530000 	cmp	r3, #0
80026364:	0a000010 	beq	800263ac <syscall+0x98>
80026368:	e30a3034 	movw	r3, #41012	; 0xa034
8002636c:	e3483002 	movt	r3, #32770	; 0x8002
80026370:	e51b2008 	ldr	r2, [fp, #-8]
80026374:	e7933102 	ldr	r3, [r3, r2, lsl #2]
80026378:	e12fff33 	blx	r3
8002637c:	e50b000c 	str	r0, [fp, #-12]
80026380:	e51b3008 	ldr	r3, [fp, #-8]
80026384:	e3530007 	cmp	r3, #7
80026388:	0a000006 	beq	800263a8 <syscall+0x94>
8002638c:	e30d3608 	movw	r3, #54792	; 0xd608
80026390:	e348300a 	movt	r3, #32778	; 0x800a
80026394:	e5933000 	ldr	r3, [r3]
80026398:	e5933018 	ldr	r3, [r3, #24]
8002639c:	e51b200c 	ldr	r2, [fp, #-12]
800263a0:	e5832010 	str	r2, [r3, #16]
800263a4:	ea000014 	b	800263fc <syscall+0xe8>
800263a8:	ea000013 	b	800263fc <syscall+0xe8>
800263ac:	e30d3608 	movw	r3, #54792	; 0xd608
800263b0:	e348300a 	movt	r3, #32778	; 0x800a
800263b4:	e5933000 	ldr	r3, [r3]
800263b8:	e5932010 	ldr	r2, [r3, #16]
800263bc:	e30d3608 	movw	r3, #54792	; 0xd608
800263c0:	e348300a 	movt	r3, #32778	; 0x800a
800263c4:	e5933000 	ldr	r3, [r3]
800263c8:	e283306c 	add	r3, r3, #108	; 0x6c
800263cc:	e3090890 	movw	r0, #39056	; 0x9890
800263d0:	e3480002 	movt	r0, #32770	; 0x8002
800263d4:	e1a01002 	mov	r1, r2
800263d8:	e1a02003 	mov	r2, r3
800263dc:	e51b3008 	ldr	r3, [fp, #-8]
800263e0:	ebffed61 	bl	8002196c <cprintf>
800263e4:	e30d3608 	movw	r3, #54792	; 0xd608
800263e8:	e348300a 	movt	r3, #32778	; 0x800a
800263ec:	e5933000 	ldr	r3, [r3]
800263f0:	e5933018 	ldr	r3, [r3, #24]
800263f4:	e3e02000 	mvn	r2, #0
800263f8:	e5832010 	str	r2, [r3, #16]
800263fc:	e24bd004 	sub	sp, fp, #4
80026400:	e8bd8800 	pop	{fp, pc}

80026404 <argfd>:
80026404:	e92d4800 	push	{fp, lr}
80026408:	e28db004 	add	fp, sp, #4
8002640c:	e24dd018 	sub	sp, sp, #24
80026410:	e50b0010 	str	r0, [fp, #-16]
80026414:	e50b1014 	str	r1, [fp, #-20]	; 0xffffffec
80026418:	e50b2018 	str	r2, [fp, #-24]	; 0xffffffe8
8002641c:	e24b300c 	sub	r3, fp, #12
80026420:	e51b0010 	ldr	r0, [fp, #-16]
80026424:	e1a01003 	mov	r1, r3
80026428:	ebffff5d 	bl	800261a4 <argint>
8002642c:	e1a03000 	mov	r3, r0
80026430:	e3530000 	cmp	r3, #0
80026434:	aa000001 	bge	80026440 <argfd+0x3c>
80026438:	e3e03000 	mvn	r3, #0
8002643c:	ea00001e 	b	800264bc <argfd+0xb8>
80026440:	e51b300c 	ldr	r3, [fp, #-12]
80026444:	e3530000 	cmp	r3, #0
80026448:	ba00000c 	blt	80026480 <argfd+0x7c>
8002644c:	e51b300c 	ldr	r3, [fp, #-12]
80026450:	e353000f 	cmp	r3, #15
80026454:	ca000009 	bgt	80026480 <argfd+0x7c>
80026458:	e30d3608 	movw	r3, #54792	; 0xd608
8002645c:	e348300a 	movt	r3, #32778	; 0x800a
80026460:	e5933000 	ldr	r3, [r3]
80026464:	e51b200c 	ldr	r2, [fp, #-12]
80026468:	e282200a 	add	r2, r2, #10
8002646c:	e7933102 	ldr	r3, [r3, r2, lsl #2]
80026470:	e50b3008 	str	r3, [fp, #-8]
80026474:	e51b3008 	ldr	r3, [fp, #-8]
80026478:	e3530000 	cmp	r3, #0
8002647c:	1a000001 	bne	80026488 <argfd+0x84>
80026480:	e3e03000 	mvn	r3, #0
80026484:	ea00000c 	b	800264bc <argfd+0xb8>
80026488:	e51b3014 	ldr	r3, [fp, #-20]	; 0xffffffec
8002648c:	e3530000 	cmp	r3, #0
80026490:	0a000002 	beq	800264a0 <argfd+0x9c>
80026494:	e51b200c 	ldr	r2, [fp, #-12]
80026498:	e51b3014 	ldr	r3, [fp, #-20]	; 0xffffffec
8002649c:	e5832000 	str	r2, [r3]
800264a0:	e51b3018 	ldr	r3, [fp, #-24]	; 0xffffffe8
800264a4:	e3530000 	cmp	r3, #0
800264a8:	0a000002 	beq	800264b8 <argfd+0xb4>
800264ac:	e51b3018 	ldr	r3, [fp, #-24]	; 0xffffffe8
800264b0:	e51b2008 	ldr	r2, [fp, #-8]
800264b4:	e5832000 	str	r2, [r3]
800264b8:	e3a03000 	mov	r3, #0
800264bc:	e1a00003 	mov	r0, r3
800264c0:	e24bd004 	sub	sp, fp, #4
800264c4:	e8bd8800 	pop	{fp, pc}

800264c8 <fdalloc>:
800264c8:	e52db004 	push	{fp}		; (str fp, [sp, #-4]!)
800264cc:	e28db000 	add	fp, sp, #0
800264d0:	e24dd014 	sub	sp, sp, #20
800264d4:	e50b0010 	str	r0, [fp, #-16]
800264d8:	e3a03000 	mov	r3, #0
800264dc:	e50b3008 	str	r3, [fp, #-8]
800264e0:	ea000013 	b	80026534 <fdalloc+0x6c>
800264e4:	e30d3608 	movw	r3, #54792	; 0xd608
800264e8:	e348300a 	movt	r3, #32778	; 0x800a
800264ec:	e5933000 	ldr	r3, [r3]
800264f0:	e51b2008 	ldr	r2, [fp, #-8]
800264f4:	e282200a 	add	r2, r2, #10
800264f8:	e7933102 	ldr	r3, [r3, r2, lsl #2]
800264fc:	e3530000 	cmp	r3, #0
80026500:	1a000008 	bne	80026528 <fdalloc+0x60>
80026504:	e30d3608 	movw	r3, #54792	; 0xd608
80026508:	e348300a 	movt	r3, #32778	; 0x800a
8002650c:	e5933000 	ldr	r3, [r3]
80026510:	e51b2008 	ldr	r2, [fp, #-8]
80026514:	e282200a 	add	r2, r2, #10
80026518:	e51b1010 	ldr	r1, [fp, #-16]
8002651c:	e7831102 	str	r1, [r3, r2, lsl #2]
80026520:	e51b3008 	ldr	r3, [fp, #-8]
80026524:	ea000006 	b	80026544 <fdalloc+0x7c>
80026528:	e51b3008 	ldr	r3, [fp, #-8]
8002652c:	e2833001 	add	r3, r3, #1
80026530:	e50b3008 	str	r3, [fp, #-8]
80026534:	e51b3008 	ldr	r3, [fp, #-8]
80026538:	e353000f 	cmp	r3, #15
8002653c:	daffffe8 	ble	800264e4 <fdalloc+0x1c>
80026540:	e3e03000 	mvn	r3, #0
80026544:	e1a00003 	mov	r0, r3
80026548:	e24bd000 	sub	sp, fp, #0
8002654c:	e49db004 	pop	{fp}		; (ldr fp, [sp], #4)
80026550:	e12fff1e 	bx	lr

80026554 <sys_dup>:
80026554:	e92d4800 	push	{fp, lr}
80026558:	e28db004 	add	fp, sp, #4
8002655c:	e24dd008 	sub	sp, sp, #8
80026560:	e24b300c 	sub	r3, fp, #12
80026564:	e3a00000 	mov	r0, #0
80026568:	e3a01000 	mov	r1, #0
8002656c:	e1a02003 	mov	r2, r3
80026570:	ebffffa3 	bl	80026404 <argfd>
80026574:	e1a03000 	mov	r3, r0
80026578:	e3530000 	cmp	r3, #0
8002657c:	aa000001 	bge	80026588 <sys_dup+0x34>
80026580:	e3e03000 	mvn	r3, #0
80026584:	ea00000c 	b	800265bc <sys_dup+0x68>
80026588:	e51b300c 	ldr	r3, [fp, #-12]
8002658c:	e1a00003 	mov	r0, r3
80026590:	ebffffcc 	bl	800264c8 <fdalloc>
80026594:	e50b0008 	str	r0, [fp, #-8]
80026598:	e51b3008 	ldr	r3, [fp, #-8]
8002659c:	e3530000 	cmp	r3, #0
800265a0:	aa000001 	bge	800265ac <sys_dup+0x58>
800265a4:	e3e03000 	mvn	r3, #0
800265a8:	ea000003 	b	800265bc <sys_dup+0x68>
800265ac:	e51b300c 	ldr	r3, [fp, #-12]
800265b0:	e1a00003 	mov	r0, r3
800265b4:	ebfff040 	bl	800226bc <filedup>
800265b8:	e51b3008 	ldr	r3, [fp, #-8]
800265bc:	e1a00003 	mov	r0, r3
800265c0:	e24bd004 	sub	sp, fp, #4
800265c4:	e8bd8800 	pop	{fp, pc}

800265c8 <sys_read>:
800265c8:	e92d4800 	push	{fp, lr}
800265cc:	e28db004 	add	fp, sp, #4
800265d0:	e24dd010 	sub	sp, sp, #16
800265d4:	e24b3008 	sub	r3, fp, #8
800265d8:	e3a00000 	mov	r0, #0
800265dc:	e3a01000 	mov	r1, #0
800265e0:	e1a02003 	mov	r2, r3
800265e4:	ebffff86 	bl	80026404 <argfd>
800265e8:	e1a03000 	mov	r3, r0
800265ec:	e3530000 	cmp	r3, #0
800265f0:	ba00000f 	blt	80026634 <sys_read+0x6c>
800265f4:	e24b300c 	sub	r3, fp, #12
800265f8:	e3a00002 	mov	r0, #2
800265fc:	e1a01003 	mov	r1, r3
80026600:	ebfffee7 	bl	800261a4 <argint>
80026604:	e1a03000 	mov	r3, r0
80026608:	e3530000 	cmp	r3, #0
8002660c:	ba000008 	blt	80026634 <sys_read+0x6c>
80026610:	e51b300c 	ldr	r3, [fp, #-12]
80026614:	e24b2010 	sub	r2, fp, #16
80026618:	e3a00001 	mov	r0, #1
8002661c:	e1a01002 	mov	r1, r2
80026620:	e1a02003 	mov	r2, r3
80026624:	ebfffef9 	bl	80026210 <argptr>
80026628:	e1a03000 	mov	r3, r0
8002662c:	e3530000 	cmp	r3, #0
80026630:	aa000001 	bge	8002663c <sys_read+0x74>
80026634:	e3e03000 	mvn	r3, #0
80026638:	ea000007 	b	8002665c <sys_read+0x94>
8002663c:	e51b1008 	ldr	r1, [fp, #-8]
80026640:	e51b2010 	ldr	r2, [fp, #-16]
80026644:	e51b300c 	ldr	r3, [fp, #-12]
80026648:	e1a00001 	mov	r0, r1
8002664c:	e1a01002 	mov	r1, r2
80026650:	e1a02003 	mov	r2, r3
80026654:	ebfff08c 	bl	8002288c <fileread>
80026658:	e1a03000 	mov	r3, r0
8002665c:	e1a00003 	mov	r0, r3
80026660:	e24bd004 	sub	sp, fp, #4
80026664:	e8bd8800 	pop	{fp, pc}

80026668 <sys_write>:
80026668:	e92d4800 	push	{fp, lr}
8002666c:	e28db004 	add	fp, sp, #4
80026670:	e24dd010 	sub	sp, sp, #16
80026674:	e24b3008 	sub	r3, fp, #8
80026678:	e3a00000 	mov	r0, #0
8002667c:	e3a01000 	mov	r1, #0
80026680:	e1a02003 	mov	r2, r3
80026684:	ebffff5e 	bl	80026404 <argfd>
80026688:	e1a03000 	mov	r3, r0
8002668c:	e3530000 	cmp	r3, #0
80026690:	ba00000f 	blt	800266d4 <sys_write+0x6c>
80026694:	e24b300c 	sub	r3, fp, #12
80026698:	e3a00002 	mov	r0, #2
8002669c:	e1a01003 	mov	r1, r3
800266a0:	ebfffebf 	bl	800261a4 <argint>
800266a4:	e1a03000 	mov	r3, r0
800266a8:	e3530000 	cmp	r3, #0
800266ac:	ba000008 	blt	800266d4 <sys_write+0x6c>
800266b0:	e51b300c 	ldr	r3, [fp, #-12]
800266b4:	e24b2010 	sub	r2, fp, #16
800266b8:	e3a00001 	mov	r0, #1
800266bc:	e1a01002 	mov	r1, r2
800266c0:	e1a02003 	mov	r2, r3
800266c4:	ebfffed1 	bl	80026210 <argptr>
800266c8:	e1a03000 	mov	r3, r0
800266cc:	e3530000 	cmp	r3, #0
800266d0:	aa000001 	bge	800266dc <sys_write+0x74>
800266d4:	e3e03000 	mvn	r3, #0
800266d8:	ea000007 	b	800266fc <sys_write+0x94>
800266dc:	e51b1008 	ldr	r1, [fp, #-8]
800266e0:	e51b2010 	ldr	r2, [fp, #-16]
800266e4:	e51b300c 	ldr	r3, [fp, #-12]
800266e8:	e1a00001 	mov	r0, r1
800266ec:	e1a01002 	mov	r1, r2
800266f0:	e1a02003 	mov	r2, r3
800266f4:	ebfff0a2 	bl	80022984 <filewrite>
800266f8:	e1a03000 	mov	r3, r0
800266fc:	e1a00003 	mov	r0, r3
80026700:	e24bd004 	sub	sp, fp, #4
80026704:	e8bd8800 	pop	{fp, pc}

80026708 <sys_close>:
80026708:	e92d4800 	push	{fp, lr}
8002670c:	e28db004 	add	fp, sp, #4
80026710:	e24dd008 	sub	sp, sp, #8
80026714:	e24b2008 	sub	r2, fp, #8
80026718:	e24b300c 	sub	r3, fp, #12
8002671c:	e3a00000 	mov	r0, #0
80026720:	e1a01002 	mov	r1, r2
80026724:	e1a02003 	mov	r2, r3
80026728:	ebffff35 	bl	80026404 <argfd>
8002672c:	e1a03000 	mov	r3, r0
80026730:	e3530000 	cmp	r3, #0
80026734:	aa000001 	bge	80026740 <sys_close+0x38>
80026738:	e3e03000 	mvn	r3, #0
8002673c:	ea00000a 	b	8002676c <sys_close+0x64>
80026740:	e30d3608 	movw	r3, #54792	; 0xd608
80026744:	e348300a 	movt	r3, #32778	; 0x800a
80026748:	e5933000 	ldr	r3, [r3]
8002674c:	e51b2008 	ldr	r2, [fp, #-8]
80026750:	e282200a 	add	r2, r2, #10
80026754:	e3a01000 	mov	r1, #0
80026758:	e7831102 	str	r1, [r3, r2, lsl #2]
8002675c:	e51b300c 	ldr	r3, [fp, #-12]
80026760:	e1a00003 	mov	r0, r3
80026764:	ebffefee 	bl	80022724 <fileclose>
80026768:	e3a03000 	mov	r3, #0
8002676c:	e1a00003 	mov	r0, r3
80026770:	e24bd004 	sub	sp, fp, #4
80026774:	e8bd8800 	pop	{fp, pc}

80026778 <sys_fstat>:
80026778:	e92d4800 	push	{fp, lr}
8002677c:	e28db004 	add	fp, sp, #4
80026780:	e24dd008 	sub	sp, sp, #8
80026784:	e24b3008 	sub	r3, fp, #8
80026788:	e3a00000 	mov	r0, #0
8002678c:	e3a01000 	mov	r1, #0
80026790:	e1a02003 	mov	r2, r3
80026794:	ebffff1a 	bl	80026404 <argfd>
80026798:	e1a03000 	mov	r3, r0
8002679c:	e3530000 	cmp	r3, #0
800267a0:	ba000007 	blt	800267c4 <sys_fstat+0x4c>
800267a4:	e24b300c 	sub	r3, fp, #12
800267a8:	e3a00001 	mov	r0, #1
800267ac:	e1a01003 	mov	r1, r3
800267b0:	e3a02014 	mov	r2, #20
800267b4:	ebfffe95 	bl	80026210 <argptr>
800267b8:	e1a03000 	mov	r3, r0
800267bc:	e3530000 	cmp	r3, #0
800267c0:	aa000001 	bge	800267cc <sys_fstat+0x54>
800267c4:	e3e03000 	mvn	r3, #0
800267c8:	ea000005 	b	800267e4 <sys_fstat+0x6c>
800267cc:	e51b2008 	ldr	r2, [fp, #-8]
800267d0:	e51b300c 	ldr	r3, [fp, #-12]
800267d4:	e1a00002 	mov	r0, r2
800267d8:	e1a01003 	mov	r1, r3
800267dc:	ebfff00e 	bl	8002281c <filestat>
800267e0:	e1a03000 	mov	r3, r0
800267e4:	e1a00003 	mov	r0, r3
800267e8:	e24bd004 	sub	sp, fp, #4
800267ec:	e8bd8800 	pop	{fp, pc}

800267f0 <sys_link>:
800267f0:	e92d4800 	push	{fp, lr}
800267f4:	e28db004 	add	fp, sp, #4
800267f8:	e24dd020 	sub	sp, sp, #32
800267fc:	e24b3024 	sub	r3, fp, #36	; 0x24
80026800:	e3a00000 	mov	r0, #0
80026804:	e1a01003 	mov	r1, r3
80026808:	ebfffeab 	bl	800262bc <argstr>
8002680c:	e1a03000 	mov	r3, r0
80026810:	e3530000 	cmp	r3, #0
80026814:	ba000006 	blt	80026834 <sys_link+0x44>
80026818:	e24b3020 	sub	r3, fp, #32
8002681c:	e3a00001 	mov	r0, #1
80026820:	e1a01003 	mov	r1, r3
80026824:	ebfffea4 	bl	800262bc <argstr>
80026828:	e1a03000 	mov	r3, r0
8002682c:	e3530000 	cmp	r3, #0
80026830:	aa000001 	bge	8002683c <sys_link+0x4c>
80026834:	e3e03000 	mvn	r3, #0
80026838:	ea000055 	b	80026994 <sys_link+0x1a4>
8002683c:	e51b3024 	ldr	r3, [fp, #-36]	; 0xffffffdc
80026840:	e1a00003 	mov	r0, r3
80026844:	ebfff67e 	bl	80024244 <namei>
80026848:	e50b0008 	str	r0, [fp, #-8]
8002684c:	e51b3008 	ldr	r3, [fp, #-8]
80026850:	e3530000 	cmp	r3, #0
80026854:	1a000001 	bne	80026860 <sys_link+0x70>
80026858:	e3e03000 	mvn	r3, #0
8002685c:	ea00004c 	b	80026994 <sys_link+0x1a4>
80026860:	ebfff766 	bl	80024600 <begin_trans>
80026864:	e51b0008 	ldr	r0, [fp, #-8]
80026868:	ebfff287 	bl	8002328c <ilock>
8002686c:	e51b3008 	ldr	r3, [fp, #-8]
80026870:	e1d331b0 	ldrh	r3, [r3, #16]
80026874:	e6bf3073 	sxth	r3, r3
80026878:	e3530001 	cmp	r3, #1
8002687c:	1a000004 	bne	80026894 <sys_link+0xa4>
80026880:	e51b0008 	ldr	r0, [fp, #-8]
80026884:	ebfff345 	bl	800235a0 <iunlockput>
80026888:	ebfff774 	bl	80024660 <commit_trans>
8002688c:	e3e03000 	mvn	r3, #0
80026890:	ea00003f 	b	80026994 <sys_link+0x1a4>
80026894:	e51b3008 	ldr	r3, [fp, #-8]
80026898:	e1d331b6 	ldrh	r3, [r3, #22]
8002689c:	e6ff3073 	uxth	r3, r3
800268a0:	e2833001 	add	r3, r3, #1
800268a4:	e6ff2073 	uxth	r2, r3
800268a8:	e51b3008 	ldr	r3, [fp, #-8]
800268ac:	e1c321b6 	strh	r2, [r3, #22]
800268b0:	e51b0008 	ldr	r0, [fp, #-8]
800268b4:	ebfff1d7 	bl	80023018 <iupdate>
800268b8:	e51b0008 	ldr	r0, [fp, #-8]
800268bc:	ebfff2d8 	bl	80023424 <iunlock>
800268c0:	e51b2020 	ldr	r2, [fp, #-32]	; 0xffffffe0
800268c4:	e24b301c 	sub	r3, fp, #28
800268c8:	e1a00002 	mov	r0, r2
800268cc:	e1a01003 	mov	r1, r3
800268d0:	ebfff668 	bl	80024278 <nameiparent>
800268d4:	e50b000c 	str	r0, [fp, #-12]
800268d8:	e51b300c 	ldr	r3, [fp, #-12]
800268dc:	e3530000 	cmp	r3, #0
800268e0:	1a000000 	bne	800268e8 <sys_link+0xf8>
800268e4:	ea00001b 	b	80026958 <sys_link+0x168>
800268e8:	e51b000c 	ldr	r0, [fp, #-12]
800268ec:	ebfff266 	bl	8002328c <ilock>
800268f0:	e51b300c 	ldr	r3, [fp, #-12]
800268f4:	e5932000 	ldr	r2, [r3]
800268f8:	e51b3008 	ldr	r3, [fp, #-8]
800268fc:	e5933000 	ldr	r3, [r3]
80026900:	e1520003 	cmp	r2, r3
80026904:	1a000009 	bne	80026930 <sys_link+0x140>
80026908:	e51b3008 	ldr	r3, [fp, #-8]
8002690c:	e5933004 	ldr	r3, [r3, #4]
80026910:	e24b201c 	sub	r2, fp, #28
80026914:	e51b000c 	ldr	r0, [fp, #-12]
80026918:	e1a01002 	mov	r1, r2
8002691c:	e1a02003 	mov	r2, r3
80026920:	ebfff56d 	bl	80023edc <dirlink>
80026924:	e1a03000 	mov	r3, r0
80026928:	e3530000 	cmp	r3, #0
8002692c:	aa000002 	bge	8002693c <sys_link+0x14c>
80026930:	e51b000c 	ldr	r0, [fp, #-12]
80026934:	ebfff319 	bl	800235a0 <iunlockput>
80026938:	ea000006 	b	80026958 <sys_link+0x168>
8002693c:	e51b000c 	ldr	r0, [fp, #-12]
80026940:	ebfff316 	bl	800235a0 <iunlockput>
80026944:	e51b0008 	ldr	r0, [fp, #-8]
80026948:	ebfff2d7 	bl	800234ac <iput>
8002694c:	ebfff743 	bl	80024660 <commit_trans>
80026950:	e3a03000 	mov	r3, #0
80026954:	ea00000e 	b	80026994 <sys_link+0x1a4>
80026958:	e51b0008 	ldr	r0, [fp, #-8]
8002695c:	ebfff24a 	bl	8002328c <ilock>
80026960:	e51b3008 	ldr	r3, [fp, #-8]
80026964:	e1d331b6 	ldrh	r3, [r3, #22]
80026968:	e6ff3073 	uxth	r3, r3
8002696c:	e2433001 	sub	r3, r3, #1
80026970:	e6ff2073 	uxth	r2, r3
80026974:	e51b3008 	ldr	r3, [fp, #-8]
80026978:	e1c321b6 	strh	r2, [r3, #22]
8002697c:	e51b0008 	ldr	r0, [fp, #-8]
80026980:	ebfff1a4 	bl	80023018 <iupdate>
80026984:	e51b0008 	ldr	r0, [fp, #-8]
80026988:	ebfff304 	bl	800235a0 <iunlockput>
8002698c:	ebfff733 	bl	80024660 <commit_trans>
80026990:	e3e03000 	mvn	r3, #0
80026994:	e1a00003 	mov	r0, r3
80026998:	e24bd004 	sub	sp, fp, #4
8002699c:	e8bd8800 	pop	{fp, pc}

800269a0 <isdirempty>:
800269a0:	e92d4800 	push	{fp, lr}
800269a4:	e28db004 	add	fp, sp, #4
800269a8:	e24dd020 	sub	sp, sp, #32
800269ac:	e50b0020 	str	r0, [fp, #-32]	; 0xffffffe0
800269b0:	e3a03020 	mov	r3, #32
800269b4:	e50b3008 	str	r3, [fp, #-8]
800269b8:	ea000014 	b	80026a10 <isdirempty+0x70>
800269bc:	e51b3008 	ldr	r3, [fp, #-8]
800269c0:	e24b2018 	sub	r2, fp, #24
800269c4:	e51b0020 	ldr	r0, [fp, #-32]	; 0xffffffe0
800269c8:	e1a01002 	mov	r1, r2
800269cc:	e1a02003 	mov	r2, r3
800269d0:	e3a03010 	mov	r3, #16
800269d4:	ebfff3e5 	bl	80023970 <readi>
800269d8:	e1a03000 	mov	r3, r0
800269dc:	e3530010 	cmp	r3, #16
800269e0:	0a000002 	beq	800269f0 <isdirempty+0x50>
800269e4:	e30908ac 	movw	r0, #39084	; 0x98ac
800269e8:	e3480002 	movt	r0, #32770	; 0x8002
800269ec:	ebffec60 	bl	80021b74 <panic>
800269f0:	e15b31b8 	ldrh	r3, [fp, #-24]	; 0xffffffe8
800269f4:	e3530000 	cmp	r3, #0
800269f8:	0a000001 	beq	80026a04 <isdirempty+0x64>
800269fc:	e3a03000 	mov	r3, #0
80026a00:	ea000008 	b	80026a28 <isdirempty+0x88>
80026a04:	e51b3008 	ldr	r3, [fp, #-8]
80026a08:	e2833010 	add	r3, r3, #16
80026a0c:	e50b3008 	str	r3, [fp, #-8]
80026a10:	e51b2008 	ldr	r2, [fp, #-8]
80026a14:	e51b3020 	ldr	r3, [fp, #-32]	; 0xffffffe0
80026a18:	e5933018 	ldr	r3, [r3, #24]
80026a1c:	e1520003 	cmp	r2, r3
80026a20:	3affffe5 	bcc	800269bc <isdirempty+0x1c>
80026a24:	e3a03001 	mov	r3, #1
80026a28:	e1a00003 	mov	r0, r3
80026a2c:	e24bd004 	sub	sp, fp, #4
80026a30:	e8bd8800 	pop	{fp, pc}

80026a34 <sys_unlink>:
80026a34:	e92d4800 	push	{fp, lr}
80026a38:	e28db004 	add	fp, sp, #4
80026a3c:	e24dd030 	sub	sp, sp, #48	; 0x30
80026a40:	e24b3030 	sub	r3, fp, #48	; 0x30
80026a44:	e3a00000 	mov	r0, #0
80026a48:	e1a01003 	mov	r1, r3
80026a4c:	ebfffe1a 	bl	800262bc <argstr>
80026a50:	e1a03000 	mov	r3, r0
80026a54:	e3530000 	cmp	r3, #0
80026a58:	aa000001 	bge	80026a64 <sys_unlink+0x30>
80026a5c:	e3e03000 	mvn	r3, #0
80026a60:	ea000073 	b	80026c34 <sys_unlink+0x200>
80026a64:	e51b2030 	ldr	r2, [fp, #-48]	; 0xffffffd0
80026a68:	e24b302c 	sub	r3, fp, #44	; 0x2c
80026a6c:	e1a00002 	mov	r0, r2
80026a70:	e1a01003 	mov	r1, r3
80026a74:	ebfff5ff 	bl	80024278 <nameiparent>
80026a78:	e50b0008 	str	r0, [fp, #-8]
80026a7c:	e51b3008 	ldr	r3, [fp, #-8]
80026a80:	e3530000 	cmp	r3, #0
80026a84:	1a000001 	bne	80026a90 <sys_unlink+0x5c>
80026a88:	e3e03000 	mvn	r3, #0
80026a8c:	ea000068 	b	80026c34 <sys_unlink+0x200>
80026a90:	ebfff6da 	bl	80024600 <begin_trans>
80026a94:	e51b0008 	ldr	r0, [fp, #-8]
80026a98:	ebfff1fb 	bl	8002328c <ilock>
80026a9c:	e24b302c 	sub	r3, fp, #44	; 0x2c
80026aa0:	e1a00003 	mov	r0, r3
80026aa4:	e30918c0 	movw	r1, #39104	; 0x98c0
80026aa8:	e3481002 	movt	r1, #32770	; 0x8002
80026aac:	ebfff4b9 	bl	80023d98 <namecmp>
80026ab0:	e1a03000 	mov	r3, r0
80026ab4:	e3530000 	cmp	r3, #0
80026ab8:	0a000059 	beq	80026c24 <sys_unlink+0x1f0>
80026abc:	e24b302c 	sub	r3, fp, #44	; 0x2c
80026ac0:	e1a00003 	mov	r0, r3
80026ac4:	e30918c4 	movw	r1, #39108	; 0x98c4
80026ac8:	e3481002 	movt	r1, #32770	; 0x8002
80026acc:	ebfff4b1 	bl	80023d98 <namecmp>
80026ad0:	e1a03000 	mov	r3, r0
80026ad4:	e3530000 	cmp	r3, #0
80026ad8:	0a000051 	beq	80026c24 <sys_unlink+0x1f0>
80026adc:	e24b202c 	sub	r2, fp, #44	; 0x2c
80026ae0:	e24b3034 	sub	r3, fp, #52	; 0x34
80026ae4:	e51b0008 	ldr	r0, [fp, #-8]
80026ae8:	e1a01002 	mov	r1, r2
80026aec:	e1a02003 	mov	r2, r3
80026af0:	ebfff4b5 	bl	80023dcc <dirlookup>
80026af4:	e50b000c 	str	r0, [fp, #-12]
80026af8:	e51b300c 	ldr	r3, [fp, #-12]
80026afc:	e3530000 	cmp	r3, #0
80026b00:	1a000000 	bne	80026b08 <sys_unlink+0xd4>
80026b04:	ea000046 	b	80026c24 <sys_unlink+0x1f0>
80026b08:	e51b000c 	ldr	r0, [fp, #-12]
80026b0c:	ebfff1de 	bl	8002328c <ilock>
80026b10:	e51b300c 	ldr	r3, [fp, #-12]
80026b14:	e1d331b6 	ldrh	r3, [r3, #22]
80026b18:	e6bf3073 	sxth	r3, r3
80026b1c:	e3530000 	cmp	r3, #0
80026b20:	ca000002 	bgt	80026b30 <sys_unlink+0xfc>
80026b24:	e30908c8 	movw	r0, #39112	; 0x98c8
80026b28:	e3480002 	movt	r0, #32770	; 0x8002
80026b2c:	ebffec10 	bl	80021b74 <panic>
80026b30:	e51b300c 	ldr	r3, [fp, #-12]
80026b34:	e1d331b0 	ldrh	r3, [r3, #16]
80026b38:	e6bf3073 	sxth	r3, r3
80026b3c:	e3530001 	cmp	r3, #1
80026b40:	1a000007 	bne	80026b64 <sys_unlink+0x130>
80026b44:	e51b000c 	ldr	r0, [fp, #-12]
80026b48:	ebffff94 	bl	800269a0 <isdirempty>
80026b4c:	e1a03000 	mov	r3, r0
80026b50:	e3530000 	cmp	r3, #0
80026b54:	1a000002 	bne	80026b64 <sys_unlink+0x130>
80026b58:	e51b000c 	ldr	r0, [fp, #-12]
80026b5c:	ebfff28f 	bl	800235a0 <iunlockput>
80026b60:	ea00002f 	b	80026c24 <sys_unlink+0x1f0>
80026b64:	e24b301c 	sub	r3, fp, #28
80026b68:	e1a00003 	mov	r0, r3
80026b6c:	e3a01000 	mov	r1, #0
80026b70:	e3a02010 	mov	r2, #16
80026b74:	ebffe521 	bl	80020000 <memset>
80026b78:	e51b3034 	ldr	r3, [fp, #-52]	; 0xffffffcc
80026b7c:	e24b201c 	sub	r2, fp, #28
80026b80:	e51b0008 	ldr	r0, [fp, #-8]
80026b84:	e1a01002 	mov	r1, r2
80026b88:	e1a02003 	mov	r2, r3
80026b8c:	e3a03010 	mov	r3, #16
80026b90:	ebfff3f2 	bl	80023b60 <writei>
80026b94:	e1a03000 	mov	r3, r0
80026b98:	e3530010 	cmp	r3, #16
80026b9c:	0a000002 	beq	80026bac <sys_unlink+0x178>
80026ba0:	e30908dc 	movw	r0, #39132	; 0x98dc
80026ba4:	e3480002 	movt	r0, #32770	; 0x8002
80026ba8:	ebffebf1 	bl	80021b74 <panic>
80026bac:	e51b300c 	ldr	r3, [fp, #-12]
80026bb0:	e1d331b0 	ldrh	r3, [r3, #16]
80026bb4:	e6bf3073 	sxth	r3, r3
80026bb8:	e3530001 	cmp	r3, #1
80026bbc:	1a000008 	bne	80026be4 <sys_unlink+0x1b0>
80026bc0:	e51b3008 	ldr	r3, [fp, #-8]
80026bc4:	e1d331b6 	ldrh	r3, [r3, #22]
80026bc8:	e6ff3073 	uxth	r3, r3
80026bcc:	e2433001 	sub	r3, r3, #1
80026bd0:	e6ff2073 	uxth	r2, r3
80026bd4:	e51b3008 	ldr	r3, [fp, #-8]
80026bd8:	e1c321b6 	strh	r2, [r3, #22]
80026bdc:	e51b0008 	ldr	r0, [fp, #-8]
80026be0:	ebfff10c 	bl	80023018 <iupdate>
80026be4:	e51b0008 	ldr	r0, [fp, #-8]
80026be8:	ebfff26c 	bl	800235a0 <iunlockput>
80026bec:	e51b300c 	ldr	r3, [fp, #-12]
80026bf0:	e1d331b6 	ldrh	r3, [r3, #22]
80026bf4:	e6ff3073 	uxth	r3, r3
80026bf8:	e2433001 	sub	r3, r3, #1
80026bfc:	e6ff2073 	uxth	r2, r3
80026c00:	e51b300c 	ldr	r3, [fp, #-12]
80026c04:	e1c321b6 	strh	r2, [r3, #22]
80026c08:	e51b000c 	ldr	r0, [fp, #-12]
80026c0c:	ebfff101 	bl	80023018 <iupdate>
80026c10:	e51b000c 	ldr	r0, [fp, #-12]
80026c14:	ebfff261 	bl	800235a0 <iunlockput>
80026c18:	ebfff690 	bl	80024660 <commit_trans>
80026c1c:	e3a03000 	mov	r3, #0
80026c20:	ea000003 	b	80026c34 <sys_unlink+0x200>
80026c24:	e51b0008 	ldr	r0, [fp, #-8]
80026c28:	ebfff25c 	bl	800235a0 <iunlockput>
80026c2c:	ebfff68b 	bl	80024660 <commit_trans>
80026c30:	e3e03000 	mvn	r3, #0
80026c34:	e1a00003 	mov	r0, r3
80026c38:	e24bd004 	sub	sp, fp, #4
80026c3c:	e8bd8800 	pop	{fp, pc}

80026c40 <create>:
80026c40:	e92d4800 	push	{fp, lr}
80026c44:	e28db004 	add	fp, sp, #4
80026c48:	e24dd030 	sub	sp, sp, #48	; 0x30
80026c4c:	e50b0028 	str	r0, [fp, #-40]	; 0xffffffd8
80026c50:	e14b12ba 	strh	r1, [fp, #-42]	; 0xffffffd6
80026c54:	e14b22bc 	strh	r2, [fp, #-44]	; 0xffffffd4
80026c58:	e14b32be 	strh	r3, [fp, #-46]	; 0xffffffd2
80026c5c:	e24b3020 	sub	r3, fp, #32
80026c60:	e51b0028 	ldr	r0, [fp, #-40]	; 0xffffffd8
80026c64:	e1a01003 	mov	r1, r3
80026c68:	ebfff582 	bl	80024278 <nameiparent>
80026c6c:	e50b0008 	str	r0, [fp, #-8]
80026c70:	e51b3008 	ldr	r3, [fp, #-8]
80026c74:	e3530000 	cmp	r3, #0
80026c78:	1a000001 	bne	80026c84 <create+0x44>
80026c7c:	e3a03000 	mov	r3, #0
80026c80:	ea00006a 	b	80026e30 <create+0x1f0>
80026c84:	e51b0008 	ldr	r0, [fp, #-8]
80026c88:	ebfff17f 	bl	8002328c <ilock>
80026c8c:	e24b2020 	sub	r2, fp, #32
80026c90:	e24b3010 	sub	r3, fp, #16
80026c94:	e51b0008 	ldr	r0, [fp, #-8]
80026c98:	e1a01002 	mov	r1, r2
80026c9c:	e1a02003 	mov	r2, r3
80026ca0:	ebfff449 	bl	80023dcc <dirlookup>
80026ca4:	e50b000c 	str	r0, [fp, #-12]
80026ca8:	e51b300c 	ldr	r3, [fp, #-12]
80026cac:	e3530000 	cmp	r3, #0
80026cb0:	0a000011 	beq	80026cfc <create+0xbc>
80026cb4:	e51b0008 	ldr	r0, [fp, #-8]
80026cb8:	ebfff238 	bl	800235a0 <iunlockput>
80026cbc:	e51b000c 	ldr	r0, [fp, #-12]
80026cc0:	ebfff171 	bl	8002328c <ilock>
80026cc4:	e15b32fa 	ldrsh	r3, [fp, #-42]	; 0xffffffd6
80026cc8:	e3530002 	cmp	r3, #2
80026ccc:	1a000006 	bne	80026cec <create+0xac>
80026cd0:	e51b300c 	ldr	r3, [fp, #-12]
80026cd4:	e1d331b0 	ldrh	r3, [r3, #16]
80026cd8:	e6bf3073 	sxth	r3, r3
80026cdc:	e3530002 	cmp	r3, #2
80026ce0:	1a000001 	bne	80026cec <create+0xac>
80026ce4:	e51b300c 	ldr	r3, [fp, #-12]
80026ce8:	ea000050 	b	80026e30 <create+0x1f0>
80026cec:	e51b000c 	ldr	r0, [fp, #-12]
80026cf0:	ebfff22a 	bl	800235a0 <iunlockput>
80026cf4:	e3a03000 	mov	r3, #0
80026cf8:	ea00004c 	b	80026e30 <create+0x1f0>
80026cfc:	e51b3008 	ldr	r3, [fp, #-8]
80026d00:	e5932000 	ldr	r2, [r3]
80026d04:	e15b32fa 	ldrsh	r3, [fp, #-42]	; 0xffffffd6
80026d08:	e1a00002 	mov	r0, r2
80026d0c:	e1a01003 	mov	r1, r3
80026d10:	ebfff080 	bl	80022f18 <ialloc>
80026d14:	e50b000c 	str	r0, [fp, #-12]
80026d18:	e51b300c 	ldr	r3, [fp, #-12]
80026d1c:	e3530000 	cmp	r3, #0
80026d20:	1a000002 	bne	80026d30 <create+0xf0>
80026d24:	e30908ec 	movw	r0, #39148	; 0x98ec
80026d28:	e3480002 	movt	r0, #32770	; 0x8002
80026d2c:	ebffeb90 	bl	80021b74 <panic>
80026d30:	e51b000c 	ldr	r0, [fp, #-12]
80026d34:	ebfff154 	bl	8002328c <ilock>
80026d38:	e51b300c 	ldr	r3, [fp, #-12]
80026d3c:	e15b22bc 	ldrh	r2, [fp, #-44]	; 0xffffffd4
80026d40:	e1c321b2 	strh	r2, [r3, #18]
80026d44:	e51b300c 	ldr	r3, [fp, #-12]
80026d48:	e15b22be 	ldrh	r2, [fp, #-46]	; 0xffffffd2
80026d4c:	e1c321b4 	strh	r2, [r3, #20]
80026d50:	e51b300c 	ldr	r3, [fp, #-12]
80026d54:	e3a02001 	mov	r2, #1
80026d58:	e1c321b6 	strh	r2, [r3, #22]
80026d5c:	e51b000c 	ldr	r0, [fp, #-12]
80026d60:	ebfff0ac 	bl	80023018 <iupdate>
80026d64:	e15b32fa 	ldrsh	r3, [fp, #-42]	; 0xffffffd6
80026d68:	e3530001 	cmp	r3, #1
80026d6c:	1a00001f 	bne	80026df0 <create+0x1b0>
80026d70:	e51b3008 	ldr	r3, [fp, #-8]
80026d74:	e1d331b6 	ldrh	r3, [r3, #22]
80026d78:	e6ff3073 	uxth	r3, r3
80026d7c:	e2833001 	add	r3, r3, #1
80026d80:	e6ff2073 	uxth	r2, r3
80026d84:	e51b3008 	ldr	r3, [fp, #-8]
80026d88:	e1c321b6 	strh	r2, [r3, #22]
80026d8c:	e51b0008 	ldr	r0, [fp, #-8]
80026d90:	ebfff0a0 	bl	80023018 <iupdate>
80026d94:	e51b300c 	ldr	r3, [fp, #-12]
80026d98:	e5933004 	ldr	r3, [r3, #4]
80026d9c:	e51b000c 	ldr	r0, [fp, #-12]
80026da0:	e30918c0 	movw	r1, #39104	; 0x98c0
80026da4:	e3481002 	movt	r1, #32770	; 0x8002
80026da8:	e1a02003 	mov	r2, r3
80026dac:	ebfff44a 	bl	80023edc <dirlink>
80026db0:	e1a03000 	mov	r3, r0
80026db4:	e3530000 	cmp	r3, #0
80026db8:	ba000009 	blt	80026de4 <create+0x1a4>
80026dbc:	e51b3008 	ldr	r3, [fp, #-8]
80026dc0:	e5933004 	ldr	r3, [r3, #4]
80026dc4:	e51b000c 	ldr	r0, [fp, #-12]
80026dc8:	e30918c4 	movw	r1, #39108	; 0x98c4
80026dcc:	e3481002 	movt	r1, #32770	; 0x8002
80026dd0:	e1a02003 	mov	r2, r3
80026dd4:	ebfff440 	bl	80023edc <dirlink>
80026dd8:	e1a03000 	mov	r3, r0
80026ddc:	e3530000 	cmp	r3, #0
80026de0:	aa000002 	bge	80026df0 <create+0x1b0>
80026de4:	e30908fc 	movw	r0, #39164	; 0x98fc
80026de8:	e3480002 	movt	r0, #32770	; 0x8002
80026dec:	ebffeb60 	bl	80021b74 <panic>
80026df0:	e51b300c 	ldr	r3, [fp, #-12]
80026df4:	e5933004 	ldr	r3, [r3, #4]
80026df8:	e24b2020 	sub	r2, fp, #32
80026dfc:	e51b0008 	ldr	r0, [fp, #-8]
80026e00:	e1a01002 	mov	r1, r2
80026e04:	e1a02003 	mov	r2, r3
80026e08:	ebfff433 	bl	80023edc <dirlink>
80026e0c:	e1a03000 	mov	r3, r0
80026e10:	e3530000 	cmp	r3, #0
80026e14:	aa000002 	bge	80026e24 <create+0x1e4>
80026e18:	e3090908 	movw	r0, #39176	; 0x9908
80026e1c:	e3480002 	movt	r0, #32770	; 0x8002
80026e20:	ebffeb53 	bl	80021b74 <panic>
80026e24:	e51b0008 	ldr	r0, [fp, #-8]
80026e28:	ebfff1dc 	bl	800235a0 <iunlockput>
80026e2c:	e51b300c 	ldr	r3, [fp, #-12]
80026e30:	e1a00003 	mov	r0, r3
80026e34:	e24bd004 	sub	sp, fp, #4
80026e38:	e8bd8800 	pop	{fp, pc}

80026e3c <sys_open>:
80026e3c:	e92d4800 	push	{fp, lr}
80026e40:	e28db004 	add	fp, sp, #4
80026e44:	e24dd018 	sub	sp, sp, #24
80026e48:	e24b3014 	sub	r3, fp, #20
80026e4c:	e3a00000 	mov	r0, #0
80026e50:	e1a01003 	mov	r1, r3
80026e54:	ebfffd18 	bl	800262bc <argstr>
80026e58:	e1a03000 	mov	r3, r0
80026e5c:	e3530000 	cmp	r3, #0
80026e60:	ba000006 	blt	80026e80 <sys_open+0x44>
80026e64:	e24b3018 	sub	r3, fp, #24
80026e68:	e3a00001 	mov	r0, #1
80026e6c:	e1a01003 	mov	r1, r3
80026e70:	ebfffccb 	bl	800261a4 <argint>
80026e74:	e1a03000 	mov	r3, r0
80026e78:	e3530000 	cmp	r3, #0
80026e7c:	aa000001 	bge	80026e88 <sys_open+0x4c>
80026e80:	e3e03000 	mvn	r3, #0
80026e84:	ea00005f 	b	80027008 <sys_open+0x1cc>
80026e88:	e51b3018 	ldr	r3, [fp, #-24]	; 0xffffffe8
80026e8c:	e2033c02 	and	r3, r3, #512	; 0x200
80026e90:	e3530000 	cmp	r3, #0
80026e94:	0a00000d 	beq	80026ed0 <sys_open+0x94>
80026e98:	ebfff5d8 	bl	80024600 <begin_trans>
80026e9c:	e51b3014 	ldr	r3, [fp, #-20]	; 0xffffffec
80026ea0:	e1a00003 	mov	r0, r3
80026ea4:	e3a01002 	mov	r1, #2
80026ea8:	e3a02000 	mov	r2, #0
80026eac:	e3a03000 	mov	r3, #0
80026eb0:	ebffff62 	bl	80026c40 <create>
80026eb4:	e50b0008 	str	r0, [fp, #-8]
80026eb8:	ebfff5e8 	bl	80024660 <commit_trans>
80026ebc:	e51b3008 	ldr	r3, [fp, #-8]
80026ec0:	e3530000 	cmp	r3, #0
80026ec4:	1a000018 	bne	80026f2c <sys_open+0xf0>
80026ec8:	e3e03000 	mvn	r3, #0
80026ecc:	ea00004d 	b	80027008 <sys_open+0x1cc>
80026ed0:	e51b3014 	ldr	r3, [fp, #-20]	; 0xffffffec
80026ed4:	e1a00003 	mov	r0, r3
80026ed8:	ebfff4d9 	bl	80024244 <namei>
80026edc:	e50b0008 	str	r0, [fp, #-8]
80026ee0:	e51b3008 	ldr	r3, [fp, #-8]
80026ee4:	e3530000 	cmp	r3, #0
80026ee8:	1a000001 	bne	80026ef4 <sys_open+0xb8>
80026eec:	e3e03000 	mvn	r3, #0
80026ef0:	ea000044 	b	80027008 <sys_open+0x1cc>
80026ef4:	e51b0008 	ldr	r0, [fp, #-8]
80026ef8:	ebfff0e3 	bl	8002328c <ilock>
80026efc:	e51b3008 	ldr	r3, [fp, #-8]
80026f00:	e1d331b0 	ldrh	r3, [r3, #16]
80026f04:	e6bf3073 	sxth	r3, r3
80026f08:	e3530001 	cmp	r3, #1
80026f0c:	1a000006 	bne	80026f2c <sys_open+0xf0>
80026f10:	e51b3018 	ldr	r3, [fp, #-24]	; 0xffffffe8
80026f14:	e3530000 	cmp	r3, #0
80026f18:	0a000003 	beq	80026f2c <sys_open+0xf0>
80026f1c:	e51b0008 	ldr	r0, [fp, #-8]
80026f20:	ebfff19e 	bl	800235a0 <iunlockput>
80026f24:	e3e03000 	mvn	r3, #0
80026f28:	ea000036 	b	80027008 <sys_open+0x1cc>
80026f2c:	ebffedbd 	bl	80022628 <filealloc>
80026f30:	e50b000c 	str	r0, [fp, #-12]
80026f34:	e51b300c 	ldr	r3, [fp, #-12]
80026f38:	e3530000 	cmp	r3, #0
80026f3c:	0a000005 	beq	80026f58 <sys_open+0x11c>
80026f40:	e51b000c 	ldr	r0, [fp, #-12]
80026f44:	ebfffd5f 	bl	800264c8 <fdalloc>
80026f48:	e50b0010 	str	r0, [fp, #-16]
80026f4c:	e51b3010 	ldr	r3, [fp, #-16]
80026f50:	e3530000 	cmp	r3, #0
80026f54:	aa000008 	bge	80026f7c <sys_open+0x140>
80026f58:	e51b300c 	ldr	r3, [fp, #-12]
80026f5c:	e3530000 	cmp	r3, #0
80026f60:	0a000001 	beq	80026f6c <sys_open+0x130>
80026f64:	e51b000c 	ldr	r0, [fp, #-12]
80026f68:	ebffeded 	bl	80022724 <fileclose>
80026f6c:	e51b0008 	ldr	r0, [fp, #-8]
80026f70:	ebfff18a 	bl	800235a0 <iunlockput>
80026f74:	e3e03000 	mvn	r3, #0
80026f78:	ea000022 	b	80027008 <sys_open+0x1cc>
80026f7c:	e51b0008 	ldr	r0, [fp, #-8]
80026f80:	ebfff127 	bl	80023424 <iunlock>
80026f84:	e51b300c 	ldr	r3, [fp, #-12]
80026f88:	e3a02002 	mov	r2, #2
80026f8c:	e5c32000 	strb	r2, [r3]
80026f90:	e51b300c 	ldr	r3, [fp, #-12]
80026f94:	e51b2008 	ldr	r2, [fp, #-8]
80026f98:	e5832010 	str	r2, [r3, #16]
80026f9c:	e51b300c 	ldr	r3, [fp, #-12]
80026fa0:	e3a02000 	mov	r2, #0
80026fa4:	e5832014 	str	r2, [r3, #20]
80026fa8:	e51b3018 	ldr	r3, [fp, #-24]	; 0xffffffe8
80026fac:	e2033001 	and	r3, r3, #1
80026fb0:	e3530000 	cmp	r3, #0
80026fb4:	13a03000 	movne	r3, #0
80026fb8:	03a03001 	moveq	r3, #1
80026fbc:	e6ef3073 	uxtb	r3, r3
80026fc0:	e1a02003 	mov	r2, r3
80026fc4:	e51b300c 	ldr	r3, [fp, #-12]
80026fc8:	e5c32008 	strb	r2, [r3, #8]
80026fcc:	e51b3018 	ldr	r3, [fp, #-24]	; 0xffffffe8
80026fd0:	e2033001 	and	r3, r3, #1
80026fd4:	e3530000 	cmp	r3, #0
80026fd8:	1a000003 	bne	80026fec <sys_open+0x1b0>
80026fdc:	e51b3018 	ldr	r3, [fp, #-24]	; 0xffffffe8
80026fe0:	e2033002 	and	r3, r3, #2
80026fe4:	e3530000 	cmp	r3, #0
80026fe8:	0a000001 	beq	80026ff4 <sys_open+0x1b8>
80026fec:	e3a03001 	mov	r3, #1
80026ff0:	ea000000 	b	80026ff8 <sys_open+0x1bc>
80026ff4:	e3a03000 	mov	r3, #0
80026ff8:	e6ef2073 	uxtb	r2, r3
80026ffc:	e51b300c 	ldr	r3, [fp, #-12]
80027000:	e5c32009 	strb	r2, [r3, #9]
80027004:	e51b3010 	ldr	r3, [fp, #-16]
80027008:	e1a00003 	mov	r0, r3
8002700c:	e24bd004 	sub	sp, fp, #4
80027010:	e8bd8800 	pop	{fp, pc}

80027014 <sys_mkdir>:
80027014:	e92d4800 	push	{fp, lr}
80027018:	e28db004 	add	fp, sp, #4
8002701c:	e24dd008 	sub	sp, sp, #8
80027020:	ebfff576 	bl	80024600 <begin_trans>
80027024:	e24b300c 	sub	r3, fp, #12
80027028:	e3a00000 	mov	r0, #0
8002702c:	e1a01003 	mov	r1, r3
80027030:	ebfffca1 	bl	800262bc <argstr>
80027034:	e1a03000 	mov	r3, r0
80027038:	e3530000 	cmp	r3, #0
8002703c:	ba000009 	blt	80027068 <sys_mkdir+0x54>
80027040:	e51b300c 	ldr	r3, [fp, #-12]
80027044:	e1a00003 	mov	r0, r3
80027048:	e3a01001 	mov	r1, #1
8002704c:	e3a02000 	mov	r2, #0
80027050:	e3a03000 	mov	r3, #0
80027054:	ebfffef9 	bl	80026c40 <create>
80027058:	e50b0008 	str	r0, [fp, #-8]
8002705c:	e51b3008 	ldr	r3, [fp, #-8]
80027060:	e3530000 	cmp	r3, #0
80027064:	1a000002 	bne	80027074 <sys_mkdir+0x60>
80027068:	ebfff57c 	bl	80024660 <commit_trans>
8002706c:	e3e03000 	mvn	r3, #0
80027070:	ea000003 	b	80027084 <sys_mkdir+0x70>
80027074:	e51b0008 	ldr	r0, [fp, #-8]
80027078:	ebfff148 	bl	800235a0 <iunlockput>
8002707c:	ebfff577 	bl	80024660 <commit_trans>
80027080:	e3a03000 	mov	r3, #0
80027084:	e1a00003 	mov	r0, r3
80027088:	e24bd004 	sub	sp, fp, #4
8002708c:	e8bd8800 	pop	{fp, pc}

80027090 <sys_mknod>:
80027090:	e92d4800 	push	{fp, lr}
80027094:	e28db004 	add	fp, sp, #4
80027098:	e24dd018 	sub	sp, sp, #24
8002709c:	ebfff557 	bl	80024600 <begin_trans>
800270a0:	e24b3010 	sub	r3, fp, #16
800270a4:	e3a00000 	mov	r0, #0
800270a8:	e1a01003 	mov	r1, r3
800270ac:	ebfffc82 	bl	800262bc <argstr>
800270b0:	e50b0008 	str	r0, [fp, #-8]
800270b4:	e51b3008 	ldr	r3, [fp, #-8]
800270b8:	e3530000 	cmp	r3, #0
800270bc:	ba00001b 	blt	80027130 <sys_mknod+0xa0>
800270c0:	e24b3014 	sub	r3, fp, #20
800270c4:	e3a00001 	mov	r0, #1
800270c8:	e1a01003 	mov	r1, r3
800270cc:	ebfffc34 	bl	800261a4 <argint>
800270d0:	e1a03000 	mov	r3, r0
800270d4:	e3530000 	cmp	r3, #0
800270d8:	ba000014 	blt	80027130 <sys_mknod+0xa0>
800270dc:	e24b3018 	sub	r3, fp, #24
800270e0:	e3a00002 	mov	r0, #2
800270e4:	e1a01003 	mov	r1, r3
800270e8:	ebfffc2d 	bl	800261a4 <argint>
800270ec:	e1a03000 	mov	r3, r0
800270f0:	e3530000 	cmp	r3, #0
800270f4:	ba00000d 	blt	80027130 <sys_mknod+0xa0>
800270f8:	e51b1010 	ldr	r1, [fp, #-16]
800270fc:	e51b3014 	ldr	r3, [fp, #-20]	; 0xffffffec
80027100:	e6ff2073 	uxth	r2, r3
80027104:	e51b3018 	ldr	r3, [fp, #-24]	; 0xffffffe8
80027108:	e6ff3073 	uxth	r3, r3
8002710c:	e6bf2072 	sxth	r2, r2
80027110:	e6bf3073 	sxth	r3, r3
80027114:	e1a00001 	mov	r0, r1
80027118:	e3a01003 	mov	r1, #3
8002711c:	ebfffec7 	bl	80026c40 <create>
80027120:	e50b000c 	str	r0, [fp, #-12]
80027124:	e51b300c 	ldr	r3, [fp, #-12]
80027128:	e3530000 	cmp	r3, #0
8002712c:	1a000002 	bne	8002713c <sys_mknod+0xac>
80027130:	ebfff54a 	bl	80024660 <commit_trans>
80027134:	e3e03000 	mvn	r3, #0
80027138:	ea000003 	b	8002714c <sys_mknod+0xbc>
8002713c:	e51b000c 	ldr	r0, [fp, #-12]
80027140:	ebfff116 	bl	800235a0 <iunlockput>
80027144:	ebfff545 	bl	80024660 <commit_trans>
80027148:	e3a03000 	mov	r3, #0
8002714c:	e1a00003 	mov	r0, r3
80027150:	e24bd004 	sub	sp, fp, #4
80027154:	e8bd8800 	pop	{fp, pc}

80027158 <sys_chdir>:
80027158:	e92d4800 	push	{fp, lr}
8002715c:	e28db004 	add	fp, sp, #4
80027160:	e24dd008 	sub	sp, sp, #8
80027164:	e24b300c 	sub	r3, fp, #12
80027168:	e3a00000 	mov	r0, #0
8002716c:	e1a01003 	mov	r1, r3
80027170:	ebfffc51 	bl	800262bc <argstr>
80027174:	e1a03000 	mov	r3, r0
80027178:	e3530000 	cmp	r3, #0
8002717c:	ba000006 	blt	8002719c <sys_chdir+0x44>
80027180:	e51b300c 	ldr	r3, [fp, #-12]
80027184:	e1a00003 	mov	r0, r3
80027188:	ebfff42d 	bl	80024244 <namei>
8002718c:	e50b0008 	str	r0, [fp, #-8]
80027190:	e51b3008 	ldr	r3, [fp, #-8]
80027194:	e3530000 	cmp	r3, #0
80027198:	1a000001 	bne	800271a4 <sys_chdir+0x4c>
8002719c:	e3e03000 	mvn	r3, #0
800271a0:	ea000018 	b	80027208 <sys_chdir+0xb0>
800271a4:	e51b0008 	ldr	r0, [fp, #-8]
800271a8:	ebfff037 	bl	8002328c <ilock>
800271ac:	e51b3008 	ldr	r3, [fp, #-8]
800271b0:	e1d331b0 	ldrh	r3, [r3, #16]
800271b4:	e6bf3073 	sxth	r3, r3
800271b8:	e3530001 	cmp	r3, #1
800271bc:	0a000003 	beq	800271d0 <sys_chdir+0x78>
800271c0:	e51b0008 	ldr	r0, [fp, #-8]
800271c4:	ebfff0f5 	bl	800235a0 <iunlockput>
800271c8:	e3e03000 	mvn	r3, #0
800271cc:	ea00000d 	b	80027208 <sys_chdir+0xb0>
800271d0:	e51b0008 	ldr	r0, [fp, #-8]
800271d4:	ebfff092 	bl	80023424 <iunlock>
800271d8:	e30d3608 	movw	r3, #54792	; 0xd608
800271dc:	e348300a 	movt	r3, #32778	; 0x800a
800271e0:	e5933000 	ldr	r3, [r3]
800271e4:	e5933068 	ldr	r3, [r3, #104]	; 0x68
800271e8:	e1a00003 	mov	r0, r3
800271ec:	ebfff0ae 	bl	800234ac <iput>
800271f0:	e30d3608 	movw	r3, #54792	; 0xd608
800271f4:	e348300a 	movt	r3, #32778	; 0x800a
800271f8:	e5933000 	ldr	r3, [r3]
800271fc:	e51b2008 	ldr	r2, [fp, #-8]
80027200:	e5832068 	str	r2, [r3, #104]	; 0x68
80027204:	e3a03000 	mov	r3, #0
80027208:	e1a00003 	mov	r0, r3
8002720c:	e24bd004 	sub	sp, fp, #4
80027210:	e8bd8800 	pop	{fp, pc}

80027214 <sys_exec>:
80027214:	e92d4800 	push	{fp, lr}
80027218:	e28db004 	add	fp, sp, #4
8002721c:	e24dd090 	sub	sp, sp, #144	; 0x90
80027220:	e24b300c 	sub	r3, fp, #12
80027224:	e3a00000 	mov	r0, #0
80027228:	e1a01003 	mov	r1, r3
8002722c:	ebfffc22 	bl	800262bc <argstr>
80027230:	e1a03000 	mov	r3, r0
80027234:	e3530000 	cmp	r3, #0
80027238:	ba000006 	blt	80027258 <sys_exec+0x44>
8002723c:	e24b3090 	sub	r3, fp, #144	; 0x90
80027240:	e3a00001 	mov	r0, #1
80027244:	e1a01003 	mov	r1, r3
80027248:	ebfffbd5 	bl	800261a4 <argint>
8002724c:	e1a03000 	mov	r3, r0
80027250:	e3530000 	cmp	r3, #0
80027254:	aa000001 	bge	80027260 <sys_exec+0x4c>
80027258:	e3e03000 	mvn	r3, #0
8002725c:	ea00003d 	b	80027358 <sys_exec+0x144>
80027260:	e24b308c 	sub	r3, fp, #140	; 0x8c
80027264:	e1a00003 	mov	r0, r3
80027268:	e3a01000 	mov	r1, #0
8002726c:	e3a02080 	mov	r2, #128	; 0x80
80027270:	ebffe362 	bl	80020000 <memset>
80027274:	e3a03000 	mov	r3, #0
80027278:	e50b3008 	str	r3, [fp, #-8]
8002727c:	e51b3008 	ldr	r3, [fp, #-8]
80027280:	e353001f 	cmp	r3, #31
80027284:	9a000001 	bls	80027290 <sys_exec+0x7c>
80027288:	e3e03000 	mvn	r3, #0
8002728c:	ea000031 	b	80027358 <sys_exec+0x144>
80027290:	e51b3008 	ldr	r3, [fp, #-8]
80027294:	e1a03103 	lsl	r3, r3, #2
80027298:	e1a02003 	mov	r2, r3
8002729c:	e51b3090 	ldr	r3, [fp, #-144]	; 0xffffff70
800272a0:	e0822003 	add	r2, r2, r3
800272a4:	e24b3094 	sub	r3, fp, #148	; 0x94
800272a8:	e1a00002 	mov	r0, r2
800272ac:	e1a01003 	mov	r1, r3
800272b0:	ebfffb6d 	bl	8002606c <fetchint>
800272b4:	e1a03000 	mov	r3, r0
800272b8:	e3530000 	cmp	r3, #0
800272bc:	aa000001 	bge	800272c8 <sys_exec+0xb4>
800272c0:	e3e03000 	mvn	r3, #0
800272c4:	ea000023 	b	80027358 <sys_exec+0x144>
800272c8:	e51b3094 	ldr	r3, [fp, #-148]	; 0xffffff6c
800272cc:	e3530000 	cmp	r3, #0
800272d0:	1a00000f 	bne	80027314 <sys_exec+0x100>
800272d4:	e51b2008 	ldr	r2, [fp, #-8]
800272d8:	e3e03087 	mvn	r3, #135	; 0x87
800272dc:	e1a02102 	lsl	r2, r2, #2
800272e0:	e24b1004 	sub	r1, fp, #4
800272e4:	e0812002 	add	r2, r1, r2
800272e8:	e0823003 	add	r3, r2, r3
800272ec:	e3a02000 	mov	r2, #0
800272f0:	e5832000 	str	r2, [r3]
800272f4:	e1a00000 	nop			; (mov r0, r0)
800272f8:	e51b200c 	ldr	r2, [fp, #-12]
800272fc:	e24b308c 	sub	r3, fp, #140	; 0x8c
80027300:	e1a00002 	mov	r0, r2
80027304:	e1a01003 	mov	r1, r3
80027308:	ebffeb86 	bl	80022128 <exec>
8002730c:	e1a03000 	mov	r3, r0
80027310:	ea000010 	b	80027358 <sys_exec+0x144>
80027314:	e51b2094 	ldr	r2, [fp, #-148]	; 0xffffff6c
80027318:	e24b108c 	sub	r1, fp, #140	; 0x8c
8002731c:	e51b3008 	ldr	r3, [fp, #-8]
80027320:	e1a03103 	lsl	r3, r3, #2
80027324:	e0813003 	add	r3, r1, r3
80027328:	e1a00002 	mov	r0, r2
8002732c:	e1a01003 	mov	r1, r3
80027330:	ebfffb6c 	bl	800260e8 <fetchstr>
80027334:	e1a03000 	mov	r3, r0
80027338:	e3530000 	cmp	r3, #0
8002733c:	aa000001 	bge	80027348 <sys_exec+0x134>
80027340:	e3e03000 	mvn	r3, #0
80027344:	ea000003 	b	80027358 <sys_exec+0x144>
80027348:	e51b3008 	ldr	r3, [fp, #-8]
8002734c:	e2833001 	add	r3, r3, #1
80027350:	e50b3008 	str	r3, [fp, #-8]
80027354:	eaffffc8 	b	8002727c <sys_exec+0x68>
80027358:	e1a00003 	mov	r0, r3
8002735c:	e24bd004 	sub	sp, fp, #4
80027360:	e8bd8800 	pop	{fp, pc}

80027364 <sys_pipe>:
80027364:	e92d4800 	push	{fp, lr}
80027368:	e28db004 	add	fp, sp, #4
8002736c:	e24dd018 	sub	sp, sp, #24
80027370:	e24b3010 	sub	r3, fp, #16
80027374:	e3a00000 	mov	r0, #0
80027378:	e1a01003 	mov	r1, r3
8002737c:	e3a02008 	mov	r2, #8
80027380:	ebfffba2 	bl	80026210 <argptr>
80027384:	e1a03000 	mov	r3, r0
80027388:	e3530000 	cmp	r3, #0
8002738c:	aa000001 	bge	80027398 <sys_pipe+0x34>
80027390:	e3e03000 	mvn	r3, #0
80027394:	ea000033 	b	80027468 <sys_pipe+0x104>
80027398:	e24b2014 	sub	r2, fp, #20
8002739c:	e24b3018 	sub	r3, fp, #24
800273a0:	e1a00002 	mov	r0, r2
800273a4:	e1a01003 	mov	r1, r3
800273a8:	ebfff604 	bl	80024bc0 <pipealloc>
800273ac:	e1a03000 	mov	r3, r0
800273b0:	e3530000 	cmp	r3, #0
800273b4:	aa000001 	bge	800273c0 <sys_pipe+0x5c>
800273b8:	e3e03000 	mvn	r3, #0
800273bc:	ea000029 	b	80027468 <sys_pipe+0x104>
800273c0:	e3e03000 	mvn	r3, #0
800273c4:	e50b3008 	str	r3, [fp, #-8]
800273c8:	e51b3014 	ldr	r3, [fp, #-20]	; 0xffffffec
800273cc:	e1a00003 	mov	r0, r3
800273d0:	ebfffc3c 	bl	800264c8 <fdalloc>
800273d4:	e50b0008 	str	r0, [fp, #-8]
800273d8:	e51b3008 	ldr	r3, [fp, #-8]
800273dc:	e3530000 	cmp	r3, #0
800273e0:	ba000006 	blt	80027400 <sys_pipe+0x9c>
800273e4:	e51b3018 	ldr	r3, [fp, #-24]	; 0xffffffe8
800273e8:	e1a00003 	mov	r0, r3
800273ec:	ebfffc35 	bl	800264c8 <fdalloc>
800273f0:	e50b000c 	str	r0, [fp, #-12]
800273f4:	e51b300c 	ldr	r3, [fp, #-12]
800273f8:	e3530000 	cmp	r3, #0
800273fc:	aa000011 	bge	80027448 <sys_pipe+0xe4>
80027400:	e51b3008 	ldr	r3, [fp, #-8]
80027404:	e3530000 	cmp	r3, #0
80027408:	ba000006 	blt	80027428 <sys_pipe+0xc4>
8002740c:	e30d3608 	movw	r3, #54792	; 0xd608
80027410:	e348300a 	movt	r3, #32778	; 0x800a
80027414:	e5933000 	ldr	r3, [r3]
80027418:	e51b2008 	ldr	r2, [fp, #-8]
8002741c:	e282200a 	add	r2, r2, #10
80027420:	e3a01000 	mov	r1, #0
80027424:	e7831102 	str	r1, [r3, r2, lsl #2]
80027428:	e51b3014 	ldr	r3, [fp, #-20]	; 0xffffffec
8002742c:	e1a00003 	mov	r0, r3
80027430:	ebffecbb 	bl	80022724 <fileclose>
80027434:	e51b3018 	ldr	r3, [fp, #-24]	; 0xffffffe8
80027438:	e1a00003 	mov	r0, r3
8002743c:	ebffecb8 	bl	80022724 <fileclose>
80027440:	e3e03000 	mvn	r3, #0
80027444:	ea000007 	b	80027468 <sys_pipe+0x104>
80027448:	e51b3010 	ldr	r3, [fp, #-16]
8002744c:	e51b2008 	ldr	r2, [fp, #-8]
80027450:	e5832000 	str	r2, [r3]
80027454:	e51b3010 	ldr	r3, [fp, #-16]
80027458:	e2833004 	add	r3, r3, #4
8002745c:	e51b200c 	ldr	r2, [fp, #-12]
80027460:	e5832000 	str	r2, [r3]
80027464:	e3a03000 	mov	r3, #0
80027468:	e1a00003 	mov	r0, r3
8002746c:	e24bd004 	sub	sp, fp, #4
80027470:	e8bd8800 	pop	{fp, pc}

80027474 <sys_fork>:
80027474:	e92d4800 	push	{fp, lr}
80027478:	e28db004 	add	fp, sp, #4
8002747c:	ebfff815 	bl	800254d8 <fork>
80027480:	e1a03000 	mov	r3, r0
80027484:	e1a00003 	mov	r0, r3
80027488:	e8bd8800 	pop	{fp, pc}

8002748c <sys_exit>:
8002748c:	e92d4800 	push	{fp, lr}
80027490:	e28db004 	add	fp, sp, #4
80027494:	ebfff88e 	bl	800256d4 <exit>
80027498:	e3a03000 	mov	r3, #0
8002749c:	e1a00003 	mov	r0, r3
800274a0:	e8bd8800 	pop	{fp, pc}

800274a4 <sys_wait>:
800274a4:	e92d4800 	push	{fp, lr}
800274a8:	e28db004 	add	fp, sp, #4
800274ac:	ebfff8f4 	bl	80025884 <wait>
800274b0:	e1a03000 	mov	r3, r0
800274b4:	e1a00003 	mov	r0, r3
800274b8:	e8bd8800 	pop	{fp, pc}

800274bc <sys_kill>:
800274bc:	e92d4800 	push	{fp, lr}
800274c0:	e28db004 	add	fp, sp, #4
800274c4:	e24dd008 	sub	sp, sp, #8
800274c8:	e24b3008 	sub	r3, fp, #8
800274cc:	e3a00000 	mov	r0, #0
800274d0:	e1a01003 	mov	r1, r3
800274d4:	ebfffb32 	bl	800261a4 <argint>
800274d8:	e1a03000 	mov	r3, r0
800274dc:	e3530000 	cmp	r3, #0
800274e0:	aa000001 	bge	800274ec <sys_kill+0x30>
800274e4:	e3e03000 	mvn	r3, #0
800274e8:	ea000003 	b	800274fc <sys_kill+0x40>
800274ec:	e51b3008 	ldr	r3, [fp, #-8]
800274f0:	e1a00003 	mov	r0, r3
800274f4:	ebfffa34 	bl	80025dcc <kill>
800274f8:	e1a03000 	mov	r3, r0
800274fc:	e1a00003 	mov	r0, r3
80027500:	e24bd004 	sub	sp, fp, #4
80027504:	e8bd8800 	pop	{fp, pc}

80027508 <sys_getpid>:
80027508:	e52db004 	push	{fp}		; (str fp, [sp, #-4]!)
8002750c:	e28db000 	add	fp, sp, #0
80027510:	e30d3608 	movw	r3, #54792	; 0xd608
80027514:	e348300a 	movt	r3, #32778	; 0x800a
80027518:	e5933000 	ldr	r3, [r3]
8002751c:	e5933010 	ldr	r3, [r3, #16]
80027520:	e1a00003 	mov	r0, r3
80027524:	e24bd000 	sub	sp, fp, #0
80027528:	e49db004 	pop	{fp}		; (ldr fp, [sp], #4)
8002752c:	e12fff1e 	bx	lr

80027530 <sys_sbrk>:
80027530:	e92d4800 	push	{fp, lr}
80027534:	e28db004 	add	fp, sp, #4
80027538:	e24dd008 	sub	sp, sp, #8
8002753c:	e24b300c 	sub	r3, fp, #12
80027540:	e3a00000 	mov	r0, #0
80027544:	e1a01003 	mov	r1, r3
80027548:	ebfffb15 	bl	800261a4 <argint>
8002754c:	e1a03000 	mov	r3, r0
80027550:	e3530000 	cmp	r3, #0
80027554:	aa000001 	bge	80027560 <sys_sbrk+0x30>
80027558:	e3e03000 	mvn	r3, #0
8002755c:	ea00000d 	b	80027598 <sys_sbrk+0x68>
80027560:	e30d3608 	movw	r3, #54792	; 0xd608
80027564:	e348300a 	movt	r3, #32778	; 0x800a
80027568:	e5933000 	ldr	r3, [r3]
8002756c:	e5933000 	ldr	r3, [r3]
80027570:	e50b3008 	str	r3, [fp, #-8]
80027574:	e51b300c 	ldr	r3, [fp, #-12]
80027578:	e1a00003 	mov	r0, r3
8002757c:	ebfff794 	bl	800253d4 <growproc>
80027580:	e1a03000 	mov	r3, r0
80027584:	e3530000 	cmp	r3, #0
80027588:	aa000001 	bge	80027594 <sys_sbrk+0x64>
8002758c:	e3e03000 	mvn	r3, #0
80027590:	ea000000 	b	80027598 <sys_sbrk+0x68>
80027594:	e51b3008 	ldr	r3, [fp, #-8]
80027598:	e1a00003 	mov	r0, r3
8002759c:	e24bd004 	sub	sp, fp, #4
800275a0:	e8bd8800 	pop	{fp, pc}

800275a4 <sys_sleep>:
800275a4:	e92d4800 	push	{fp, lr}
800275a8:	e28db004 	add	fp, sp, #4
800275ac:	e24dd008 	sub	sp, sp, #8
800275b0:	e24b300c 	sub	r3, fp, #12
800275b4:	e3a00000 	mov	r0, #0
800275b8:	e1a01003 	mov	r1, r3
800275bc:	ebfffaf8 	bl	800261a4 <argint>
800275c0:	e1a03000 	mov	r3, r0
800275c4:	e3530000 	cmp	r3, #0
800275c8:	aa000001 	bge	800275d4 <sys_sleep+0x30>
800275cc:	e3e03000 	mvn	r3, #0
800275d0:	ea000023 	b	80027664 <sys_sleep+0xc0>
800275d4:	e30f057c 	movw	r0, #62844	; 0xf57c
800275d8:	e348000a 	movt	r0, #32778	; 0x800a
800275dc:	ebfffa7f 	bl	80025fe0 <acquire>
800275e0:	e30f35b0 	movw	r3, #62896	; 0xf5b0
800275e4:	e348300a 	movt	r3, #32778	; 0x800a
800275e8:	e5933000 	ldr	r3, [r3]
800275ec:	e50b3008 	str	r3, [fp, #-8]
800275f0:	ea00000f 	b	80027634 <sys_sleep+0x90>
800275f4:	e30d3608 	movw	r3, #54792	; 0xd608
800275f8:	e348300a 	movt	r3, #32778	; 0x800a
800275fc:	e5933000 	ldr	r3, [r3]
80027600:	e5933024 	ldr	r3, [r3, #36]	; 0x24
80027604:	e3530000 	cmp	r3, #0
80027608:	0a000004 	beq	80027620 <sys_sleep+0x7c>
8002760c:	e30f057c 	movw	r0, #62844	; 0xf57c
80027610:	e348000a 	movt	r0, #32778	; 0x800a
80027614:	ebfffa7b 	bl	80026008 <release>
80027618:	e3e03000 	mvn	r3, #0
8002761c:	ea000010 	b	80027664 <sys_sleep+0xc0>
80027620:	e30f05b0 	movw	r0, #62896	; 0xf5b0
80027624:	e348000a 	movt	r0, #32778	; 0x800a
80027628:	e30f157c 	movw	r1, #62844	; 0xf57c
8002762c:	e348100a 	movt	r1, #32778	; 0x800a
80027630:	ebfff97f 	bl	80025c34 <sleep>
80027634:	e30f35b0 	movw	r3, #62896	; 0xf5b0
80027638:	e348300a 	movt	r3, #32778	; 0x800a
8002763c:	e5932000 	ldr	r2, [r3]
80027640:	e51b3008 	ldr	r3, [fp, #-8]
80027644:	e0632002 	rsb	r2, r3, r2
80027648:	e51b300c 	ldr	r3, [fp, #-12]
8002764c:	e1520003 	cmp	r2, r3
80027650:	3affffe7 	bcc	800275f4 <sys_sleep+0x50>
80027654:	e30f057c 	movw	r0, #62844	; 0xf57c
80027658:	e348000a 	movt	r0, #32778	; 0x800a
8002765c:	ebfffa69 	bl	80026008 <release>
80027660:	e3a03000 	mov	r3, #0
80027664:	e1a00003 	mov	r0, r3
80027668:	e24bd004 	sub	sp, fp, #4
8002766c:	e8bd8800 	pop	{fp, pc}

80027670 <sys_uptime>:
80027670:	e92d4800 	push	{fp, lr}
80027674:	e28db004 	add	fp, sp, #4
80027678:	e24dd008 	sub	sp, sp, #8
8002767c:	e30f057c 	movw	r0, #62844	; 0xf57c
80027680:	e348000a 	movt	r0, #32778	; 0x800a
80027684:	ebfffa55 	bl	80025fe0 <acquire>
80027688:	e30f35b0 	movw	r3, #62896	; 0xf5b0
8002768c:	e348300a 	movt	r3, #32778	; 0x800a
80027690:	e5933000 	ldr	r3, [r3]
80027694:	e50b3008 	str	r3, [fp, #-8]
80027698:	e30f057c 	movw	r0, #62844	; 0xf57c
8002769c:	e348000a 	movt	r0, #32778	; 0x800a
800276a0:	ebfffa58 	bl	80026008 <release>
800276a4:	e51b3008 	ldr	r3, [fp, #-8]
800276a8:	e1a00003 	mov	r0, r3
800276ac:	e24bd004 	sub	sp, fp, #4
800276b0:	e8bd8800 	pop	{fp, pc}

800276b4 <trap_swi>:
800276b4:	e92d5fff 	push	{r0, r1, r2, r3, r4, r5, r6, r7, r8, r9, sl, fp, ip, lr}
800276b8:	e14f2000 	mrs	r2, SPSR
800276bc:	e92d0004 	stmfd	sp!, {r2}
800276c0:	e92d4000 	stmfd	sp!, {lr}
800276c4:	e94d6000 	stmdb	sp, {sp, lr}^
800276c8:	e24dd008 	sub	sp, sp, #8
800276cc:	e1a0000d 	mov	r0, sp
800276d0:	eb000054 	bl	80027828 <swi_handler>

800276d4 <trapret>:
800276d4:	e8dd6000 	ldm	sp, {sp, lr}^
800276d8:	e28dd008 	add	sp, sp, #8
800276dc:	e8bd4000 	ldmfd	sp!, {lr}
800276e0:	e8bd0004 	ldmfd	sp!, {r2}
800276e4:	e16ff002 	msr	SPSR_fsxc, r2
800276e8:	e8fd9fff 	ldm	sp!, {r0, r1, r2, r3, r4, r5, r6, r7, r8, r9, sl, fp, ip, pc}^

800276ec <trap_irq>:
800276ec:	e24ee004 	sub	lr, lr, #4
800276f0:	e92d4007 	push	{r0, r1, r2, lr}
800276f4:	e14f1000 	mrs	r1, SPSR
800276f8:	e1a0000d 	mov	r0, sp
800276fc:	e28dd010 	add	sp, sp, #16
80027700:	e10f2000 	mrs	r2, CPSR
80027704:	e3c2201f 	bic	r2, r2, #31
80027708:	e3822013 	orr	r2, r2, #19
8002770c:	e12ff002 	msr	CPSR_fsxc, r2
80027710:	e590200c 	ldr	r2, [r0, #12]
80027714:	e92d0004 	stmfd	sp!, {r2}
80027718:	e92d1ff8 	push	{r3, r4, r5, r6, r7, r8, r9, sl, fp, ip}
8002771c:	e8900038 	ldm	r0, {r3, r4, r5}
80027720:	e92d0038 	push	{r3, r4, r5}
80027724:	e92d0002 	stmfd	sp!, {r1}
80027728:	e92d4000 	stmfd	sp!, {lr}
8002772c:	e94d6000 	stmdb	sp, {sp, lr}^
80027730:	e24dd008 	sub	sp, sp, #8
80027734:	e1a0000d 	mov	r0, sp
80027738:	eb000046 	bl	80027858 <irq_handler>
8002773c:	eaffffe4 	b	800276d4 <trapret>

80027740 <trap_reset>:
80027740:	e3a0e000 	mov	lr, #0
80027744:	e92d5fff 	push	{r0, r1, r2, r3, r4, r5, r6, r7, r8, r9, sl, fp, ip, lr}
80027748:	e14f2000 	mrs	r2, SPSR
8002774c:	e92d0004 	stmfd	sp!, {r2}
80027750:	e92d4000 	stmfd	sp!, {lr}
80027754:	e94d6000 	stmdb	sp, {sp, lr}^
80027758:	e24dd008 	sub	sp, sp, #8
8002775c:	e1a0000d 	mov	r0, sp
80027760:	eb00004e 	bl	800278a0 <reset_handler>
80027764:	eafffffe 	b	80027764 <trap_reset+0x24>

80027768 <trap_und>:
80027768:	e92d5fff 	push	{r0, r1, r2, r3, r4, r5, r6, r7, r8, r9, sl, fp, ip, lr}
8002776c:	e14f2000 	mrs	r2, SPSR
80027770:	e92d0004 	stmfd	sp!, {r2}
80027774:	e92d4000 	stmfd	sp!, {lr}
80027778:	e94d6000 	stmdb	sp, {sp, lr}^
8002777c:	e24dd008 	sub	sp, sp, #8
80027780:	e1a0000d 	mov	r0, sp
80027784:	eb000052 	bl	800278d4 <und_handler>
80027788:	eafffffe 	b	80027788 <trap_und+0x20>

8002778c <trap_iabort>:
8002778c:	e24ee004 	sub	lr, lr, #4
80027790:	e92d5fff 	push	{r0, r1, r2, r3, r4, r5, r6, r7, r8, r9, sl, fp, ip, lr}
80027794:	e14f2000 	mrs	r2, SPSR
80027798:	e92d0004 	stmfd	sp!, {r2}
8002779c:	e92d4000 	stmfd	sp!, {lr}
800277a0:	e94d6000 	stmdb	sp, {sp, lr}^
800277a4:	e24dd008 	sub	sp, sp, #8
800277a8:	e1a0000d 	mov	r0, sp
800277ac:	eb000093 	bl	80027a00 <iabort_handler>
800277b0:	eafffffe 	b	800277b0 <trap_iabort+0x24>

800277b4 <trap_dabort>:
800277b4:	e24ee008 	sub	lr, lr, #8
800277b8:	e92d5fff 	push	{r0, r1, r2, r3, r4, r5, r6, r7, r8, r9, sl, fp, ip, lr}
800277bc:	e14f2000 	mrs	r2, SPSR
800277c0:	e92d0004 	stmfd	sp!, {r2}
800277c4:	e92d4000 	stmfd	sp!, {lr}
800277c8:	e94d6000 	stmdb	sp, {sp, lr}^
800277cc:	e24dd008 	sub	sp, sp, #8
800277d0:	e1a0000d 	mov	r0, sp
800277d4:	eb00004b 	bl	80027908 <dabort_handler>
800277d8:	eafffffe 	b	800277d8 <trap_dabort+0x24>

800277dc <trap_na>:
800277dc:	e92d5fff 	push	{r0, r1, r2, r3, r4, r5, r6, r7, r8, r9, sl, fp, ip, lr}
800277e0:	e14f2000 	mrs	r2, SPSR
800277e4:	e92d0004 	stmfd	sp!, {r2}
800277e8:	e92d4000 	stmfd	sp!, {lr}
800277ec:	e94d6000 	stmdb	sp, {sp, lr}^
800277f0:	e24dd008 	sub	sp, sp, #8
800277f4:	e1a0000d 	mov	r0, sp
800277f8:	eb000092 	bl	80027a48 <na_handler>
800277fc:	eafffffe 	b	800277fc <trap_na+0x20>

80027800 <trap_fiq>:
80027800:	e24ee004 	sub	lr, lr, #4
80027804:	e92d5fff 	push	{r0, r1, r2, r3, r4, r5, r6, r7, r8, r9, sl, fp, ip, lr}
80027808:	e14f2000 	mrs	r2, SPSR
8002780c:	e92d0004 	stmfd	sp!, {r2}
80027810:	e92d4000 	stmfd	sp!, {lr}
80027814:	e94d6000 	stmdb	sp, {sp, lr}^
80027818:	e24dd008 	sub	sp, sp, #8
8002781c:	e1a0000d 	mov	r0, sp
80027820:	eb000095 	bl	80027a7c <fiq_handler>
80027824:	eafffffe 	b	80027824 <trap_fiq+0x24>

80027828 <swi_handler>:
80027828:	e92d4800 	push	{fp, lr}
8002782c:	e28db004 	add	fp, sp, #4
80027830:	e24dd008 	sub	sp, sp, #8
80027834:	e50b0008 	str	r0, [fp, #-8]
80027838:	e30d3608 	movw	r3, #54792	; 0xd608
8002783c:	e348300a 	movt	r3, #32778	; 0x800a
80027840:	e5933000 	ldr	r3, [r3]
80027844:	e51b2008 	ldr	r2, [fp, #-8]
80027848:	e5832018 	str	r2, [r3, #24]
8002784c:	ebfffab0 	bl	80026314 <syscall>
80027850:	e24bd004 	sub	sp, fp, #4
80027854:	e8bd8800 	pop	{fp, pc}

80027858 <irq_handler>:
80027858:	e92d4800 	push	{fp, lr}
8002785c:	e28db004 	add	fp, sp, #4
80027860:	e24dd008 	sub	sp, sp, #8
80027864:	e50b0008 	str	r0, [fp, #-8]
80027868:	e30d3608 	movw	r3, #54792	; 0xd608
8002786c:	e348300a 	movt	r3, #32778	; 0x800a
80027870:	e5933000 	ldr	r3, [r3]
80027874:	e3530000 	cmp	r3, #0
80027878:	0a000004 	beq	80027890 <irq_handler+0x38>
8002787c:	e30d3608 	movw	r3, #54792	; 0xd608
80027880:	e348300a 	movt	r3, #32778	; 0x800a
80027884:	e5933000 	ldr	r3, [r3]
80027888:	e51b2008 	ldr	r2, [fp, #-8]
8002788c:	e5832018 	str	r2, [r3, #24]
80027890:	e51b0008 	ldr	r0, [fp, #-8]
80027894:	eb000610 	bl	800290dc <pic_dispatch>
80027898:	e24bd004 	sub	sp, fp, #4
8002789c:	e8bd8800 	pop	{fp, pc}

800278a0 <reset_handler>:
800278a0:	e92d4800 	push	{fp, lr}
800278a4:	e28db004 	add	fp, sp, #4
800278a8:	e24dd008 	sub	sp, sp, #8
800278ac:	e50b0008 	str	r0, [fp, #-8]
800278b0:	ebffe321 	bl	8002053c <cli>
800278b4:	e51b3008 	ldr	r3, [fp, #-8]
800278b8:	e5933044 	ldr	r3, [r3, #68]	; 0x44
800278bc:	e3090918 	movw	r0, #39192	; 0x9918
800278c0:	e3480002 	movt	r0, #32770	; 0x8002
800278c4:	e1a01003 	mov	r1, r3
800278c8:	ebffe827 	bl	8002196c <cprintf>
800278cc:	e24bd004 	sub	sp, fp, #4
800278d0:	e8bd8800 	pop	{fp, pc}

800278d4 <und_handler>:
800278d4:	e92d4800 	push	{fp, lr}
800278d8:	e28db004 	add	fp, sp, #4
800278dc:	e24dd008 	sub	sp, sp, #8
800278e0:	e50b0008 	str	r0, [fp, #-8]
800278e4:	ebffe314 	bl	8002053c <cli>
800278e8:	e51b3008 	ldr	r3, [fp, #-8]
800278ec:	e5933044 	ldr	r3, [r3, #68]	; 0x44
800278f0:	e309092c 	movw	r0, #39212	; 0x992c
800278f4:	e3480002 	movt	r0, #32770	; 0x8002
800278f8:	e1a01003 	mov	r1, r3
800278fc:	ebffe81a 	bl	8002196c <cprintf>
80027900:	e24bd004 	sub	sp, fp, #4
80027904:	e8bd8800 	pop	{fp, pc}

80027908 <dabort_handler>:
80027908:	e92d4800 	push	{fp, lr}
8002790c:	e28db004 	add	fp, sp, #4
80027910:	e24dd018 	sub	sp, sp, #24
80027914:	e50b0010 	str	r0, [fp, #-16]
80027918:	e30d3608 	movw	r3, #54792	; 0xd608
8002791c:	e348300a 	movt	r3, #32778	; 0x800a
80027920:	e5933000 	ldr	r3, [r3]
80027924:	e3530000 	cmp	r3, #0
80027928:	1a000017 	bne	8002798c <dabort_handler+0x84>
8002792c:	e51b3010 	ldr	r3, [fp, #-16]
80027930:	e5932008 	ldr	r2, [r3, #8]
80027934:	e51b3010 	ldr	r3, [fp, #-16]
80027938:	e5933044 	ldr	r3, [r3, #68]	; 0x44
8002793c:	e1520003 	cmp	r2, r3
80027940:	1a000011 	bne	8002798c <dabort_handler+0x84>
80027944:	ebffe2fc 	bl	8002053c <cli>
80027948:	ee153f10 	mrc	15, 0, r3, cr5, cr0, {0}
8002794c:	e50b3008 	str	r3, [fp, #-8]
80027950:	ee163f10 	mrc	15, 0, r3, cr6, cr0, {0}
80027954:	e50b300c 	str	r3, [fp, #-12]
80027958:	e51b3010 	ldr	r3, [fp, #-16]
8002795c:	e5933044 	ldr	r3, [r3, #68]	; 0x44
80027960:	e309093c 	movw	r0, #39228	; 0x993c
80027964:	e3480002 	movt	r0, #32770	; 0x8002
80027968:	e1a01003 	mov	r1, r3
8002796c:	e51b200c 	ldr	r2, [fp, #-12]
80027970:	e51b3008 	ldr	r3, [fp, #-8]
80027974:	ebffe7fc 	bl	8002196c <cprintf>
80027978:	e51b0010 	ldr	r0, [fp, #-16]
8002797c:	eb0000cb 	bl	80027cb0 <dump_trapframe>
80027980:	e309097c 	movw	r0, #39292	; 0x997c
80027984:	e3480002 	movt	r0, #32770	; 0x8002
80027988:	ebffe39e 	bl	80020808 <show_callstk>
8002798c:	ee153f10 	mrc	15, 0, r3, cr5, cr0, {0}
80027990:	e50b3008 	str	r3, [fp, #-8]
80027994:	ee163f10 	mrc	15, 0, r3, cr6, cr0, {0}
80027998:	e50b300c 	str	r3, [fp, #-12]
8002799c:	e30d3608 	movw	r3, #54792	; 0xd608
800279a0:	e348300a 	movt	r3, #32778	; 0x800a
800279a4:	e5933000 	ldr	r3, [r3]
800279a8:	e5931010 	ldr	r1, [r3, #16]
800279ac:	e30d3608 	movw	r3, #54792	; 0xd608
800279b0:	e348300a 	movt	r3, #32778	; 0x800a
800279b4:	e5933000 	ldr	r3, [r3]
800279b8:	e283206c 	add	r2, r3, #108	; 0x6c
800279bc:	e51b3010 	ldr	r3, [fp, #-16]
800279c0:	e5933044 	ldr	r3, [r3, #68]	; 0x44
800279c4:	e51b000c 	ldr	r0, [fp, #-12]
800279c8:	e58d0000 	str	r0, [sp]
800279cc:	e51b0008 	ldr	r0, [fp, #-8]
800279d0:	e58d0004 	str	r0, [sp, #4]
800279d4:	e309099c 	movw	r0, #39324	; 0x999c
800279d8:	e3480002 	movt	r0, #32770	; 0x8002
800279dc:	ebffe7e2 	bl	8002196c <cprintf>
800279e0:	e30d3608 	movw	r3, #54792	; 0xd608
800279e4:	e348300a 	movt	r3, #32778	; 0x800a
800279e8:	e5933000 	ldr	r3, [r3]
800279ec:	e3a02001 	mov	r2, #1
800279f0:	e5832024 	str	r2, [r3, #36]	; 0x24
800279f4:	ebfff736 	bl	800256d4 <exit>
800279f8:	e24bd004 	sub	sp, fp, #4
800279fc:	e8bd8800 	pop	{fp, pc}

80027a00 <iabort_handler>:
80027a00:	e92d4800 	push	{fp, lr}
80027a04:	e28db004 	add	fp, sp, #4
80027a08:	e24dd010 	sub	sp, sp, #16
80027a0c:	e50b0010 	str	r0, [fp, #-16]
80027a10:	ee153f10 	mrc	15, 0, r3, cr5, cr0, {0}
80027a14:	e50b3008 	str	r3, [fp, #-8]
80027a18:	ebffe2c7 	bl	8002053c <cli>
80027a1c:	e51b3010 	ldr	r3, [fp, #-16]
80027a20:	e5933044 	ldr	r3, [r3, #68]	; 0x44
80027a24:	e30909e4 	movw	r0, #39396	; 0x99e4
80027a28:	e3480002 	movt	r0, #32770	; 0x8002
80027a2c:	e1a01003 	mov	r1, r3
80027a30:	e51b2008 	ldr	r2, [fp, #-8]
80027a34:	ebffe7cc 	bl	8002196c <cprintf>
80027a38:	e51b0010 	ldr	r0, [fp, #-16]
80027a3c:	eb00009b 	bl	80027cb0 <dump_trapframe>
80027a40:	e24bd004 	sub	sp, fp, #4
80027a44:	e8bd8800 	pop	{fp, pc}

80027a48 <na_handler>:
80027a48:	e92d4800 	push	{fp, lr}
80027a4c:	e28db004 	add	fp, sp, #4
80027a50:	e24dd008 	sub	sp, sp, #8
80027a54:	e50b0008 	str	r0, [fp, #-8]
80027a58:	ebffe2b7 	bl	8002053c <cli>
80027a5c:	e51b3008 	ldr	r3, [fp, #-8]
80027a60:	e5933044 	ldr	r3, [r3, #68]	; 0x44
80027a64:	e3090a0c 	movw	r0, #39436	; 0x9a0c
80027a68:	e3480002 	movt	r0, #32770	; 0x8002
80027a6c:	e1a01003 	mov	r1, r3
80027a70:	ebffe7bd 	bl	8002196c <cprintf>
80027a74:	e24bd004 	sub	sp, fp, #4
80027a78:	e8bd8800 	pop	{fp, pc}

80027a7c <fiq_handler>:
80027a7c:	e92d4800 	push	{fp, lr}
80027a80:	e28db004 	add	fp, sp, #4
80027a84:	e24dd008 	sub	sp, sp, #8
80027a88:	e50b0008 	str	r0, [fp, #-8]
80027a8c:	ebffe2aa 	bl	8002053c <cli>
80027a90:	e51b3008 	ldr	r3, [fp, #-8]
80027a94:	e5933044 	ldr	r3, [r3, #68]	; 0x44
80027a98:	e3090a1c 	movw	r0, #39452	; 0x9a1c
80027a9c:	e3480002 	movt	r0, #32770	; 0x8002
80027aa0:	e1a01003 	mov	r1, r3
80027aa4:	ebffe7b0 	bl	8002196c <cprintf>
80027aa8:	e24bd004 	sub	sp, fp, #4
80027aac:	e8bd8800 	pop	{fp, pc}

80027ab0 <trap_init>:
80027ab0:	e92d4800 	push	{fp, lr}
80027ab4:	e28db004 	add	fp, sp, #4
80027ab8:	e24dd020 	sub	sp, sp, #32
80027abc:	e3093a54 	movw	r3, #39508	; 0x9a54
80027ac0:	e3483002 	movt	r3, #32770	; 0x8002
80027ac4:	e24bc020 	sub	ip, fp, #32
80027ac8:	e893000f 	ldm	r3, {r0, r1, r2, r3}
80027acc:	e88c000f 	stm	ip, {r0, r1, r2, r3}
80027ad0:	e3a03000 	mov	r3, #0
80027ad4:	e34f3fff 	movt	r3, #65535	; 0xffff
80027ad8:	e50b300c 	str	r3, [fp, #-12]
80027adc:	e3a03a0f 	mov	r3, #61440	; 0xf000
80027ae0:	e34e359f 	movt	r3, #58783	; 0xe59f
80027ae4:	e3832018 	orr	r2, r3, #24
80027ae8:	e51b300c 	ldr	r3, [fp, #-12]
80027aec:	e5832000 	str	r2, [r3]
80027af0:	e51b300c 	ldr	r3, [fp, #-12]
80027af4:	e2832004 	add	r2, r3, #4
80027af8:	e3a03a0f 	mov	r3, #61440	; 0xf000
80027afc:	e34e359f 	movt	r3, #58783	; 0xe59f
80027b00:	e3833018 	orr	r3, r3, #24
80027b04:	e5823000 	str	r3, [r2]
80027b08:	e51b300c 	ldr	r3, [fp, #-12]
80027b0c:	e2832008 	add	r2, r3, #8
80027b10:	e3a03a0f 	mov	r3, #61440	; 0xf000
80027b14:	e34e359f 	movt	r3, #58783	; 0xe59f
80027b18:	e3833018 	orr	r3, r3, #24
80027b1c:	e5823000 	str	r3, [r2]
80027b20:	e51b300c 	ldr	r3, [fp, #-12]
80027b24:	e283200c 	add	r2, r3, #12
80027b28:	e3a03a0f 	mov	r3, #61440	; 0xf000
80027b2c:	e34e359f 	movt	r3, #58783	; 0xe59f
80027b30:	e3833018 	orr	r3, r3, #24
80027b34:	e5823000 	str	r3, [r2]
80027b38:	e51b300c 	ldr	r3, [fp, #-12]
80027b3c:	e2832010 	add	r2, r3, #16
80027b40:	e3a03a0f 	mov	r3, #61440	; 0xf000
80027b44:	e34e359f 	movt	r3, #58783	; 0xe59f
80027b48:	e3833018 	orr	r3, r3, #24
80027b4c:	e5823000 	str	r3, [r2]
80027b50:	e51b300c 	ldr	r3, [fp, #-12]
80027b54:	e2832014 	add	r2, r3, #20
80027b58:	e3a03a0f 	mov	r3, #61440	; 0xf000
80027b5c:	e34e359f 	movt	r3, #58783	; 0xe59f
80027b60:	e3833018 	orr	r3, r3, #24
80027b64:	e5823000 	str	r3, [r2]
80027b68:	e51b300c 	ldr	r3, [fp, #-12]
80027b6c:	e2832018 	add	r2, r3, #24
80027b70:	e3a03a0f 	mov	r3, #61440	; 0xf000
80027b74:	e34e359f 	movt	r3, #58783	; 0xe59f
80027b78:	e3833018 	orr	r3, r3, #24
80027b7c:	e5823000 	str	r3, [r2]
80027b80:	e51b300c 	ldr	r3, [fp, #-12]
80027b84:	e283201c 	add	r2, r3, #28
80027b88:	e3a03a0f 	mov	r3, #61440	; 0xf000
80027b8c:	e34e359f 	movt	r3, #58783	; 0xe59f
80027b90:	e3833018 	orr	r3, r3, #24
80027b94:	e5823000 	str	r3, [r2]
80027b98:	e51b300c 	ldr	r3, [fp, #-12]
80027b9c:	e2832020 	add	r2, r3, #32
80027ba0:	e3073740 	movw	r3, #30528	; 0x7740
80027ba4:	e3483002 	movt	r3, #32770	; 0x8002
80027ba8:	e5823000 	str	r3, [r2]
80027bac:	e51b300c 	ldr	r3, [fp, #-12]
80027bb0:	e2832024 	add	r2, r3, #36	; 0x24
80027bb4:	e3073768 	movw	r3, #30568	; 0x7768
80027bb8:	e3483002 	movt	r3, #32770	; 0x8002
80027bbc:	e5823000 	str	r3, [r2]
80027bc0:	e51b300c 	ldr	r3, [fp, #-12]
80027bc4:	e2832028 	add	r2, r3, #40	; 0x28
80027bc8:	e30736b4 	movw	r3, #30388	; 0x76b4
80027bcc:	e3483002 	movt	r3, #32770	; 0x8002
80027bd0:	e5823000 	str	r3, [r2]
80027bd4:	e51b300c 	ldr	r3, [fp, #-12]
80027bd8:	e283202c 	add	r2, r3, #44	; 0x2c
80027bdc:	e307378c 	movw	r3, #30604	; 0x778c
80027be0:	e3483002 	movt	r3, #32770	; 0x8002
80027be4:	e5823000 	str	r3, [r2]
80027be8:	e51b300c 	ldr	r3, [fp, #-12]
80027bec:	e2832030 	add	r2, r3, #48	; 0x30
80027bf0:	e30737b4 	movw	r3, #30644	; 0x77b4
80027bf4:	e3483002 	movt	r3, #32770	; 0x8002
80027bf8:	e5823000 	str	r3, [r2]
80027bfc:	e51b300c 	ldr	r3, [fp, #-12]
80027c00:	e2832034 	add	r2, r3, #52	; 0x34
80027c04:	e30737dc 	movw	r3, #30684	; 0x77dc
80027c08:	e3483002 	movt	r3, #32770	; 0x8002
80027c0c:	e5823000 	str	r3, [r2]
80027c10:	e51b300c 	ldr	r3, [fp, #-12]
80027c14:	e2832038 	add	r2, r3, #56	; 0x38
80027c18:	e30736ec 	movw	r3, #30444	; 0x76ec
80027c1c:	e3483002 	movt	r3, #32770	; 0x8002
80027c20:	e5823000 	str	r3, [r2]
80027c24:	e51b300c 	ldr	r3, [fp, #-12]
80027c28:	e283203c 	add	r2, r3, #60	; 0x3c
80027c2c:	e3073800 	movw	r3, #30720	; 0x7800
80027c30:	e3483002 	movt	r3, #32770	; 0x8002
80027c34:	e5823000 	str	r3, [r2]
80027c38:	e3a03000 	mov	r3, #0
80027c3c:	e50b3008 	str	r3, [fp, #-8]
80027c40:	ea000015 	b	80027c9c <trap_init+0x1ec>
80027c44:	ebffe680 	bl	8002164c <alloc_page>
80027c48:	e50b0010 	str	r0, [fp, #-16]
80027c4c:	e51b3010 	ldr	r3, [fp, #-16]
80027c50:	e3530000 	cmp	r3, #0
80027c54:	1a000002 	bne	80027c64 <trap_init+0x1b4>
80027c58:	e3090a2c 	movw	r0, #39468	; 0x9a2c
80027c5c:	e3480002 	movt	r0, #32770	; 0x8002
80027c60:	ebffe7c3 	bl	80021b74 <panic>
80027c64:	e51b2008 	ldr	r2, [fp, #-8]
80027c68:	e3e0301b 	mvn	r3, #27
80027c6c:	e1a02102 	lsl	r2, r2, #2
80027c70:	e24b1004 	sub	r1, fp, #4
80027c74:	e0812002 	add	r2, r1, r2
80027c78:	e0823003 	add	r3, r2, r3
80027c7c:	e5932000 	ldr	r2, [r3]
80027c80:	e51b3010 	ldr	r3, [fp, #-16]
80027c84:	e1a00002 	mov	r0, r2
80027c88:	e1a01003 	mov	r1, r3
80027c8c:	ebffe304 	bl	800208a4 <set_stk>
80027c90:	e51b3008 	ldr	r3, [fp, #-8]
80027c94:	e2833001 	add	r3, r3, #1
80027c98:	e50b3008 	str	r3, [fp, #-8]
80027c9c:	e51b3008 	ldr	r3, [fp, #-8]
80027ca0:	e3530003 	cmp	r3, #3
80027ca4:	9affffe6 	bls	80027c44 <trap_init+0x194>
80027ca8:	e24bd004 	sub	sp, fp, #4
80027cac:	e8bd8800 	pop	{fp, pc}

80027cb0 <dump_trapframe>:
80027cb0:	e92d4800 	push	{fp, lr}
80027cb4:	e28db004 	add	fp, sp, #4
80027cb8:	e24dd008 	sub	sp, sp, #8
80027cbc:	e50b0008 	str	r0, [fp, #-8]
80027cc0:	e51b3008 	ldr	r3, [fp, #-8]
80027cc4:	e5933008 	ldr	r3, [r3, #8]
80027cc8:	e3090a64 	movw	r0, #39524	; 0x9a64
80027ccc:	e3480002 	movt	r0, #32770	; 0x8002
80027cd0:	e1a01003 	mov	r1, r3
80027cd4:	ebffe724 	bl	8002196c <cprintf>
80027cd8:	e51b3008 	ldr	r3, [fp, #-8]
80027cdc:	e593300c 	ldr	r3, [r3, #12]
80027ce0:	e3090a74 	movw	r0, #39540	; 0x9a74
80027ce4:	e3480002 	movt	r0, #32770	; 0x8002
80027ce8:	e1a01003 	mov	r1, r3
80027cec:	ebffe71e 	bl	8002196c <cprintf>
80027cf0:	e51b3008 	ldr	r3, [fp, #-8]
80027cf4:	e5933010 	ldr	r3, [r3, #16]
80027cf8:	e3090a84 	movw	r0, #39556	; 0x9a84
80027cfc:	e3480002 	movt	r0, #32770	; 0x8002
80027d00:	e1a01003 	mov	r1, r3
80027d04:	ebffe718 	bl	8002196c <cprintf>
80027d08:	e51b3008 	ldr	r3, [fp, #-8]
80027d0c:	e5933014 	ldr	r3, [r3, #20]
80027d10:	e3090a94 	movw	r0, #39572	; 0x9a94
80027d14:	e3480002 	movt	r0, #32770	; 0x8002
80027d18:	e1a01003 	mov	r1, r3
80027d1c:	ebffe712 	bl	8002196c <cprintf>
80027d20:	e51b3008 	ldr	r3, [fp, #-8]
80027d24:	e5933018 	ldr	r3, [r3, #24]
80027d28:	e3090aa4 	movw	r0, #39588	; 0x9aa4
80027d2c:	e3480002 	movt	r0, #32770	; 0x8002
80027d30:	e1a01003 	mov	r1, r3
80027d34:	ebffe70c 	bl	8002196c <cprintf>
80027d38:	e51b3008 	ldr	r3, [fp, #-8]
80027d3c:	e593301c 	ldr	r3, [r3, #28]
80027d40:	e3090ab4 	movw	r0, #39604	; 0x9ab4
80027d44:	e3480002 	movt	r0, #32770	; 0x8002
80027d48:	e1a01003 	mov	r1, r3
80027d4c:	ebffe706 	bl	8002196c <cprintf>
80027d50:	e51b3008 	ldr	r3, [fp, #-8]
80027d54:	e5933020 	ldr	r3, [r3, #32]
80027d58:	e3090ac4 	movw	r0, #39620	; 0x9ac4
80027d5c:	e3480002 	movt	r0, #32770	; 0x8002
80027d60:	e1a01003 	mov	r1, r3
80027d64:	ebffe700 	bl	8002196c <cprintf>
80027d68:	e51b3008 	ldr	r3, [fp, #-8]
80027d6c:	e5933024 	ldr	r3, [r3, #36]	; 0x24
80027d70:	e3090ad4 	movw	r0, #39636	; 0x9ad4
80027d74:	e3480002 	movt	r0, #32770	; 0x8002
80027d78:	e1a01003 	mov	r1, r3
80027d7c:	ebffe6fa 	bl	8002196c <cprintf>
80027d80:	e51b3008 	ldr	r3, [fp, #-8]
80027d84:	e5933028 	ldr	r3, [r3, #40]	; 0x28
80027d88:	e3090ae4 	movw	r0, #39652	; 0x9ae4
80027d8c:	e3480002 	movt	r0, #32770	; 0x8002
80027d90:	e1a01003 	mov	r1, r3
80027d94:	ebffe6f4 	bl	8002196c <cprintf>
80027d98:	e51b3008 	ldr	r3, [fp, #-8]
80027d9c:	e593302c 	ldr	r3, [r3, #44]	; 0x2c
80027da0:	e3090af4 	movw	r0, #39668	; 0x9af4
80027da4:	e3480002 	movt	r0, #32770	; 0x8002
80027da8:	e1a01003 	mov	r1, r3
80027dac:	ebffe6ee 	bl	8002196c <cprintf>
80027db0:	e51b3008 	ldr	r3, [fp, #-8]
80027db4:	e5933030 	ldr	r3, [r3, #48]	; 0x30
80027db8:	e3090b04 	movw	r0, #39684	; 0x9b04
80027dbc:	e3480002 	movt	r0, #32770	; 0x8002
80027dc0:	e1a01003 	mov	r1, r3
80027dc4:	ebffe6e8 	bl	8002196c <cprintf>
80027dc8:	e51b3008 	ldr	r3, [fp, #-8]
80027dcc:	e5933034 	ldr	r3, [r3, #52]	; 0x34
80027dd0:	e3090b14 	movw	r0, #39700	; 0x9b14
80027dd4:	e3480002 	movt	r0, #32770	; 0x8002
80027dd8:	e1a01003 	mov	r1, r3
80027ddc:	ebffe6e2 	bl	8002196c <cprintf>
80027de0:	e51b3008 	ldr	r3, [fp, #-8]
80027de4:	e5933038 	ldr	r3, [r3, #56]	; 0x38
80027de8:	e3090b24 	movw	r0, #39716	; 0x9b24
80027dec:	e3480002 	movt	r0, #32770	; 0x8002
80027df0:	e1a01003 	mov	r1, r3
80027df4:	ebffe6dc 	bl	8002196c <cprintf>
80027df8:	e51b3008 	ldr	r3, [fp, #-8]
80027dfc:	e593303c 	ldr	r3, [r3, #60]	; 0x3c
80027e00:	e3090b34 	movw	r0, #39732	; 0x9b34
80027e04:	e3480002 	movt	r0, #32770	; 0x8002
80027e08:	e1a01003 	mov	r1, r3
80027e0c:	ebffe6d6 	bl	8002196c <cprintf>
80027e10:	e51b3008 	ldr	r3, [fp, #-8]
80027e14:	e5933040 	ldr	r3, [r3, #64]	; 0x40
80027e18:	e3090b44 	movw	r0, #39748	; 0x9b44
80027e1c:	e3480002 	movt	r0, #32770	; 0x8002
80027e20:	e1a01003 	mov	r1, r3
80027e24:	ebffe6d0 	bl	8002196c <cprintf>
80027e28:	e51b3008 	ldr	r3, [fp, #-8]
80027e2c:	e5933044 	ldr	r3, [r3, #68]	; 0x44
80027e30:	e3090b54 	movw	r0, #39764	; 0x9b54
80027e34:	e3480002 	movt	r0, #32770	; 0x8002
80027e38:	e1a01003 	mov	r1, r3
80027e3c:	ebffe6ca 	bl	8002196c <cprintf>
80027e40:	e24bd004 	sub	sp, fp, #4
80027e44:	e8bd8800 	pop	{fp, pc}

80027e48 <v2p>:
80027e48:	e52db004 	push	{fp}		; (str fp, [sp, #-4]!)
80027e4c:	e28db000 	add	fp, sp, #0
80027e50:	e24dd00c 	sub	sp, sp, #12
80027e54:	e50b0008 	str	r0, [fp, #-8]
80027e58:	e51b3008 	ldr	r3, [fp, #-8]
80027e5c:	e2833102 	add	r3, r3, #-2147483648	; 0x80000000
80027e60:	e1a00003 	mov	r0, r3
80027e64:	e24bd000 	sub	sp, fp, #0
80027e68:	e49db004 	pop	{fp}		; (ldr fp, [sp], #4)
80027e6c:	e12fff1e 	bx	lr

80027e70 <p2v>:
80027e70:	e52db004 	push	{fp}		; (str fp, [sp, #-4]!)
80027e74:	e28db000 	add	fp, sp, #0
80027e78:	e24dd00c 	sub	sp, sp, #12
80027e7c:	e50b0008 	str	r0, [fp, #-8]
80027e80:	e51b3008 	ldr	r3, [fp, #-8]
80027e84:	e2833102 	add	r3, r3, #-2147483648	; 0x80000000
80027e88:	e1a00003 	mov	r0, r3
80027e8c:	e24bd000 	sub	sp, fp, #0
80027e90:	e49db004 	pop	{fp}		; (ldr fp, [sp], #4)
80027e94:	e12fff1e 	bx	lr

80027e98 <init_vmm>:
80027e98:	e92d4800 	push	{fp, lr}
80027e9c:	e28db004 	add	fp, sp, #4
80027ea0:	e30f0544 	movw	r0, #62788	; 0xf544
80027ea4:	e348000a 	movt	r0, #32778	; 0x800a
80027ea8:	e3091b68 	movw	r1, #39784	; 0x9b68
80027eac:	e3481002 	movt	r1, #32770	; 0x8002
80027eb0:	ebfff839 	bl	80025f9c <initlock>
80027eb4:	e30f3544 	movw	r3, #62788	; 0xf544
80027eb8:	e348300a 	movt	r3, #32778	; 0x800a
80027ebc:	e3a02000 	mov	r2, #0
80027ec0:	e5832034 	str	r2, [r3, #52]	; 0x34
80027ec4:	e8bd8800 	pop	{fp, pc}

80027ec8 <_kpt_free>:
80027ec8:	e52db004 	push	{fp}		; (str fp, [sp, #-4]!)
80027ecc:	e28db000 	add	fp, sp, #0
80027ed0:	e24dd014 	sub	sp, sp, #20
80027ed4:	e50b0010 	str	r0, [fp, #-16]
80027ed8:	e51b3010 	ldr	r3, [fp, #-16]
80027edc:	e50b3008 	str	r3, [fp, #-8]
80027ee0:	e30f3544 	movw	r3, #62788	; 0xf544
80027ee4:	e348300a 	movt	r3, #32778	; 0x800a
80027ee8:	e5932034 	ldr	r2, [r3, #52]	; 0x34
80027eec:	e51b3008 	ldr	r3, [fp, #-8]
80027ef0:	e5832000 	str	r2, [r3]
80027ef4:	e30f3544 	movw	r3, #62788	; 0xf544
80027ef8:	e348300a 	movt	r3, #32778	; 0x800a
80027efc:	e51b2008 	ldr	r2, [fp, #-8]
80027f00:	e5832034 	str	r2, [r3, #52]	; 0x34
80027f04:	e24bd000 	sub	sp, fp, #0
80027f08:	e49db004 	pop	{fp}		; (ldr fp, [sp], #4)
80027f0c:	e12fff1e 	bx	lr

80027f10 <kpt_free>:
80027f10:	e92d4800 	push	{fp, lr}
80027f14:	e28db004 	add	fp, sp, #4
80027f18:	e24dd008 	sub	sp, sp, #8
80027f1c:	e50b0008 	str	r0, [fp, #-8]
80027f20:	e51b2008 	ldr	r2, [fp, #-8]
80027f24:	e30f3fff 	movw	r3, #65535	; 0xffff
80027f28:	e348300f 	movt	r3, #32783	; 0x800f
80027f2c:	e1520003 	cmp	r2, r3
80027f30:	9a000003 	bls	80027f44 <kpt_free+0x34>
80027f34:	e51b0008 	ldr	r0, [fp, #-8]
80027f38:	e3a0100a 	mov	r1, #10
80027f3c:	ebffe597 	bl	800215a0 <kfree>
80027f40:	ea000007 	b	80027f64 <kpt_free+0x54>
80027f44:	e30f0544 	movw	r0, #62788	; 0xf544
80027f48:	e348000a 	movt	r0, #32778	; 0x800a
80027f4c:	ebfff823 	bl	80025fe0 <acquire>
80027f50:	e51b0008 	ldr	r0, [fp, #-8]
80027f54:	ebffffdb 	bl	80027ec8 <_kpt_free>
80027f58:	e30f0544 	movw	r0, #62788	; 0xf544
80027f5c:	e348000a 	movt	r0, #32778	; 0x800a
80027f60:	ebfff828 	bl	80026008 <release>
80027f64:	e24bd004 	sub	sp, fp, #4
80027f68:	e8bd8800 	pop	{fp, pc}

80027f6c <kpt_freerange>:
80027f6c:	e92d4800 	push	{fp, lr}
80027f70:	e28db004 	add	fp, sp, #4
80027f74:	e24dd008 	sub	sp, sp, #8
80027f78:	e50b0008 	str	r0, [fp, #-8]
80027f7c:	e50b100c 	str	r1, [fp, #-12]
80027f80:	ea000005 	b	80027f9c <kpt_freerange+0x30>
80027f84:	e51b3008 	ldr	r3, [fp, #-8]
80027f88:	e1a00003 	mov	r0, r3
80027f8c:	ebffffcd 	bl	80027ec8 <_kpt_free>
80027f90:	e51b3008 	ldr	r3, [fp, #-8]
80027f94:	e2833b01 	add	r3, r3, #1024	; 0x400
80027f98:	e50b3008 	str	r3, [fp, #-8]
80027f9c:	e51b2008 	ldr	r2, [fp, #-8]
80027fa0:	e51b300c 	ldr	r3, [fp, #-12]
80027fa4:	e1520003 	cmp	r2, r3
80027fa8:	3afffff5 	bcc	80027f84 <kpt_freerange+0x18>
80027fac:	e24bd004 	sub	sp, fp, #4
80027fb0:	e8bd8800 	pop	{fp, pc}

80027fb4 <kpt_alloc>:
80027fb4:	e92d4800 	push	{fp, lr}
80027fb8:	e28db004 	add	fp, sp, #4
80027fbc:	e24dd008 	sub	sp, sp, #8
80027fc0:	e30f0544 	movw	r0, #62788	; 0xf544
80027fc4:	e348000a 	movt	r0, #32778	; 0x800a
80027fc8:	ebfff804 	bl	80025fe0 <acquire>
80027fcc:	e30f3544 	movw	r3, #62788	; 0xf544
80027fd0:	e348300a 	movt	r3, #32778	; 0x800a
80027fd4:	e5933034 	ldr	r3, [r3, #52]	; 0x34
80027fd8:	e50b3008 	str	r3, [fp, #-8]
80027fdc:	e51b3008 	ldr	r3, [fp, #-8]
80027fe0:	e3530000 	cmp	r3, #0
80027fe4:	0a000004 	beq	80027ffc <kpt_alloc+0x48>
80027fe8:	e51b3008 	ldr	r3, [fp, #-8]
80027fec:	e5932000 	ldr	r2, [r3]
80027ff0:	e30f3544 	movw	r3, #62788	; 0xf544
80027ff4:	e348300a 	movt	r3, #32778	; 0x800a
80027ff8:	e5832034 	str	r2, [r3, #52]	; 0x34
80027ffc:	e30f0544 	movw	r0, #62788	; 0xf544
80028000:	e348000a 	movt	r0, #32778	; 0x800a
80028004:	ebfff7ff 	bl	80026008 <release>
80028008:	e51b3008 	ldr	r3, [fp, #-8]
8002800c:	e3530000 	cmp	r3, #0
80028010:	1a000008 	bne	80028038 <kpt_alloc+0x84>
80028014:	e3a0000a 	mov	r0, #10
80028018:	ebffe50a 	bl	80021448 <kmalloc>
8002801c:	e50b0008 	str	r0, [fp, #-8]
80028020:	e51b3008 	ldr	r3, [fp, #-8]
80028024:	e3530000 	cmp	r3, #0
80028028:	1a000002 	bne	80028038 <kpt_alloc+0x84>
8002802c:	e3090b6c 	movw	r0, #39788	; 0x9b6c
80028030:	e3480002 	movt	r0, #32770	; 0x8002
80028034:	ebffe6ce 	bl	80021b74 <panic>
80028038:	e51b0008 	ldr	r0, [fp, #-8]
8002803c:	e3a01000 	mov	r1, #0
80028040:	e3a02b01 	mov	r2, #1024	; 0x400
80028044:	ebffdfed 	bl	80020000 <memset>
80028048:	e51b3008 	ldr	r3, [fp, #-8]
8002804c:	e1a00003 	mov	r0, r3
80028050:	e24bd004 	sub	sp, fp, #4
80028054:	e8bd8800 	pop	{fp, pc}

80028058 <walkpgdir>:
80028058:	e92d4800 	push	{fp, lr}
8002805c:	e28db004 	add	fp, sp, #4
80028060:	e24dd018 	sub	sp, sp, #24
80028064:	e50b0010 	str	r0, [fp, #-16]
80028068:	e50b1014 	str	r1, [fp, #-20]	; 0xffffffec
8002806c:	e50b2018 	str	r2, [fp, #-24]	; 0xffffffe8
80028070:	e51b3014 	ldr	r3, [fp, #-20]	; 0xffffffec
80028074:	e1a03a23 	lsr	r3, r3, #20
80028078:	e1a03103 	lsl	r3, r3, #2
8002807c:	e51b2010 	ldr	r2, [fp, #-16]
80028080:	e0823003 	add	r3, r2, r3
80028084:	e50b300c 	str	r3, [fp, #-12]
80028088:	e51b300c 	ldr	r3, [fp, #-12]
8002808c:	e5933000 	ldr	r3, [r3]
80028090:	e2033003 	and	r3, r3, #3
80028094:	e3530000 	cmp	r3, #0
80028098:	0a000007 	beq	800280bc <walkpgdir+0x64>
8002809c:	e51b300c 	ldr	r3, [fp, #-12]
800280a0:	e5933000 	ldr	r3, [r3]
800280a4:	e3c33fff 	bic	r3, r3, #1020	; 0x3fc
800280a8:	e3c33003 	bic	r3, r3, #3
800280ac:	e1a00003 	mov	r0, r3
800280b0:	ebffff6e 	bl	80027e70 <p2v>
800280b4:	e50b0008 	str	r0, [fp, #-8]
800280b8:	ea000013 	b	8002810c <walkpgdir+0xb4>
800280bc:	e51b3018 	ldr	r3, [fp, #-24]	; 0xffffffe8
800280c0:	e3530000 	cmp	r3, #0
800280c4:	0a000004 	beq	800280dc <walkpgdir+0x84>
800280c8:	ebffffb9 	bl	80027fb4 <kpt_alloc>
800280cc:	e50b0008 	str	r0, [fp, #-8]
800280d0:	e51b3008 	ldr	r3, [fp, #-8]
800280d4:	e3530000 	cmp	r3, #0
800280d8:	1a000001 	bne	800280e4 <walkpgdir+0x8c>
800280dc:	e3a03000 	mov	r3, #0
800280e0:	ea00000f 	b	80028124 <walkpgdir+0xcc>
800280e4:	e51b0008 	ldr	r0, [fp, #-8]
800280e8:	e3a01000 	mov	r1, #0
800280ec:	e3a02b01 	mov	r2, #1024	; 0x400
800280f0:	ebffdfc2 	bl	80020000 <memset>
800280f4:	e51b0008 	ldr	r0, [fp, #-8]
800280f8:	ebffff52 	bl	80027e48 <v2p>
800280fc:	e1a03000 	mov	r3, r0
80028100:	e3832001 	orr	r2, r3, #1
80028104:	e51b300c 	ldr	r3, [fp, #-12]
80028108:	e5832000 	str	r2, [r3]
8002810c:	e51b3014 	ldr	r3, [fp, #-20]	; 0xffffffec
80028110:	e1a03623 	lsr	r3, r3, #12
80028114:	e6ef3073 	uxtb	r3, r3
80028118:	e1a03103 	lsl	r3, r3, #2
8002811c:	e51b2008 	ldr	r2, [fp, #-8]
80028120:	e0823003 	add	r3, r2, r3
80028124:	e1a00003 	mov	r0, r3
80028128:	e24bd004 	sub	sp, fp, #4
8002812c:	e8bd8800 	pop	{fp, pc}

80028130 <mappages>:
80028130:	e92d4800 	push	{fp, lr}
80028134:	e28db004 	add	fp, sp, #4
80028138:	e24dd020 	sub	sp, sp, #32
8002813c:	e50b0018 	str	r0, [fp, #-24]	; 0xffffffe8
80028140:	e50b101c 	str	r1, [fp, #-28]	; 0xffffffe4
80028144:	e50b2020 	str	r2, [fp, #-32]	; 0xffffffe0
80028148:	e50b3024 	str	r3, [fp, #-36]	; 0xffffffdc
8002814c:	e51b301c 	ldr	r3, [fp, #-28]	; 0xffffffe4
80028150:	e3c33eff 	bic	r3, r3, #4080	; 0xff0
80028154:	e3c3300f 	bic	r3, r3, #15
80028158:	e50b3008 	str	r3, [fp, #-8]
8002815c:	e51b201c 	ldr	r2, [fp, #-28]	; 0xffffffe4
80028160:	e51b3020 	ldr	r3, [fp, #-32]	; 0xffffffe0
80028164:	e0823003 	add	r3, r2, r3
80028168:	e2433001 	sub	r3, r3, #1
8002816c:	e3c33eff 	bic	r3, r3, #4080	; 0xff0
80028170:	e3c3300f 	bic	r3, r3, #15
80028174:	e50b300c 	str	r3, [fp, #-12]
80028178:	e51b0018 	ldr	r0, [fp, #-24]	; 0xffffffe8
8002817c:	e51b1008 	ldr	r1, [fp, #-8]
80028180:	e3a02001 	mov	r2, #1
80028184:	ebffffb3 	bl	80028058 <walkpgdir>
80028188:	e50b0010 	str	r0, [fp, #-16]
8002818c:	e51b3010 	ldr	r3, [fp, #-16]
80028190:	e3530000 	cmp	r3, #0
80028194:	1a000001 	bne	800281a0 <mappages+0x70>
80028198:	e3e03000 	mvn	r3, #0
8002819c:	ea00001e 	b	8002821c <mappages+0xec>
800281a0:	e51b3010 	ldr	r3, [fp, #-16]
800281a4:	e5933000 	ldr	r3, [r3]
800281a8:	e2033003 	and	r3, r3, #3
800281ac:	e3530000 	cmp	r3, #0
800281b0:	0a000002 	beq	800281c0 <mappages+0x90>
800281b4:	e3090b7c 	movw	r0, #39804	; 0x9b7c
800281b8:	e3480002 	movt	r0, #32770	; 0x8002
800281bc:	ebffe66c 	bl	80021b74 <panic>
800281c0:	e59b3004 	ldr	r3, [fp, #4]
800281c4:	e2033003 	and	r3, r3, #3
800281c8:	e1a03203 	lsl	r3, r3, #4
800281cc:	e1a02003 	mov	r2, r3
800281d0:	e51b3024 	ldr	r3, [fp, #-36]	; 0xffffffdc
800281d4:	e1823003 	orr	r3, r2, r3
800281d8:	e383200e 	orr	r2, r3, #14
800281dc:	e51b3010 	ldr	r3, [fp, #-16]
800281e0:	e5832000 	str	r2, [r3]
800281e4:	e51b2008 	ldr	r2, [fp, #-8]
800281e8:	e51b300c 	ldr	r3, [fp, #-12]
800281ec:	e1520003 	cmp	r2, r3
800281f0:	1a000002 	bne	80028200 <mappages+0xd0>
800281f4:	e1a00000 	nop			; (mov r0, r0)
800281f8:	e3a03000 	mov	r3, #0
800281fc:	ea000006 	b	8002821c <mappages+0xec>
80028200:	e51b3008 	ldr	r3, [fp, #-8]
80028204:	e2833a01 	add	r3, r3, #4096	; 0x1000
80028208:	e50b3008 	str	r3, [fp, #-8]
8002820c:	e51b3024 	ldr	r3, [fp, #-36]	; 0xffffffdc
80028210:	e2833a01 	add	r3, r3, #4096	; 0x1000
80028214:	e50b3024 	str	r3, [fp, #-36]	; 0xffffffdc
80028218:	eaffffd6 	b	80028178 <mappages+0x48>
8002821c:	e1a00003 	mov	r0, r3
80028220:	e24bd004 	sub	sp, fp, #4
80028224:	e8bd8800 	pop	{fp, pc}

80028228 <flush_tlb>:
80028228:	e92d4800 	push	{fp, lr}
8002822c:	e28db004 	add	fp, sp, #4
80028230:	e24dd008 	sub	sp, sp, #8
80028234:	e3a03000 	mov	r3, #0
80028238:	e50b3008 	str	r3, [fp, #-8]
8002823c:	e51b3008 	ldr	r3, [fp, #-8]
80028240:	ee083f17 	mcr	15, 0, r3, cr8, cr7, {0}
80028244:	e3a03000 	mov	r3, #0
80028248:	ee073f15 	mcr	15, 0, r3, cr7, cr5, {0}
8002824c:	ebffe54a 	bl	8002177c <flush_dcache_all>
80028250:	e24bd004 	sub	sp, fp, #4
80028254:	e8bd8800 	pop	{fp, pc}

80028258 <switchuvm>:
80028258:	e92d4800 	push	{fp, lr}
8002825c:	e28db004 	add	fp, sp, #4
80028260:	e24dd010 	sub	sp, sp, #16
80028264:	e50b0010 	str	r0, [fp, #-16]
80028268:	ebffe0ec 	bl	80020620 <pushcli>
8002826c:	e51b3010 	ldr	r3, [fp, #-16]
80028270:	e5933004 	ldr	r3, [r3, #4]
80028274:	e3530000 	cmp	r3, #0
80028278:	1a000002 	bne	80028288 <switchuvm+0x30>
8002827c:	e3090b84 	movw	r0, #39812	; 0x9b84
80028280:	e3480002 	movt	r0, #32770	; 0x8002
80028284:	ebffe63a 	bl	80021b74 <panic>
80028288:	e51b3010 	ldr	r3, [fp, #-16]
8002828c:	e5933004 	ldr	r3, [r3, #4]
80028290:	e2833102 	add	r3, r3, #-2147483648	; 0x80000000
80028294:	e50b3008 	str	r3, [fp, #-8]
80028298:	e51b3008 	ldr	r3, [fp, #-8]
8002829c:	ee023f10 	mcr	15, 0, r3, cr2, cr0, {0}
800282a0:	ebffffe0 	bl	80028228 <flush_tlb>
800282a4:	ebffe0f2 	bl	80020674 <popcli>
800282a8:	e24bd004 	sub	sp, fp, #4
800282ac:	e8bd8800 	pop	{fp, pc}

800282b0 <inituvm>:
800282b0:	e92d4800 	push	{fp, lr}
800282b4:	e28db004 	add	fp, sp, #4
800282b8:	e24dd020 	sub	sp, sp, #32
800282bc:	e50b0010 	str	r0, [fp, #-16]
800282c0:	e50b1014 	str	r1, [fp, #-20]	; 0xffffffec
800282c4:	e50b2018 	str	r2, [fp, #-24]	; 0xffffffe8
800282c8:	e51b3018 	ldr	r3, [fp, #-24]	; 0xffffffe8
800282cc:	e3530a01 	cmp	r3, #4096	; 0x1000
800282d0:	3a000002 	bcc	800282e0 <inituvm+0x30>
800282d4:	e3090b98 	movw	r0, #39832	; 0x9b98
800282d8:	e3480002 	movt	r0, #32770	; 0x8002
800282dc:	ebffe624 	bl	80021b74 <panic>
800282e0:	ebffe4d9 	bl	8002164c <alloc_page>
800282e4:	e50b0008 	str	r0, [fp, #-8]
800282e8:	e51b0008 	ldr	r0, [fp, #-8]
800282ec:	e3a01000 	mov	r1, #0
800282f0:	e3a02a01 	mov	r2, #4096	; 0x1000
800282f4:	ebffdf41 	bl	80020000 <memset>
800282f8:	e51b0008 	ldr	r0, [fp, #-8]
800282fc:	ebfffed1 	bl	80027e48 <v2p>
80028300:	e1a03000 	mov	r3, r0
80028304:	e3a02003 	mov	r2, #3
80028308:	e58d2000 	str	r2, [sp]
8002830c:	e51b0010 	ldr	r0, [fp, #-16]
80028310:	e3a01000 	mov	r1, #0
80028314:	e3a02a01 	mov	r2, #4096	; 0x1000
80028318:	ebffff84 	bl	80028130 <mappages>
8002831c:	e51b0008 	ldr	r0, [fp, #-8]
80028320:	e51b1014 	ldr	r1, [fp, #-20]	; 0xffffffec
80028324:	e51b2018 	ldr	r2, [fp, #-24]	; 0xffffffe8
80028328:	ebffdfa5 	bl	800201c4 <memmove>
8002832c:	e24bd004 	sub	sp, fp, #4
80028330:	e8bd8800 	pop	{fp, pc}

80028334 <loaduvm>:
80028334:	e92d4800 	push	{fp, lr}
80028338:	e28db004 	add	fp, sp, #4
8002833c:	e24dd020 	sub	sp, sp, #32
80028340:	e50b0018 	str	r0, [fp, #-24]	; 0xffffffe8
80028344:	e50b101c 	str	r1, [fp, #-28]	; 0xffffffe4
80028348:	e50b2020 	str	r2, [fp, #-32]	; 0xffffffe0
8002834c:	e50b3024 	str	r3, [fp, #-36]	; 0xffffffdc
80028350:	e51b301c 	ldr	r3, [fp, #-28]	; 0xffffffe4
80028354:	e7eb3053 	ubfx	r3, r3, #0, #12
80028358:	e3530000 	cmp	r3, #0
8002835c:	0a000002 	beq	8002836c <loaduvm+0x38>
80028360:	e3090bb4 	movw	r0, #39860	; 0x9bb4
80028364:	e3480002 	movt	r0, #32770	; 0x8002
80028368:	ebffe601 	bl	80021b74 <panic>
8002836c:	e3a03000 	mov	r3, #0
80028370:	e50b3008 	str	r3, [fp, #-8]
80028374:	ea000033 	b	80028448 <loaduvm+0x114>
80028378:	e51b201c 	ldr	r2, [fp, #-28]	; 0xffffffe4
8002837c:	e51b3008 	ldr	r3, [fp, #-8]
80028380:	e0823003 	add	r3, r2, r3
80028384:	e51b0018 	ldr	r0, [fp, #-24]	; 0xffffffe8
80028388:	e1a01003 	mov	r1, r3
8002838c:	e3a02000 	mov	r2, #0
80028390:	ebffff30 	bl	80028058 <walkpgdir>
80028394:	e50b0010 	str	r0, [fp, #-16]
80028398:	e51b3010 	ldr	r3, [fp, #-16]
8002839c:	e3530000 	cmp	r3, #0
800283a0:	1a000002 	bne	800283b0 <loaduvm+0x7c>
800283a4:	e3090bd8 	movw	r0, #39896	; 0x9bd8
800283a8:	e3480002 	movt	r0, #32770	; 0x8002
800283ac:	ebffe5f0 	bl	80021b74 <panic>
800283b0:	e51b3010 	ldr	r3, [fp, #-16]
800283b4:	e5933000 	ldr	r3, [r3]
800283b8:	e3c33eff 	bic	r3, r3, #4080	; 0xff0
800283bc:	e3c3300f 	bic	r3, r3, #15
800283c0:	e50b3014 	str	r3, [fp, #-20]	; 0xffffffec
800283c4:	e59b2004 	ldr	r2, [fp, #4]
800283c8:	e51b3008 	ldr	r3, [fp, #-8]
800283cc:	e0633002 	rsb	r3, r3, r2
800283d0:	e3530a01 	cmp	r3, #4096	; 0x1000
800283d4:	2a000004 	bcs	800283ec <loaduvm+0xb8>
800283d8:	e59b2004 	ldr	r2, [fp, #4]
800283dc:	e51b3008 	ldr	r3, [fp, #-8]
800283e0:	e0633002 	rsb	r3, r3, r2
800283e4:	e50b300c 	str	r3, [fp, #-12]
800283e8:	ea000001 	b	800283f4 <loaduvm+0xc0>
800283ec:	e3a03a01 	mov	r3, #4096	; 0x1000
800283f0:	e50b300c 	str	r3, [fp, #-12]
800283f4:	e51b0014 	ldr	r0, [fp, #-20]	; 0xffffffec
800283f8:	ebfffe9c 	bl	80027e70 <p2v>
800283fc:	e1a02000 	mov	r2, r0
80028400:	e51b1024 	ldr	r1, [fp, #-36]	; 0xffffffdc
80028404:	e51b3008 	ldr	r3, [fp, #-8]
80028408:	e0813003 	add	r3, r1, r3
8002840c:	e51b0020 	ldr	r0, [fp, #-32]	; 0xffffffe0
80028410:	e1a01002 	mov	r1, r2
80028414:	e1a02003 	mov	r2, r3
80028418:	e51b300c 	ldr	r3, [fp, #-12]
8002841c:	ebffed53 	bl	80023970 <readi>
80028420:	e1a03000 	mov	r3, r0
80028424:	e1a02003 	mov	r2, r3
80028428:	e51b300c 	ldr	r3, [fp, #-12]
8002842c:	e1520003 	cmp	r2, r3
80028430:	0a000001 	beq	8002843c <loaduvm+0x108>
80028434:	e3e03000 	mvn	r3, #0
80028438:	ea000007 	b	8002845c <loaduvm+0x128>
8002843c:	e51b3008 	ldr	r3, [fp, #-8]
80028440:	e2833a01 	add	r3, r3, #4096	; 0x1000
80028444:	e50b3008 	str	r3, [fp, #-8]
80028448:	e51b2008 	ldr	r2, [fp, #-8]
8002844c:	e59b3004 	ldr	r3, [fp, #4]
80028450:	e1520003 	cmp	r2, r3
80028454:	3affffc7 	bcc	80028378 <loaduvm+0x44>
80028458:	e3a03000 	mov	r3, #0
8002845c:	e1a00003 	mov	r0, r3
80028460:	e24bd004 	sub	sp, fp, #4
80028464:	e8bd8800 	pop	{fp, pc}

80028468 <allocuvm>:
80028468:	e92d4810 	push	{r4, fp, lr}
8002846c:	e28db008 	add	fp, sp, #8
80028470:	e24dd024 	sub	sp, sp, #36	; 0x24
80028474:	e50b0018 	str	r0, [fp, #-24]	; 0xffffffe8
80028478:	e50b101c 	str	r1, [fp, #-28]	; 0xffffffe4
8002847c:	e50b2020 	str	r2, [fp, #-32]	; 0xffffffe0
80028480:	e51b3020 	ldr	r3, [fp, #-32]	; 0xffffffe0
80028484:	e373021f 	cmn	r3, #-268435455	; 0xf0000001
80028488:	9a000001 	bls	80028494 <allocuvm+0x2c>
8002848c:	e3a03000 	mov	r3, #0
80028490:	ea000030 	b	80028558 <allocuvm+0xf0>
80028494:	e51b2020 	ldr	r2, [fp, #-32]	; 0xffffffe0
80028498:	e51b301c 	ldr	r3, [fp, #-28]	; 0xffffffe4
8002849c:	e1520003 	cmp	r2, r3
800284a0:	2a000001 	bcs	800284ac <allocuvm+0x44>
800284a4:	e51b301c 	ldr	r3, [fp, #-28]	; 0xffffffe4
800284a8:	ea00002a 	b	80028558 <allocuvm+0xf0>
800284ac:	e51b301c 	ldr	r3, [fp, #-28]	; 0xffffffe4
800284b0:	e2833eff 	add	r3, r3, #4080	; 0xff0
800284b4:	e283300f 	add	r3, r3, #15
800284b8:	e3c33eff 	bic	r3, r3, #4080	; 0xff0
800284bc:	e3c3300f 	bic	r3, r3, #15
800284c0:	e50b3010 	str	r3, [fp, #-16]
800284c4:	ea00001e 	b	80028544 <allocuvm+0xdc>
800284c8:	ebffe45f 	bl	8002164c <alloc_page>
800284cc:	e50b0014 	str	r0, [fp, #-20]	; 0xffffffec
800284d0:	e51b3014 	ldr	r3, [fp, #-20]	; 0xffffffec
800284d4:	e3530000 	cmp	r3, #0
800284d8:	1a000008 	bne	80028500 <allocuvm+0x98>
800284dc:	e3090bf8 	movw	r0, #39928	; 0x9bf8
800284e0:	e3480002 	movt	r0, #32770	; 0x8002
800284e4:	ebffe520 	bl	8002196c <cprintf>
800284e8:	e51b0018 	ldr	r0, [fp, #-24]	; 0xffffffe8
800284ec:	e51b1020 	ldr	r1, [fp, #-32]	; 0xffffffe0
800284f0:	e51b201c 	ldr	r2, [fp, #-28]	; 0xffffffe4
800284f4:	eb00001a 	bl	80028564 <deallocuvm>
800284f8:	e3a03000 	mov	r3, #0
800284fc:	ea000015 	b	80028558 <allocuvm+0xf0>
80028500:	e51b0014 	ldr	r0, [fp, #-20]	; 0xffffffec
80028504:	e3a01000 	mov	r1, #0
80028508:	e3a02a01 	mov	r2, #4096	; 0x1000
8002850c:	ebffdebb 	bl	80020000 <memset>
80028510:	e51b4010 	ldr	r4, [fp, #-16]
80028514:	e51b0014 	ldr	r0, [fp, #-20]	; 0xffffffec
80028518:	ebfffe4a 	bl	80027e48 <v2p>
8002851c:	e1a03000 	mov	r3, r0
80028520:	e3a02003 	mov	r2, #3
80028524:	e58d2000 	str	r2, [sp]
80028528:	e51b0018 	ldr	r0, [fp, #-24]	; 0xffffffe8
8002852c:	e1a01004 	mov	r1, r4
80028530:	e3a02a01 	mov	r2, #4096	; 0x1000
80028534:	ebfffefd 	bl	80028130 <mappages>
80028538:	e51b3010 	ldr	r3, [fp, #-16]
8002853c:	e2833a01 	add	r3, r3, #4096	; 0x1000
80028540:	e50b3010 	str	r3, [fp, #-16]
80028544:	e51b2010 	ldr	r2, [fp, #-16]
80028548:	e51b3020 	ldr	r3, [fp, #-32]	; 0xffffffe0
8002854c:	e1520003 	cmp	r2, r3
80028550:	3affffdc 	bcc	800284c8 <allocuvm+0x60>
80028554:	e51b3020 	ldr	r3, [fp, #-32]	; 0xffffffe0
80028558:	e1a00003 	mov	r0, r3
8002855c:	e24bd008 	sub	sp, fp, #8
80028560:	e8bd8810 	pop	{r4, fp, pc}

80028564 <deallocuvm>:
80028564:	e92d4800 	push	{fp, lr}
80028568:	e28db004 	add	fp, sp, #4
8002856c:	e24dd020 	sub	sp, sp, #32
80028570:	e50b0018 	str	r0, [fp, #-24]	; 0xffffffe8
80028574:	e50b101c 	str	r1, [fp, #-28]	; 0xffffffe4
80028578:	e50b2020 	str	r2, [fp, #-32]	; 0xffffffe0
8002857c:	e51b2020 	ldr	r2, [fp, #-32]	; 0xffffffe0
80028580:	e51b301c 	ldr	r3, [fp, #-28]	; 0xffffffe4
80028584:	e1520003 	cmp	r2, r3
80028588:	3a000001 	bcc	80028594 <deallocuvm+0x30>
8002858c:	e51b301c 	ldr	r3, [fp, #-28]	; 0xffffffe4
80028590:	ea000036 	b	80028670 <deallocuvm+0x10c>
80028594:	e51b3020 	ldr	r3, [fp, #-32]	; 0xffffffe0
80028598:	e2833eff 	add	r3, r3, #4080	; 0xff0
8002859c:	e283300f 	add	r3, r3, #15
800285a0:	e3c33eff 	bic	r3, r3, #4080	; 0xff0
800285a4:	e3c3300f 	bic	r3, r3, #15
800285a8:	e50b3008 	str	r3, [fp, #-8]
800285ac:	ea00002a 	b	8002865c <deallocuvm+0xf8>
800285b0:	e51b3008 	ldr	r3, [fp, #-8]
800285b4:	e51b0018 	ldr	r0, [fp, #-24]	; 0xffffffe8
800285b8:	e1a01003 	mov	r1, r3
800285bc:	e3a02000 	mov	r2, #0
800285c0:	ebfffea4 	bl	80028058 <walkpgdir>
800285c4:	e50b000c 	str	r0, [fp, #-12]
800285c8:	e51b300c 	ldr	r3, [fp, #-12]
800285cc:	e3530000 	cmp	r3, #0
800285d0:	1a000006 	bne	800285f0 <deallocuvm+0x8c>
800285d4:	e51b3008 	ldr	r3, [fp, #-8]
800285d8:	e243337f 	sub	r3, r3, #-67108863	; 0xfc000001
800285dc:	e243363f 	sub	r3, r3, #66060288	; 0x3f00000
800285e0:	e1a03a23 	lsr	r3, r3, #20
800285e4:	e1a03a03 	lsl	r3, r3, #20
800285e8:	e50b3008 	str	r3, [fp, #-8]
800285ec:	ea000017 	b	80028650 <deallocuvm+0xec>
800285f0:	e51b300c 	ldr	r3, [fp, #-12]
800285f4:	e5933000 	ldr	r3, [r3]
800285f8:	e2033003 	and	r3, r3, #3
800285fc:	e3530000 	cmp	r3, #0
80028600:	0a000012 	beq	80028650 <deallocuvm+0xec>
80028604:	e51b300c 	ldr	r3, [fp, #-12]
80028608:	e5933000 	ldr	r3, [r3]
8002860c:	e3c33eff 	bic	r3, r3, #4080	; 0xff0
80028610:	e3c3300f 	bic	r3, r3, #15
80028614:	e50b3010 	str	r3, [fp, #-16]
80028618:	e51b3010 	ldr	r3, [fp, #-16]
8002861c:	e3530000 	cmp	r3, #0
80028620:	1a000002 	bne	80028630 <deallocuvm+0xcc>
80028624:	e3090c10 	movw	r0, #39952	; 0x9c10
80028628:	e3480002 	movt	r0, #32770	; 0x8002
8002862c:	ebffe550 	bl	80021b74 <panic>
80028630:	e51b0010 	ldr	r0, [fp, #-16]
80028634:	ebfffe0d 	bl	80027e70 <p2v>
80028638:	e1a03000 	mov	r3, r0
8002863c:	e1a00003 	mov	r0, r3
80028640:	ebffe3f8 	bl	80021628 <free_page>
80028644:	e51b300c 	ldr	r3, [fp, #-12]
80028648:	e3a02000 	mov	r2, #0
8002864c:	e5832000 	str	r2, [r3]
80028650:	e51b3008 	ldr	r3, [fp, #-8]
80028654:	e2833a01 	add	r3, r3, #4096	; 0x1000
80028658:	e50b3008 	str	r3, [fp, #-8]
8002865c:	e51b2008 	ldr	r2, [fp, #-8]
80028660:	e51b301c 	ldr	r3, [fp, #-28]	; 0xffffffe4
80028664:	e1520003 	cmp	r2, r3
80028668:	3affffd0 	bcc	800285b0 <deallocuvm+0x4c>
8002866c:	e51b3020 	ldr	r3, [fp, #-32]	; 0xffffffe0
80028670:	e1a00003 	mov	r0, r3
80028674:	e24bd004 	sub	sp, fp, #4
80028678:	e8bd8800 	pop	{fp, pc}

8002867c <freevm>:
8002867c:	e92d4800 	push	{fp, lr}
80028680:	e28db004 	add	fp, sp, #4
80028684:	e24dd010 	sub	sp, sp, #16
80028688:	e50b0010 	str	r0, [fp, #-16]
8002868c:	e51b3010 	ldr	r3, [fp, #-16]
80028690:	e3530000 	cmp	r3, #0
80028694:	1a000002 	bne	800286a4 <freevm+0x28>
80028698:	e3090c1c 	movw	r0, #39964	; 0x9c1c
8002869c:	e3480002 	movt	r0, #32770	; 0x8002
800286a0:	ebffe533 	bl	80021b74 <panic>
800286a4:	e51b0010 	ldr	r0, [fp, #-16]
800286a8:	e3a01201 	mov	r1, #268435456	; 0x10000000
800286ac:	e3a02000 	mov	r2, #0
800286b0:	ebffffab 	bl	80028564 <deallocuvm>
800286b4:	e3a03000 	mov	r3, #0
800286b8:	e50b3008 	str	r3, [fp, #-8]
800286bc:	ea000016 	b	8002871c <freevm+0xa0>
800286c0:	e51b3008 	ldr	r3, [fp, #-8]
800286c4:	e1a03103 	lsl	r3, r3, #2
800286c8:	e51b2010 	ldr	r2, [fp, #-16]
800286cc:	e0823003 	add	r3, r2, r3
800286d0:	e5933000 	ldr	r3, [r3]
800286d4:	e2033003 	and	r3, r3, #3
800286d8:	e3530000 	cmp	r3, #0
800286dc:	0a00000b 	beq	80028710 <freevm+0x94>
800286e0:	e51b3008 	ldr	r3, [fp, #-8]
800286e4:	e1a03103 	lsl	r3, r3, #2
800286e8:	e51b2010 	ldr	r2, [fp, #-16]
800286ec:	e0823003 	add	r3, r2, r3
800286f0:	e5933000 	ldr	r3, [r3]
800286f4:	e3c33fff 	bic	r3, r3, #1020	; 0x3fc
800286f8:	e3c33003 	bic	r3, r3, #3
800286fc:	e1a00003 	mov	r0, r3
80028700:	ebfffdda 	bl	80027e70 <p2v>
80028704:	e50b000c 	str	r0, [fp, #-12]
80028708:	e51b000c 	ldr	r0, [fp, #-12]
8002870c:	ebfffdff 	bl	80027f10 <kpt_free>
80028710:	e51b3008 	ldr	r3, [fp, #-8]
80028714:	e2833001 	add	r3, r3, #1
80028718:	e50b3008 	str	r3, [fp, #-8]
8002871c:	e51b3008 	ldr	r3, [fp, #-8]
80028720:	e35300ff 	cmp	r3, #255	; 0xff
80028724:	9affffe5 	bls	800286c0 <freevm+0x44>
80028728:	e51b0010 	ldr	r0, [fp, #-16]
8002872c:	ebfffdf7 	bl	80027f10 <kpt_free>
80028730:	e24bd004 	sub	sp, fp, #4
80028734:	e8bd8800 	pop	{fp, pc}

80028738 <clearpteu>:
80028738:	e92d4800 	push	{fp, lr}
8002873c:	e28db004 	add	fp, sp, #4
80028740:	e24dd010 	sub	sp, sp, #16
80028744:	e50b0010 	str	r0, [fp, #-16]
80028748:	e50b1014 	str	r1, [fp, #-20]	; 0xffffffec
8002874c:	e51b0010 	ldr	r0, [fp, #-16]
80028750:	e51b1014 	ldr	r1, [fp, #-20]	; 0xffffffec
80028754:	e3a02000 	mov	r2, #0
80028758:	ebfffe3e 	bl	80028058 <walkpgdir>
8002875c:	e50b0008 	str	r0, [fp, #-8]
80028760:	e51b3008 	ldr	r3, [fp, #-8]
80028764:	e3530000 	cmp	r3, #0
80028768:	1a000002 	bne	80028778 <clearpteu+0x40>
8002876c:	e3090c30 	movw	r0, #39984	; 0x9c30
80028770:	e3480002 	movt	r0, #32770	; 0x8002
80028774:	ebffe4fe 	bl	80021b74 <panic>
80028778:	e51b3008 	ldr	r3, [fp, #-8]
8002877c:	e5933000 	ldr	r3, [r3]
80028780:	e3c33030 	bic	r3, r3, #48	; 0x30
80028784:	e3832010 	orr	r2, r3, #16
80028788:	e51b3008 	ldr	r3, [fp, #-8]
8002878c:	e5832000 	str	r2, [r3]
80028790:	e24bd004 	sub	sp, fp, #4
80028794:	e8bd8800 	pop	{fp, pc}

80028798 <copyuvm>:
80028798:	e92d4810 	push	{r4, fp, lr}
8002879c:	e28db008 	add	fp, sp, #8
800287a0:	e24dd02c 	sub	sp, sp, #44	; 0x2c
800287a4:	e50b0028 	str	r0, [fp, #-40]	; 0xffffffd8
800287a8:	e50b102c 	str	r1, [fp, #-44]	; 0xffffffd4
800287ac:	ebfffe00 	bl	80027fb4 <kpt_alloc>
800287b0:	e50b0014 	str	r0, [fp, #-20]	; 0xffffffec
800287b4:	e51b3014 	ldr	r3, [fp, #-20]	; 0xffffffec
800287b8:	e3530000 	cmp	r3, #0
800287bc:	1a000001 	bne	800287c8 <copyuvm+0x30>
800287c0:	e3a03000 	mov	r3, #0
800287c4:	ea000047 	b	800288e8 <copyuvm+0x150>
800287c8:	e3a03000 	mov	r3, #0
800287cc:	e50b3010 	str	r3, [fp, #-16]
800287d0:	ea00003b 	b	800288c4 <copyuvm+0x12c>
800287d4:	e51b3010 	ldr	r3, [fp, #-16]
800287d8:	e51b0028 	ldr	r0, [fp, #-40]	; 0xffffffd8
800287dc:	e1a01003 	mov	r1, r3
800287e0:	e3a02000 	mov	r2, #0
800287e4:	ebfffe1b 	bl	80028058 <walkpgdir>
800287e8:	e50b0018 	str	r0, [fp, #-24]	; 0xffffffe8
800287ec:	e51b3018 	ldr	r3, [fp, #-24]	; 0xffffffe8
800287f0:	e3530000 	cmp	r3, #0
800287f4:	1a000002 	bne	80028804 <copyuvm+0x6c>
800287f8:	e3090c3c 	movw	r0, #39996	; 0x9c3c
800287fc:	e3480002 	movt	r0, #32770	; 0x8002
80028800:	ebffe4db 	bl	80021b74 <panic>
80028804:	e51b3018 	ldr	r3, [fp, #-24]	; 0xffffffe8
80028808:	e5933000 	ldr	r3, [r3]
8002880c:	e2033003 	and	r3, r3, #3
80028810:	e3530000 	cmp	r3, #0
80028814:	1a000002 	bne	80028824 <copyuvm+0x8c>
80028818:	e3090c58 	movw	r0, #40024	; 0x9c58
8002881c:	e3480002 	movt	r0, #32770	; 0x8002
80028820:	ebffe4d3 	bl	80021b74 <panic>
80028824:	e51b3018 	ldr	r3, [fp, #-24]	; 0xffffffe8
80028828:	e5933000 	ldr	r3, [r3]
8002882c:	e3c33eff 	bic	r3, r3, #4080	; 0xff0
80028830:	e3c3300f 	bic	r3, r3, #15
80028834:	e50b301c 	str	r3, [fp, #-28]	; 0xffffffe4
80028838:	e51b3018 	ldr	r3, [fp, #-24]	; 0xffffffe8
8002883c:	e5933000 	ldr	r3, [r3]
80028840:	e1a03223 	lsr	r3, r3, #4
80028844:	e2033003 	and	r3, r3, #3
80028848:	e50b3020 	str	r3, [fp, #-32]	; 0xffffffe0
8002884c:	ebffe37e 	bl	8002164c <alloc_page>
80028850:	e50b0024 	str	r0, [fp, #-36]	; 0xffffffdc
80028854:	e51b3024 	ldr	r3, [fp, #-36]	; 0xffffffdc
80028858:	e3530000 	cmp	r3, #0
8002885c:	1a000000 	bne	80028864 <copyuvm+0xcc>
80028860:	ea00001d 	b	800288dc <copyuvm+0x144>
80028864:	e51b001c 	ldr	r0, [fp, #-28]	; 0xffffffe4
80028868:	ebfffd80 	bl	80027e70 <p2v>
8002886c:	e1a03000 	mov	r3, r0
80028870:	e51b0024 	ldr	r0, [fp, #-36]	; 0xffffffdc
80028874:	e1a01003 	mov	r1, r3
80028878:	e3a02a01 	mov	r2, #4096	; 0x1000
8002887c:	ebffde50 	bl	800201c4 <memmove>
80028880:	e51b4010 	ldr	r4, [fp, #-16]
80028884:	e51b0024 	ldr	r0, [fp, #-36]	; 0xffffffdc
80028888:	ebfffd6e 	bl	80027e48 <v2p>
8002888c:	e1a03000 	mov	r3, r0
80028890:	e51b2020 	ldr	r2, [fp, #-32]	; 0xffffffe0
80028894:	e58d2000 	str	r2, [sp]
80028898:	e51b0014 	ldr	r0, [fp, #-20]	; 0xffffffec
8002889c:	e1a01004 	mov	r1, r4
800288a0:	e3a02a01 	mov	r2, #4096	; 0x1000
800288a4:	ebfffe21 	bl	80028130 <mappages>
800288a8:	e1a03000 	mov	r3, r0
800288ac:	e3530000 	cmp	r3, #0
800288b0:	aa000000 	bge	800288b8 <copyuvm+0x120>
800288b4:	ea000008 	b	800288dc <copyuvm+0x144>
800288b8:	e51b3010 	ldr	r3, [fp, #-16]
800288bc:	e2833a01 	add	r3, r3, #4096	; 0x1000
800288c0:	e50b3010 	str	r3, [fp, #-16]
800288c4:	e51b2010 	ldr	r2, [fp, #-16]
800288c8:	e51b302c 	ldr	r3, [fp, #-44]	; 0xffffffd4
800288cc:	e1520003 	cmp	r2, r3
800288d0:	3affffbf 	bcc	800287d4 <copyuvm+0x3c>
800288d4:	e51b3014 	ldr	r3, [fp, #-20]	; 0xffffffec
800288d8:	ea000002 	b	800288e8 <copyuvm+0x150>
800288dc:	e51b0014 	ldr	r0, [fp, #-20]	; 0xffffffec
800288e0:	ebffff65 	bl	8002867c <freevm>
800288e4:	e3a03000 	mov	r3, #0
800288e8:	e1a00003 	mov	r0, r3
800288ec:	e24bd008 	sub	sp, fp, #8
800288f0:	e8bd8810 	pop	{r4, fp, pc}

800288f4 <uva2ka>:
800288f4:	e92d4800 	push	{fp, lr}
800288f8:	e28db004 	add	fp, sp, #4
800288fc:	e24dd010 	sub	sp, sp, #16
80028900:	e50b0010 	str	r0, [fp, #-16]
80028904:	e50b1014 	str	r1, [fp, #-20]	; 0xffffffec
80028908:	e51b0010 	ldr	r0, [fp, #-16]
8002890c:	e51b1014 	ldr	r1, [fp, #-20]	; 0xffffffec
80028910:	e3a02000 	mov	r2, #0
80028914:	ebfffdcf 	bl	80028058 <walkpgdir>
80028918:	e50b0008 	str	r0, [fp, #-8]
8002891c:	e51b3008 	ldr	r3, [fp, #-8]
80028920:	e5933000 	ldr	r3, [r3]
80028924:	e2033003 	and	r3, r3, #3
80028928:	e3530000 	cmp	r3, #0
8002892c:	1a000001 	bne	80028938 <uva2ka+0x44>
80028930:	e3a03000 	mov	r3, #0
80028934:	ea00000e 	b	80028974 <uva2ka+0x80>
80028938:	e51b3008 	ldr	r3, [fp, #-8]
8002893c:	e5933000 	ldr	r3, [r3]
80028940:	e1a03223 	lsr	r3, r3, #4
80028944:	e2033003 	and	r3, r3, #3
80028948:	e3530003 	cmp	r3, #3
8002894c:	0a000001 	beq	80028958 <uva2ka+0x64>
80028950:	e3a03000 	mov	r3, #0
80028954:	ea000006 	b	80028974 <uva2ka+0x80>
80028958:	e51b3008 	ldr	r3, [fp, #-8]
8002895c:	e5933000 	ldr	r3, [r3]
80028960:	e3c33eff 	bic	r3, r3, #4080	; 0xff0
80028964:	e3c3300f 	bic	r3, r3, #15
80028968:	e1a00003 	mov	r0, r3
8002896c:	ebfffd3f 	bl	80027e70 <p2v>
80028970:	e1a03000 	mov	r3, r0
80028974:	e1a00003 	mov	r0, r3
80028978:	e24bd004 	sub	sp, fp, #4
8002897c:	e8bd8800 	pop	{fp, pc}

80028980 <copyout>:
80028980:	e92d4800 	push	{fp, lr}
80028984:	e28db004 	add	fp, sp, #4
80028988:	e24dd020 	sub	sp, sp, #32
8002898c:	e50b0018 	str	r0, [fp, #-24]	; 0xffffffe8
80028990:	e50b101c 	str	r1, [fp, #-28]	; 0xffffffe4
80028994:	e50b2020 	str	r2, [fp, #-32]	; 0xffffffe0
80028998:	e50b3024 	str	r3, [fp, #-36]	; 0xffffffdc
8002899c:	e51b3020 	ldr	r3, [fp, #-32]	; 0xffffffe0
800289a0:	e50b3008 	str	r3, [fp, #-8]
800289a4:	ea00002c 	b	80028a5c <copyout+0xdc>
800289a8:	e51b301c 	ldr	r3, [fp, #-28]	; 0xffffffe4
800289ac:	e3c33eff 	bic	r3, r3, #4080	; 0xff0
800289b0:	e3c3300f 	bic	r3, r3, #15
800289b4:	e50b3010 	str	r3, [fp, #-16]
800289b8:	e51b3010 	ldr	r3, [fp, #-16]
800289bc:	e51b0018 	ldr	r0, [fp, #-24]	; 0xffffffe8
800289c0:	e1a01003 	mov	r1, r3
800289c4:	ebffffca 	bl	800288f4 <uva2ka>
800289c8:	e50b0014 	str	r0, [fp, #-20]	; 0xffffffec
800289cc:	e51b3014 	ldr	r3, [fp, #-20]	; 0xffffffec
800289d0:	e3530000 	cmp	r3, #0
800289d4:	1a000001 	bne	800289e0 <copyout+0x60>
800289d8:	e3e03000 	mvn	r3, #0
800289dc:	ea000022 	b	80028a6c <copyout+0xec>
800289e0:	e51b2010 	ldr	r2, [fp, #-16]
800289e4:	e51b301c 	ldr	r3, [fp, #-28]	; 0xffffffe4
800289e8:	e0633002 	rsb	r3, r3, r2
800289ec:	e2833a01 	add	r3, r3, #4096	; 0x1000
800289f0:	e50b300c 	str	r3, [fp, #-12]
800289f4:	e51b200c 	ldr	r2, [fp, #-12]
800289f8:	e51b3024 	ldr	r3, [fp, #-36]	; 0xffffffdc
800289fc:	e1520003 	cmp	r2, r3
80028a00:	9a000001 	bls	80028a0c <copyout+0x8c>
80028a04:	e51b3024 	ldr	r3, [fp, #-36]	; 0xffffffdc
80028a08:	e50b300c 	str	r3, [fp, #-12]
80028a0c:	e51b201c 	ldr	r2, [fp, #-28]	; 0xffffffe4
80028a10:	e51b3010 	ldr	r3, [fp, #-16]
80028a14:	e0633002 	rsb	r3, r3, r2
80028a18:	e51b2014 	ldr	r2, [fp, #-20]	; 0xffffffec
80028a1c:	e0823003 	add	r3, r2, r3
80028a20:	e1a00003 	mov	r0, r3
80028a24:	e51b1008 	ldr	r1, [fp, #-8]
80028a28:	e51b200c 	ldr	r2, [fp, #-12]
80028a2c:	ebffdde4 	bl	800201c4 <memmove>
80028a30:	e51b2024 	ldr	r2, [fp, #-36]	; 0xffffffdc
80028a34:	e51b300c 	ldr	r3, [fp, #-12]
80028a38:	e0633002 	rsb	r3, r3, r2
80028a3c:	e50b3024 	str	r3, [fp, #-36]	; 0xffffffdc
80028a40:	e51b2008 	ldr	r2, [fp, #-8]
80028a44:	e51b300c 	ldr	r3, [fp, #-12]
80028a48:	e0823003 	add	r3, r2, r3
80028a4c:	e50b3008 	str	r3, [fp, #-8]
80028a50:	e51b3010 	ldr	r3, [fp, #-16]
80028a54:	e2833a01 	add	r3, r3, #4096	; 0x1000
80028a58:	e50b301c 	str	r3, [fp, #-28]	; 0xffffffe4
80028a5c:	e51b3024 	ldr	r3, [fp, #-36]	; 0xffffffdc
80028a60:	e3530000 	cmp	r3, #0
80028a64:	1affffcf 	bne	800289a8 <copyout+0x28>
80028a68:	e3a03000 	mov	r3, #0
80028a6c:	e1a00003 	mov	r0, r3
80028a70:	e24bd004 	sub	sp, fp, #4
80028a74:	e8bd8800 	pop	{fp, pc}

80028a78 <paging_init>:
80028a78:	e92d4800 	push	{fp, lr}
80028a7c:	e28db004 	add	fp, sp, #4
80028a80:	e24dd010 	sub	sp, sp, #16
80028a84:	e50b0008 	str	r0, [fp, #-8]
80028a88:	e50b100c 	str	r1, [fp, #-12]
80028a8c:	e51b3008 	ldr	r3, [fp, #-8]
80028a90:	e2833102 	add	r3, r3, #-2147483648	; 0x80000000
80028a94:	e1a02003 	mov	r2, r3
80028a98:	e51b100c 	ldr	r1, [fp, #-12]
80028a9c:	e51b3008 	ldr	r3, [fp, #-8]
80028aa0:	e0633001 	rsb	r3, r3, r1
80028aa4:	e3a01003 	mov	r1, #3
80028aa8:	e58d1000 	str	r1, [sp]
80028aac:	e59f0018 	ldr	r0, [pc, #24]	; 80028acc <paging_init+0x54>
80028ab0:	e1a01002 	mov	r1, r2
80028ab4:	e1a02003 	mov	r2, r3
80028ab8:	e51b3008 	ldr	r3, [fp, #-8]
80028abc:	ebfffd9b 	bl	80028130 <mappages>
80028ac0:	ebfffdd8 	bl	80028228 <flush_tlb>
80028ac4:	e24bd004 	sub	sp, fp, #4
80028ac8:	e8bd8800 	pop	{fp, pc}
80028acc:	8000c000 	.word	0x8000c000

80028ad0 <ack_timer>:
80028ad0:	e52db004 	push	{fp}		; (str fp, [sp, #-4]!)
80028ad4:	e28db000 	add	fp, sp, #0
80028ad8:	e24dd00c 	sub	sp, sp, #12
80028adc:	e3a03b2d 	mov	r3, #46080	; 0xb400
80028ae0:	e34b3f00 	movt	r3, #48896	; 0xbf00
80028ae4:	e50b3008 	str	r3, [fp, #-8]
80028ae8:	e51b3008 	ldr	r3, [fp, #-8]
80028aec:	e283300c 	add	r3, r3, #12
80028af0:	e3a02001 	mov	r2, #1
80028af4:	e5832000 	str	r2, [r3]
80028af8:	e24bd000 	sub	sp, fp, #0
80028afc:	e49db004 	pop	{fp}		; (ldr fp, [sp], #4)
80028b00:	e12fff1e 	bx	lr

80028b04 <timer_init>:
80028b04:	e92d4800 	push	{fp, lr}
80028b08:	e28db004 	add	fp, sp, #4
80028b0c:	e24dd008 	sub	sp, sp, #8
80028b10:	e3a03b2d 	mov	r3, #46080	; 0xb400
80028b14:	e34b3f00 	movt	r3, #48896	; 0xbf00
80028b18:	e50b3008 	str	r3, [fp, #-8]
80028b1c:	e30f057c 	movw	r0, #62844	; 0xf57c
80028b20:	e348000a 	movt	r0, #32778	; 0x800a
80028b24:	e3091c74 	movw	r1, #40052	; 0x9c74
80028b28:	e3481002 	movt	r1, #32770	; 0x8002
80028b2c:	ebfff51a 	bl	80025f9c <initlock>
80028b30:	e51b3008 	ldr	r3, [fp, #-8]
80028b34:	e3a02a01 	mov	r2, #4096	; 0x1000
80028b38:	e5832000 	str	r2, [r3]
80028b3c:	e51b3008 	ldr	r3, [fp, #-8]
80028b40:	e2833008 	add	r3, r3, #8
80028b44:	e3a020aa 	mov	r2, #170	; 0xaa
80028b48:	e5832000 	str	r2, [r3]
80028b4c:	e3a00000 	mov	r0, #0
80028b50:	e3081b64 	movw	r1, #35684	; 0x8b64
80028b54:	e3481002 	movt	r1, #32770	; 0x8002
80028b58:	eb000121 	bl	80028fe4 <pic_enable>
80028b5c:	e24bd004 	sub	sp, fp, #4
80028b60:	e8bd8800 	pop	{fp, pc}

80028b64 <isr_timer>:
80028b64:	e92d4800 	push	{fp, lr}
80028b68:	e28db004 	add	fp, sp, #4
80028b6c:	e24dd008 	sub	sp, sp, #8
80028b70:	e50b0008 	str	r0, [fp, #-8]
80028b74:	e50b100c 	str	r1, [fp, #-12]
80028b78:	e30f057c 	movw	r0, #62844	; 0xf57c
80028b7c:	e348000a 	movt	r0, #32778	; 0x800a
80028b80:	ebfff516 	bl	80025fe0 <acquire>
80028b84:	e30f35b0 	movw	r3, #62896	; 0xf5b0
80028b88:	e348300a 	movt	r3, #32778	; 0x800a
80028b8c:	e5933000 	ldr	r3, [r3]
80028b90:	e2832001 	add	r2, r3, #1
80028b94:	e30f35b0 	movw	r3, #62896	; 0xf5b0
80028b98:	e348300a 	movt	r3, #32778	; 0x800a
80028b9c:	e5832000 	str	r2, [r3]
80028ba0:	e30f05b0 	movw	r0, #62896	; 0xf5b0
80028ba4:	e348000a 	movt	r0, #32778	; 0x800a
80028ba8:	ebfff479 	bl	80025d94 <wakeup>
80028bac:	e30f057c 	movw	r0, #62844	; 0xf57c
80028bb0:	e348000a 	movt	r0, #32778	; 0x800a
80028bb4:	ebfff513 	bl	80026008 <release>
80028bb8:	ebffffc4 	bl	80028ad0 <ack_timer>
80028bbc:	e24bd004 	sub	sp, fp, #4
80028bc0:	e8bd8800 	pop	{fp, pc}

80028bc4 <udelay>:
80028bc4:	e52db004 	push	{fp}		; (str fp, [sp, #-4]!)
80028bc8:	e28db000 	add	fp, sp, #0
80028bcc:	e24dd00c 	sub	sp, sp, #12
80028bd0:	e50b0008 	str	r0, [fp, #-8]
80028bd4:	e51b3008 	ldr	r3, [fp, #-8]

80028bd8 <__delay_14>:
80028bd8:	e2533001 	subs	r3, r3, #1
80028bdc:	1afffffd 	bne	80028bd8 <__delay_14>
80028be0:	e50b3008 	str	r3, [fp, #-8]
80028be4:	e24bd000 	sub	sp, fp, #0
80028be8:	e49db004 	pop	{fp}		; (ldr fp, [sp], #4)
80028bec:	e12fff1e 	bx	lr

80028bf0 <uartputc>:
80028bf0:	e52db004 	push	{fp}		; (str fp, [sp, #-4]!)
80028bf4:	e28db000 	add	fp, sp, #0
80028bf8:	e24dd00c 	sub	sp, sp, #12
80028bfc:	e50b0008 	str	r0, [fp, #-8]
80028c00:	e3053054 	movw	r3, #20564	; 0x5054
80028c04:	e34b3f21 	movt	r3, #48929	; 0xbf21
80028c08:	e5933000 	ldr	r3, [r3]
80028c0c:	e2033020 	and	r3, r3, #32
80028c10:	e3530000 	cmp	r3, #0
80028c14:	0a000000 	beq	80028c1c <uartputc+0x2c>
80028c18:	ea000000 	b	80028c20 <uartputc+0x30>
80028c1c:	eafffff7 	b	80028c00 <uartputc+0x10>
80028c20:	e3053040 	movw	r3, #20544	; 0x5040
80028c24:	e34b3f21 	movt	r3, #48929	; 0xbf21
80028c28:	e51b2008 	ldr	r2, [fp, #-8]
80028c2c:	e5832000 	str	r2, [r3]
80028c30:	e24bd000 	sub	sp, fp, #0
80028c34:	e49db004 	pop	{fp}		; (ldr fp, [sp], #4)
80028c38:	e12fff1e 	bx	lr

80028c3c <uart_puts>:
80028c3c:	e92d4800 	push	{fp, lr}
80028c40:	e28db004 	add	fp, sp, #4
80028c44:	e24dd008 	sub	sp, sp, #8
80028c48:	e50b0008 	str	r0, [fp, #-8]
80028c4c:	ea00000b 	b	80028c80 <uart_puts+0x44>
80028c50:	e51b3008 	ldr	r3, [fp, #-8]
80028c54:	e5d33000 	ldrb	r3, [r3]
80028c58:	e353000a 	cmp	r3, #10
80028c5c:	1a000001 	bne	80028c68 <uart_puts+0x2c>
80028c60:	e3a0000d 	mov	r0, #13
80028c64:	ebffffe1 	bl	80028bf0 <uartputc>
80028c68:	e51b3008 	ldr	r3, [fp, #-8]
80028c6c:	e2832001 	add	r2, r3, #1
80028c70:	e50b2008 	str	r2, [fp, #-8]
80028c74:	e5d33000 	ldrb	r3, [r3]
80028c78:	e1a00003 	mov	r0, r3
80028c7c:	ebffffdb 	bl	80028bf0 <uartputc>
80028c80:	e51b3008 	ldr	r3, [fp, #-8]
80028c84:	e5d33000 	ldrb	r3, [r3]
80028c88:	e3530000 	cmp	r3, #0
80028c8c:	1affffef 	bne	80028c50 <uart_puts+0x14>
80028c90:	e24bd004 	sub	sp, fp, #4
80028c94:	e8bd8800 	pop	{fp, pc}

80028c98 <uartgetc>:
80028c98:	e52db004 	push	{fp}		; (str fp, [sp, #-4]!)
80028c9c:	e28db000 	add	fp, sp, #0
80028ca0:	e3053054 	movw	r3, #20564	; 0x5054
80028ca4:	e34b3f21 	movt	r3, #48929	; 0xbf21
80028ca8:	e5933000 	ldr	r3, [r3]
80028cac:	e2033001 	and	r3, r3, #1
80028cb0:	e3530000 	cmp	r3, #0
80028cb4:	0a000004 	beq	80028ccc <uartgetc+0x34>
80028cb8:	e3053040 	movw	r3, #20544	; 0x5040
80028cbc:	e34b3f21 	movt	r3, #48929	; 0xbf21
80028cc0:	e5933000 	ldr	r3, [r3]
80028cc4:	e6ef3073 	uxtb	r3, r3
80028cc8:	ea000000 	b	80028cd0 <uartgetc+0x38>
80028ccc:	e3e03000 	mvn	r3, #0
80028cd0:	e1a00003 	mov	r0, r3
80028cd4:	e24bd000 	sub	sp, fp, #0
80028cd8:	e49db004 	pop	{fp}		; (ldr fp, [sp], #4)
80028cdc:	e12fff1e 	bx	lr

80028ce0 <print_hex>:
80028ce0:	e92d4810 	push	{r4, fp, lr}
80028ce4:	e28db008 	add	fp, sp, #8
80028ce8:	e24dd02c 	sub	sp, sp, #44	; 0x2c
80028cec:	e50b0030 	str	r0, [fp, #-48]	; 0xffffffd0
80028cf0:	e3093c7c 	movw	r3, #40060	; 0x9c7c
80028cf4:	e3483002 	movt	r3, #32770	; 0x8002
80028cf8:	e24bc024 	sub	ip, fp, #36	; 0x24
80028cfc:	e5930000 	ldr	r0, [r3]
80028d00:	e5931004 	ldr	r1, [r3, #4]
80028d04:	e5932008 	ldr	r2, [r3, #8]
80028d08:	e593300c 	ldr	r3, [r3, #12]
80028d0c:	e8ac000f 	stmia	ip!, {r0, r1, r2, r3}
80028d10:	e3092c8c 	movw	r2, #40076	; 0x9c8c
80028d14:	e3482002 	movt	r2, #32770	; 0x8002
80028d18:	e24b302c 	sub	r3, fp, #44	; 0x2c
80028d1c:	e5920000 	ldr	r0, [r2]
80028d20:	e5921004 	ldr	r1, [r2, #4]
80028d24:	e8a30003 	stmia	r3!, {r0, r1}
80028d28:	e3a03010 	mov	r3, #16
80028d2c:	e50b3014 	str	r3, [fp, #-20]	; 0xffffffec
80028d30:	e3a03007 	mov	r3, #7
80028d34:	e50b3010 	str	r3, [fp, #-16]
80028d38:	e3a00030 	mov	r0, #48	; 0x30
80028d3c:	ebffffab 	bl	80028bf0 <uartputc>
80028d40:	e3a00078 	mov	r0, #120	; 0x78
80028d44:	ebffffa9 	bl	80028bf0 <uartputc>
80028d48:	ea000017 	b	80028dac <print_hex+0xcc>
80028d4c:	e51b4010 	ldr	r4, [fp, #-16]
80028d50:	e2443001 	sub	r3, r4, #1
80028d54:	e50b3010 	str	r3, [fp, #-16]
80028d58:	e51b3030 	ldr	r3, [fp, #-48]	; 0xffffffd0
80028d5c:	e1a00003 	mov	r0, r3
80028d60:	e51b1014 	ldr	r1, [fp, #-20]	; 0xffffffec
80028d64:	eb00015e 	bl	800292e4 <__aeabi_uidivmod>
80028d68:	e1a03001 	mov	r3, r1
80028d6c:	e1a02003 	mov	r2, r3
80028d70:	e3e03017 	mvn	r3, #23
80028d74:	e24b000c 	sub	r0, fp, #12
80028d78:	e0802002 	add	r2, r0, r2
80028d7c:	e0823003 	add	r3, r2, r3
80028d80:	e5d32000 	ldrb	r2, [r3]
80028d84:	e3e0301f 	mvn	r3, #31
80028d88:	e24b000c 	sub	r0, fp, #12
80028d8c:	e0801004 	add	r1, r0, r4
80028d90:	e0813003 	add	r3, r1, r3
80028d94:	e5c32000 	strb	r2, [r3]
80028d98:	e51b0030 	ldr	r0, [fp, #-48]	; 0xffffffd0
80028d9c:	e51b1014 	ldr	r1, [fp, #-20]	; 0xffffffec
80028da0:	eb000112 	bl	800291f0 <__aeabi_uidiv>
80028da4:	e1a03000 	mov	r3, r0
80028da8:	e50b3030 	str	r3, [fp, #-48]	; 0xffffffd0
80028dac:	e51b3030 	ldr	r3, [fp, #-48]	; 0xffffffd0
80028db0:	e3530000 	cmp	r3, #0
80028db4:	1affffe4 	bne	80028d4c <print_hex+0x6c>
80028db8:	e3a03000 	mov	r3, #0
80028dbc:	e50b3010 	str	r3, [fp, #-16]
80028dc0:	ea00000a 	b	80028df0 <print_hex+0x110>
80028dc4:	e3e0301f 	mvn	r3, #31
80028dc8:	e51b2010 	ldr	r2, [fp, #-16]
80028dcc:	e24b100c 	sub	r1, fp, #12
80028dd0:	e0812002 	add	r2, r1, r2
80028dd4:	e0823003 	add	r3, r2, r3
80028dd8:	e5d33000 	ldrb	r3, [r3]
80028ddc:	e1a00003 	mov	r0, r3
80028de0:	ebffff82 	bl	80028bf0 <uartputc>
80028de4:	e51b3010 	ldr	r3, [fp, #-16]
80028de8:	e2833001 	add	r3, r3, #1
80028dec:	e50b3010 	str	r3, [fp, #-16]
80028df0:	e51b3010 	ldr	r3, [fp, #-16]
80028df4:	e3530007 	cmp	r3, #7
80028df8:	dafffff1 	ble	80028dc4 <print_hex+0xe4>
80028dfc:	e3a0000d 	mov	r0, #13
80028e00:	ebffff7a 	bl	80028bf0 <uartputc>
80028e04:	e3a0000a 	mov	r0, #10
80028e08:	ebffff78 	bl	80028bf0 <uartputc>
80028e0c:	e24bd008 	sub	sp, fp, #8
80028e10:	e8bd8810 	pop	{r4, fp, pc}

80028e14 <hexstrings>:
80028e14:	e92d4800 	push	{fp, lr}
80028e18:	e28db004 	add	fp, sp, #4
80028e1c:	e24dd010 	sub	sp, sp, #16
80028e20:	e50b0010 	str	r0, [fp, #-16]
80028e24:	e3a03020 	mov	r3, #32
80028e28:	e50b3008 	str	r3, [fp, #-8]
80028e2c:	e51b3008 	ldr	r3, [fp, #-8]
80028e30:	e2433004 	sub	r3, r3, #4
80028e34:	e50b3008 	str	r3, [fp, #-8]
80028e38:	e51b3008 	ldr	r3, [fp, #-8]
80028e3c:	e51b2010 	ldr	r2, [fp, #-16]
80028e40:	e1a03332 	lsr	r3, r2, r3
80028e44:	e203300f 	and	r3, r3, #15
80028e48:	e50b300c 	str	r3, [fp, #-12]
80028e4c:	e51b300c 	ldr	r3, [fp, #-12]
80028e50:	e3530009 	cmp	r3, #9
80028e54:	9a000003 	bls	80028e68 <hexstrings+0x54>
80028e58:	e51b300c 	ldr	r3, [fp, #-12]
80028e5c:	e2833037 	add	r3, r3, #55	; 0x37
80028e60:	e50b300c 	str	r3, [fp, #-12]
80028e64:	ea000002 	b	80028e74 <hexstrings+0x60>
80028e68:	e51b300c 	ldr	r3, [fp, #-12]
80028e6c:	e2833030 	add	r3, r3, #48	; 0x30
80028e70:	e50b300c 	str	r3, [fp, #-12]
80028e74:	e51b300c 	ldr	r3, [fp, #-12]
80028e78:	e1a00003 	mov	r0, r3
80028e7c:	ebffff5b 	bl	80028bf0 <uartputc>
80028e80:	e51b3008 	ldr	r3, [fp, #-8]
80028e84:	e3530000 	cmp	r3, #0
80028e88:	1a000000 	bne	80028e90 <hexstrings+0x7c>
80028e8c:	ea000000 	b	80028e94 <hexstrings+0x80>
80028e90:	eaffffe5 	b	80028e2c <hexstrings+0x18>
80028e94:	e3a00020 	mov	r0, #32
80028e98:	ebffff54 	bl	80028bf0 <uartputc>
80028e9c:	e24bd004 	sub	sp, fp, #4
80028ea0:	e8bd8800 	pop	{fp, pc}

80028ea4 <hexstring>:
80028ea4:	e92d4800 	push	{fp, lr}
80028ea8:	e28db004 	add	fp, sp, #4
80028eac:	e24dd008 	sub	sp, sp, #8
80028eb0:	e50b0008 	str	r0, [fp, #-8]
80028eb4:	e51b0008 	ldr	r0, [fp, #-8]
80028eb8:	ebffffd5 	bl	80028e14 <hexstrings>
80028ebc:	e3a0000d 	mov	r0, #13
80028ec0:	ebffff4a 	bl	80028bf0 <uartputc>
80028ec4:	e3a0000a 	mov	r0, #10
80028ec8:	ebffff48 	bl	80028bf0 <uartputc>
80028ecc:	e24bd004 	sub	sp, fp, #4
80028ed0:	e8bd8800 	pop	{fp, pc}

80028ed4 <uart_enable_rx>:
80028ed4:	e92d4800 	push	{fp, lr}
80028ed8:	e28db004 	add	fp, sp, #4
80028edc:	e3053044 	movw	r3, #20548	; 0x5044
80028ee0:	e34b3f21 	movt	r3, #48929	; 0xbf21
80028ee4:	e3a02001 	mov	r2, #1
80028ee8:	e5832000 	str	r2, [r3]
80028eec:	e30b3210 	movw	r3, #45584	; 0xb210
80028ef0:	e34b3f00 	movt	r3, #48896	; 0xbf00
80028ef4:	e3a02202 	mov	r2, #536870912	; 0x20000000
80028ef8:	e5832000 	str	r2, [r3]
80028efc:	e3a0001d 	mov	r0, #29
80028f00:	e3081f10 	movw	r1, #36624	; 0x8f10
80028f04:	e3481002 	movt	r1, #32770	; 0x8002
80028f08:	eb000035 	bl	80028fe4 <pic_enable>
80028f0c:	e8bd8800 	pop	{fp, pc}

80028f10 <isr_uart>:
80028f10:	e92d4800 	push	{fp, lr}
80028f14:	e28db004 	add	fp, sp, #4
80028f18:	e24dd008 	sub	sp, sp, #8
80028f1c:	e50b0008 	str	r0, [fp, #-8]
80028f20:	e50b100c 	str	r1, [fp, #-12]
80028f24:	e3080c98 	movw	r0, #35992	; 0x8c98
80028f28:	e3480002 	movt	r0, #32770	; 0x8002
80028f2c:	ebffe346 	bl	80021c4c <consoleintr>
80028f30:	e24bd004 	sub	sp, fp, #4
80028f34:	e8bd8800 	pop	{fp, pc}

80028f38 <default_isr>:
80028f38:	e92d4800 	push	{fp, lr}
80028f3c:	e28db004 	add	fp, sp, #4
80028f40:	e24dd008 	sub	sp, sp, #8
80028f44:	e50b0008 	str	r0, [fp, #-8]
80028f48:	e50b100c 	str	r1, [fp, #-12]
80028f4c:	e3090c94 	movw	r0, #40084	; 0x9c94
80028f50:	e3480002 	movt	r0, #32770	; 0x8002
80028f54:	e51b100c 	ldr	r1, [fp, #-12]
80028f58:	ebffe283 	bl	8002196c <cprintf>
80028f5c:	e24bd004 	sub	sp, fp, #4
80028f60:	e8bd8800 	pop	{fp, pc}

80028f64 <gic_init>:
80028f64:	e52db004 	push	{fp}		; (str fp, [sp, #-4]!)
80028f68:	e28db000 	add	fp, sp, #0
80028f6c:	e24dd014 	sub	sp, sp, #20
80028f70:	e50b0010 	str	r0, [fp, #-16]
80028f74:	e30f35b4 	movw	r3, #62900	; 0xf5b4
80028f78:	e348300a 	movt	r3, #32778	; 0x800a
80028f7c:	e51b2010 	ldr	r2, [fp, #-16]
80028f80:	e5832000 	str	r2, [r3]
80028f84:	e30f35b4 	movw	r3, #62900	; 0xf5b4
80028f88:	e348300a 	movt	r3, #32778	; 0x800a
80028f8c:	e5933000 	ldr	r3, [r3]
80028f90:	e2833024 	add	r3, r3, #36	; 0x24
80028f94:	e3e02000 	mvn	r2, #0
80028f98:	e5832000 	str	r2, [r3]
80028f9c:	e3a03000 	mov	r3, #0
80028fa0:	e50b3008 	str	r3, [fp, #-8]
80028fa4:	ea000008 	b	80028fcc <gic_init+0x68>
80028fa8:	e30f35b8 	movw	r3, #62904	; 0xf5b8
80028fac:	e348300a 	movt	r3, #32778	; 0x800a
80028fb0:	e51b1008 	ldr	r1, [fp, #-8]
80028fb4:	e3082f38 	movw	r2, #36664	; 0x8f38
80028fb8:	e3482002 	movt	r2, #32770	; 0x8002
80028fbc:	e7832101 	str	r2, [r3, r1, lsl #2]
80028fc0:	e51b3008 	ldr	r3, [fp, #-8]
80028fc4:	e2833001 	add	r3, r3, #1
80028fc8:	e50b3008 	str	r3, [fp, #-8]
80028fcc:	e51b3008 	ldr	r3, [fp, #-8]
80028fd0:	e353001f 	cmp	r3, #31
80028fd4:	dafffff3 	ble	80028fa8 <gic_init+0x44>
80028fd8:	e24bd000 	sub	sp, fp, #0
80028fdc:	e49db004 	pop	{fp}		; (ldr fp, [sp], #4)
80028fe0:	e12fff1e 	bx	lr

80028fe4 <pic_enable>:
80028fe4:	e92d4800 	push	{fp, lr}
80028fe8:	e28db004 	add	fp, sp, #4
80028fec:	e24dd008 	sub	sp, sp, #8
80028ff0:	e50b0008 	str	r0, [fp, #-8]
80028ff4:	e50b100c 	str	r1, [fp, #-12]
80028ff8:	e51b3008 	ldr	r3, [fp, #-8]
80028ffc:	e3530000 	cmp	r3, #0
80029000:	ba000002 	blt	80029010 <pic_enable+0x2c>
80029004:	e51b3008 	ldr	r3, [fp, #-8]
80029008:	e353001f 	cmp	r3, #31
8002900c:	da000002 	ble	8002901c <pic_enable+0x38>
80029010:	e3090cb0 	movw	r0, #40112	; 0x9cb0
80029014:	e3480002 	movt	r0, #32770	; 0x8002
80029018:	ebffe2d5 	bl	80021b74 <panic>
8002901c:	e3090ccc 	movw	r0, #40140	; 0x9ccc
80029020:	e3480002 	movt	r0, #32770	; 0x8002
80029024:	e51b1008 	ldr	r1, [fp, #-8]
80029028:	ebffe24f 	bl	8002196c <cprintf>
8002902c:	e30f35b8 	movw	r3, #62904	; 0xf5b8
80029030:	e348300a 	movt	r3, #32778	; 0x800a
80029034:	e51b2008 	ldr	r2, [fp, #-8]
80029038:	e51b100c 	ldr	r1, [fp, #-12]
8002903c:	e7831102 	str	r1, [r3, r2, lsl #2]
80029040:	e30f35b4 	movw	r3, #62900	; 0xf5b4
80029044:	e348300a 	movt	r3, #32778	; 0x800a
80029048:	e5933000 	ldr	r3, [r3]
8002904c:	e2833018 	add	r3, r3, #24
80029050:	e3a01001 	mov	r1, #1
80029054:	e51b2008 	ldr	r2, [fp, #-8]
80029058:	e1a02211 	lsl	r2, r1, r2
8002905c:	e5832000 	str	r2, [r3]
80029060:	e24bd004 	sub	sp, fp, #4
80029064:	e8bd8800 	pop	{fp, pc}

80029068 <pic_disable>:
80029068:	e92d4800 	push	{fp, lr}
8002906c:	e28db004 	add	fp, sp, #4
80029070:	e24dd008 	sub	sp, sp, #8
80029074:	e50b0008 	str	r0, [fp, #-8]
80029078:	e51b3008 	ldr	r3, [fp, #-8]
8002907c:	e3530000 	cmp	r3, #0
80029080:	ba000002 	blt	80029090 <pic_disable+0x28>
80029084:	e51b3008 	ldr	r3, [fp, #-8]
80029088:	e353001f 	cmp	r3, #31
8002908c:	da000002 	ble	8002909c <pic_disable+0x34>
80029090:	e3090cb0 	movw	r0, #40112	; 0x9cb0
80029094:	e3480002 	movt	r0, #32770	; 0x8002
80029098:	ebffe2b5 	bl	80021b74 <panic>
8002909c:	e30f35b4 	movw	r3, #62900	; 0xf5b4
800290a0:	e348300a 	movt	r3, #32778	; 0x800a
800290a4:	e5933000 	ldr	r3, [r3]
800290a8:	e2833024 	add	r3, r3, #36	; 0x24
800290ac:	e3a01001 	mov	r1, #1
800290b0:	e51b2008 	ldr	r2, [fp, #-8]
800290b4:	e1a02211 	lsl	r2, r1, r2
800290b8:	e5832000 	str	r2, [r3]
800290bc:	e30f35b8 	movw	r3, #62904	; 0xf5b8
800290c0:	e348300a 	movt	r3, #32778	; 0x800a
800290c4:	e51b1008 	ldr	r1, [fp, #-8]
800290c8:	e3082f38 	movw	r2, #36664	; 0x8f38
800290cc:	e3482002 	movt	r2, #32770	; 0x8002
800290d0:	e7832101 	str	r2, [r3, r1, lsl #2]
800290d4:	e24bd004 	sub	sp, fp, #4
800290d8:	e8bd8800 	pop	{fp, pc}

800290dc <pic_dispatch>:
800290dc:	e92d4800 	push	{fp, lr}
800290e0:	e28db004 	add	fp, sp, #4
800290e4:	e24dd010 	sub	sp, sp, #16
800290e8:	e50b0010 	str	r0, [fp, #-16]
800290ec:	e3a03000 	mov	r3, #0
800290f0:	e50b3008 	str	r3, [fp, #-8]
800290f4:	e30f35b4 	movw	r3, #62900	; 0xf5b4
800290f8:	e348300a 	movt	r3, #32778	; 0x800a
800290fc:	e5933000 	ldr	r3, [r3]
80029100:	e5933000 	ldr	r3, [r3]
80029104:	e3530000 	cmp	r3, #0
80029108:	0a000007 	beq	8002912c <pic_dispatch+0x50>
8002910c:	e3a03001 	mov	r3, #1
80029110:	e50b3008 	str	r3, [fp, #-8]
80029114:	e30f35b8 	movw	r3, #62904	; 0xf5b8
80029118:	e348300a 	movt	r3, #32778	; 0x800a
8002911c:	e5933000 	ldr	r3, [r3]
80029120:	e51b0010 	ldr	r0, [fp, #-16]
80029124:	e3a01000 	mov	r1, #0
80029128:	e12fff33 	blx	r3
8002912c:	e30f35b4 	movw	r3, #62900	; 0xf5b4
80029130:	e348300a 	movt	r3, #32778	; 0x800a
80029134:	e5933000 	ldr	r3, [r3]
80029138:	e2833004 	add	r3, r3, #4
8002913c:	e5933000 	ldr	r3, [r3]
80029140:	e2033202 	and	r3, r3, #536870912	; 0x20000000
80029144:	e3530000 	cmp	r3, #0
80029148:	0a000005 	beq	80029164 <pic_dispatch+0x88>
8002914c:	e30f35b8 	movw	r3, #62904	; 0xf5b8
80029150:	e348300a 	movt	r3, #32778	; 0x800a
80029154:	e5933074 	ldr	r3, [r3, #116]	; 0x74
80029158:	e51b0010 	ldr	r0, [fp, #-16]
8002915c:	e3a0101d 	mov	r1, #29
80029160:	e12fff33 	blx	r3
80029164:	e30d3608 	movw	r3, #54792	; 0xd608
80029168:	e348300a 	movt	r3, #32778	; 0x800a
8002916c:	e5933000 	ldr	r3, [r3]
80029170:	e3530000 	cmp	r3, #0
80029174:	0a000009 	beq	800291a0 <pic_dispatch+0xc4>
80029178:	e30d3608 	movw	r3, #54792	; 0xd608
8002917c:	e348300a 	movt	r3, #32778	; 0x800a
80029180:	e5933000 	ldr	r3, [r3]
80029184:	e5d3300c 	ldrb	r3, [r3, #12]
80029188:	e3530004 	cmp	r3, #4
8002918c:	1a000003 	bne	800291a0 <pic_dispatch+0xc4>
80029190:	e51b3008 	ldr	r3, [fp, #-8]
80029194:	e3530000 	cmp	r3, #0
80029198:	0a000000 	beq	800291a0 <pic_dispatch+0xc4>
8002919c:	ebfff285 	bl	80025bb8 <yield>
800291a0:	e30d3608 	movw	r3, #54792	; 0xd608
800291a4:	e348300a 	movt	r3, #32778	; 0x800a
800291a8:	e5933000 	ldr	r3, [r3]
800291ac:	e3530000 	cmp	r3, #0
800291b0:	0a00000c 	beq	800291e8 <pic_dispatch+0x10c>
800291b4:	e30d3608 	movw	r3, #54792	; 0xd608
800291b8:	e348300a 	movt	r3, #32778	; 0x800a
800291bc:	e5933000 	ldr	r3, [r3]
800291c0:	e5933024 	ldr	r3, [r3, #36]	; 0x24
800291c4:	e3530000 	cmp	r3, #0
800291c8:	0a000006 	beq	800291e8 <pic_dispatch+0x10c>
800291cc:	e51b3010 	ldr	r3, [fp, #-16]
800291d0:	e5932008 	ldr	r2, [r3, #8]
800291d4:	e51b3010 	ldr	r3, [fp, #-16]
800291d8:	e5933044 	ldr	r3, [r3, #68]	; 0x44
800291dc:	e1520003 	cmp	r2, r3
800291e0:	0a000000 	beq	800291e8 <pic_dispatch+0x10c>
800291e4:	ebfff13a 	bl	800256d4 <exit>
800291e8:	e24bd004 	sub	sp, fp, #4
800291ec:	e8bd8800 	pop	{fp, pc}

800291f0 <__aeabi_uidiv>:
800291f0:	e2512001 	subs	r2, r1, #1
800291f4:	012fff1e 	bxeq	lr
800291f8:	3a000036 	bcc	800292d8 <__aeabi_uidiv+0xe8>
800291fc:	e1500001 	cmp	r0, r1
80029200:	9a000022 	bls	80029290 <__aeabi_uidiv+0xa0>
80029204:	e1110002 	tst	r1, r2
80029208:	0a000023 	beq	8002929c <__aeabi_uidiv+0xac>
8002920c:	e311020e 	tst	r1, #-536870912	; 0xe0000000
80029210:	01a01181 	lsleq	r1, r1, #3
80029214:	03a03008 	moveq	r3, #8
80029218:	13a03001 	movne	r3, #1
8002921c:	e3510201 	cmp	r1, #268435456	; 0x10000000
80029220:	31510000 	cmpcc	r1, r0
80029224:	31a01201 	lslcc	r1, r1, #4
80029228:	31a03203 	lslcc	r3, r3, #4
8002922c:	3afffffa 	bcc	8002921c <__aeabi_uidiv+0x2c>
80029230:	e3510102 	cmp	r1, #-2147483648	; 0x80000000
80029234:	31510000 	cmpcc	r1, r0
80029238:	31a01081 	lslcc	r1, r1, #1
8002923c:	31a03083 	lslcc	r3, r3, #1
80029240:	3afffffa 	bcc	80029230 <__aeabi_uidiv+0x40>
80029244:	e3a02000 	mov	r2, #0
80029248:	e1500001 	cmp	r0, r1
8002924c:	20400001 	subcs	r0, r0, r1
80029250:	21822003 	orrcs	r2, r2, r3
80029254:	e15000a1 	cmp	r0, r1, lsr #1
80029258:	204000a1 	subcs	r0, r0, r1, lsr #1
8002925c:	218220a3 	orrcs	r2, r2, r3, lsr #1
80029260:	e1500121 	cmp	r0, r1, lsr #2
80029264:	20400121 	subcs	r0, r0, r1, lsr #2
80029268:	21822123 	orrcs	r2, r2, r3, lsr #2
8002926c:	e15001a1 	cmp	r0, r1, lsr #3
80029270:	204001a1 	subcs	r0, r0, r1, lsr #3
80029274:	218221a3 	orrcs	r2, r2, r3, lsr #3
80029278:	e3500000 	cmp	r0, #0
8002927c:	11b03223 	lsrsne	r3, r3, #4
80029280:	11a01221 	lsrne	r1, r1, #4
80029284:	1affffef 	bne	80029248 <__aeabi_uidiv+0x58>
80029288:	e1a00002 	mov	r0, r2
8002928c:	e12fff1e 	bx	lr
80029290:	03a00001 	moveq	r0, #1
80029294:	13a00000 	movne	r0, #0
80029298:	e12fff1e 	bx	lr
8002929c:	e3510801 	cmp	r1, #65536	; 0x10000
800292a0:	21a01821 	lsrcs	r1, r1, #16
800292a4:	23a02010 	movcs	r2, #16
800292a8:	33a02000 	movcc	r2, #0
800292ac:	e3510c01 	cmp	r1, #256	; 0x100
800292b0:	21a01421 	lsrcs	r1, r1, #8
800292b4:	22822008 	addcs	r2, r2, #8
800292b8:	e3510010 	cmp	r1, #16
800292bc:	21a01221 	lsrcs	r1, r1, #4
800292c0:	22822004 	addcs	r2, r2, #4
800292c4:	e3510004 	cmp	r1, #4
800292c8:	82822003 	addhi	r2, r2, #3
800292cc:	908220a1 	addls	r2, r2, r1, lsr #1
800292d0:	e1a00230 	lsr	r0, r0, r2
800292d4:	e12fff1e 	bx	lr
800292d8:	e3500000 	cmp	r0, #0
800292dc:	13e00000 	mvnne	r0, #0
800292e0:	ea000007 	b	80029304 <__aeabi_idiv0>

800292e4 <__aeabi_uidivmod>:
800292e4:	e3510000 	cmp	r1, #0
800292e8:	0afffffa 	beq	800292d8 <__aeabi_uidiv+0xe8>
800292ec:	e92d4003 	push	{r0, r1, lr}
800292f0:	ebffffbe 	bl	800291f0 <__aeabi_uidiv>
800292f4:	e8bd4006 	pop	{r1, r2, lr}
800292f8:	e0030092 	mul	r3, r2, r0
800292fc:	e0411003 	sub	r1, r1, r3
80029300:	e12fff1e 	bx	lr

80029304 <__aeabi_idiv0>:
80029304:	e12fff1e 	bx	lr

80029308 <___puts_veneer>:
80029308:	e51ff004 	ldr	pc, [pc, #-4]	; 8002930c <___puts_veneer+0x4>
8002930c:	00008220 	.word	0x00008220
